	.cpu generic+fp+simd
	.file	"hisi-blk-core.c"
	.text
.Ltext0:
	.cfi_sections	.debug_frame
	.align	2
	.global	blk_mq_tagset_set_inline_crypto_flag
	.type	blk_mq_tagset_set_inline_crypto_flag, %function
blk_mq_tagset_set_inline_crypto_flag:
.LFB2967:
	.file 1 "/mnt/disk/jenkins/ci/workspace/chipset_pipeline_release/opensource/component_code/vendor/huawei/extra/build/build_script/kirin_kernel_release/kernel/block/hisi-blk-core.c"
	.loc 1 87 0
	.cfi_startproc
.LVL0:
	.loc 1 87 0
	uxtb	w1, w1
	.loc 1 88 0
	cbnz	w1, .L5
	.loc 1 91 0
	ldr	x1, [x0,40]
.LVL1:
	and	x1, x1, -33
	str	x1, [x0,40]
	.loc 1 92 0
	ret
.LVL2:
.L5:
	.loc 1 89 0
	ldr	x1, [x0,40]
.LVL3:
	orr	x1, x1, 32
	str	x1, [x0,40]
	.loc 1 92 0
	ret
	.cfi_endproc
.LFE2967:
	.size	blk_mq_tagset_set_inline_crypto_flag, .-blk_mq_tagset_set_inline_crypto_flag
	.align	2
	.type	hisi_blk_queue_usr_ctrl_recovery_timer_expire, %function
hisi_blk_queue_usr_ctrl_recovery_timer_expire:
.LFB2980:
	.loc 1 267 0
	.cfi_startproc
.LVL4:
	.loc 1 269 0
	str	xzr, [x0,1032]
	.loc 1 270 0
	str	xzr, [x0,12960]
	.loc 1 271 0
	ret
	.cfi_endproc
.LFE2980:
	.size	hisi_blk_queue_usr_ctrl_recovery_timer_expire, .-hisi_blk_queue_usr_ctrl_recovery_timer_expire
	.align	2
	.global	blk_queue_set_inline_crypto_flag
	.type	blk_queue_set_inline_crypto_flag, %function
blk_queue_set_inline_crypto_flag:
.LFB2968:
	.loc 1 99 0
	.cfi_startproc
.LVL5:
.LBB96:
.LBB97:
	.loc 1 23 0
	ldr	x2, [x0,280]
.LBE97:
.LBE96:
	.loc 1 99 0
	uxtb	w1, w1
.LBB100:
.LBB98:
	.loc 1 23 0
	cbz	x2, .L8
	.loc 1 24 0
	ldr	x2, [x0,14920]
	cbz	x2, .L9
	.loc 1 24 0 is_stmt 0 discriminator 1
	add	x0, x2, 16
.LVL6:
.L10:
.LBE98:
.LBE100:
	.loc 1 101 0 is_stmt 1
	cbnz	w1, .L19
	.loc 1 104 0
	ldr	x1, [x0,24]
.LVL7:
	and	x1, x1, -33
	str	x1, [x0,24]
	.loc 1 105 0
	ret
.LVL8:
.L19:
	.loc 1 102 0
	ldr	x1, [x0,24]
.LVL9:
	orr	x1, x1, 32
	str	x1, [x0,24]
	.loc 1 105 0
	ret
.LVL10:
.L9:
.LBB101:
.LBB99:
	.loc 1 24 0 discriminator 2
	add	x0, x0, 12288
.LVL11:
	add	x0, x0, 744
	b	.L10
.LVL12:
.L8:
	.loc 1 26 0
	ldr	x2, [x0,688]
	cbz	x2, .L9
	.loc 1 26 0 is_stmt 0 discriminator 1
	add	x0, x2, 136
.LVL13:
	b	.L10
.LBE99:
.LBE101:
	.cfi_endproc
.LFE2968:
	.size	blk_queue_set_inline_crypto_flag, .-blk_queue_set_inline_crypto_flag
	.align	2
	.global	is_blk_queue_support_crypto
	.type	is_blk_queue_support_crypto, %function
is_blk_queue_support_crypto:
.LFB2969:
	.loc 1 112 0 is_stmt 1
	.cfi_startproc
.LVL14:
.LBB102:
.LBB103:
	.loc 1 23 0
	ldr	x1, [x0,280]
	cbz	x1, .L21
	.loc 1 24 0
	ldr	x1, [x0,14920]
	cbz	x1, .L22
	.loc 1 24 0 is_stmt 0 discriminator 1
	add	x1, x1, 16
.L23:
.LBE103:
.LBE102:
	.loc 1 114 0 is_stmt 1
	ldr	x0, [x1,24]
.LVL15:
	.loc 1 115 0
	and	w0, w0, 32
	ret
.LVL16:
.L22:
.LBB106:
.LBB104:
	.loc 1 24 0 discriminator 2
	add	x0, x0, 12288
.LVL17:
	add	x1, x0, 744
.LBE104:
.LBE106:
	.loc 1 114 0
	ldr	x0, [x1,24]
	.loc 1 115 0
	and	w0, w0, 32
	ret
.LVL18:
.L21:
.LBB107:
.LBB105:
	.loc 1 26 0
	ldr	x1, [x0,688]
	cbz	x1, .L22
	.loc 1 26 0 is_stmt 0 discriminator 1
	add	x1, x1, 136
	b	.L23
.LBE105:
.LBE107:
	.cfi_endproc
.LFE2969:
	.size	is_blk_queue_support_crypto, .-is_blk_queue_support_crypto
	.align	2
	.global	blk_generic_freeze
	.type	blk_generic_freeze, %function
blk_generic_freeze:
.LFB3020:
	.loc 1 697 0 is_stmt 1
	.cfi_startproc
.LVL19:
	stp	x29, x30, [sp, -48]!
	.cfi_def_cfa_offset 48
	.cfi_offset 29, -48
	.cfi_offset 30, -40
	mov	x3, x0
	add	x29, sp, 0
	.cfi_def_cfa_register 29
	stp	x19, x20, [sp,16]
	str	x21, [sp,32]
	.cfi_offset 19, -32
	.cfi_offset 20, -24
	.cfi_offset 21, -16
	.loc 1 697 0
	uxtb	w20, w2
.LVL20:
	.loc 1 701 0
	cbz	x0, .L30
	.loc 1 709 0
	cbz	w1, .L33
	cmp	w1, 1
	bne	.L30
	.loc 1 716 0
	ldr	x1, [x0,280]
.LVL21:
	cbz	x1, .L30
.L56:
.LBB114:
.LBB115:
	.loc 1 717 0
	cbnz	w20, .L57
	.loc 1 720 0
	bl	blk_mq_unfreeze_queue
.LVL22:
.L30:
.LBE115:
.LBE114:
	.loc 1 730 0
	ldp	x19, x20, [sp,16]
	.cfi_remember_state
	.cfi_restore 20
	.cfi_restore 19
.LVL23:
	ldr	x21, [sp,32]
	.cfi_restore 21
	ldp	x29, x30, [sp], 48
	.cfi_restore 30
	.cfi_restore 29
	.cfi_def_cfa 31, 0
	ret
.LVL24:
.L33:
	.cfi_restore_state
.LBB117:
.LBB118:
	.loc 1 51 0
	ldr	w0, [x0,4]
	cbz	w0, .L35
	cmp	w0, 2
	bne	.L30
	.loc 1 64 0
	ldr	x0, [x3,8]
.LVL25:
	.loc 1 65 0 discriminator 1
	add	x21, x0, 1464
.LBB119:
	.loc 1 65 0 is_stmt 0
	ldr	x19, [x0,1464]
.LVL26:
.L53:
.LBE119:
	.loc 1 65 0 discriminator 1
	mov	x0, x19
.LVL27:
.LBB120:
	.loc 1 65 0
	sub	x19, x19, #12288
.LVL28:
.LBE120:
	.loc 1 65 0 discriminator 1
	cmp	x21, x0
	sub	x19, x19, #2640
	beq	.L30
	.loc 1 66 0 is_stmt 1
	ldr	x1, [x19,280]
.LVL29:
	.loc 1 68 0
	mov	x0, x19
	.loc 1 66 0
	cbz	x1, .L39
	.loc 1 67 0
	cbz	w20, .L40
	.loc 1 68 0
	bl	blk_mq_freeze_queue
.LVL30:
.L39:
.LBB121:
	.loc 1 65 0 discriminator 2
	ldr	x19, [x19,14928]
.LVL31:
	b	.L53
.LVL32:
.L40:
.LBE121:
	.loc 1 70 0
	mov	x0, x19
	bl	blk_mq_unfreeze_queue
.LVL33:
.LBB122:
	.loc 1 65 0 discriminator 2
	ldr	x19, [x19,14928]
.LVL34:
	b	.L53
.LVL35:
.L57:
.LBE122:
.LBE118:
.LBE117:
.LBB124:
.LBB116:
	.loc 1 718 0
	bl	blk_mq_freeze_queue
.LVL36:
.LBE116:
.LBE124:
	.loc 1 730 0
	ldr	x21, [sp,32]
	.cfi_remember_state
	.cfi_restore 21
	ldp	x19, x20, [sp,16]
	.cfi_restore 19
	.cfi_restore 20
.LVL37:
	ldp	x29, x30, [sp], 48
	.cfi_restore 29
	.cfi_restore 30
	.cfi_def_cfa 31, 0
	ret
.LVL38:
.L35:
	.cfi_restore_state
.LBB125:
.LBB123:
	.loc 1 53 0
	ldr	x0, [x3,8]
	.loc 1 54 0
	ldr	x1, [x0,280]
.LVL39:
	cbnz	x1, .L56
	b	.L30
.LBE123:
.LBE125:
	.cfi_endproc
.LFE3020:
	.size	blk_generic_freeze, .-blk_generic_freeze
	.align	2
	.global	hisi_blk_get_lld
	.type	hisi_blk_get_lld, %function
hisi_blk_get_lld:
.LFB2964:
	.loc 1 22 0
	.cfi_startproc
.LVL40:
	.loc 1 23 0
	ldr	x1, [x0,280]
	cbz	x1, .L59
	.loc 1 24 0
	ldr	x1, [x0,14920]
	cbz	x1, .L60
	.loc 1 24 0 is_stmt 0 discriminator 1
	add	x0, x1, 16
.LVL41:
	.loc 1 27 0 is_stmt 1
	ret
.LVL42:
.L60:
	.loc 1 24 0 discriminator 2
	add	x0, x0, 12288
.LVL43:
	add	x0, x0, 744
	.loc 1 27 0
	ret
.LVL44:
.L59:
	.loc 1 26 0
	ldr	x1, [x0,688]
	cbz	x1, .L60
	.loc 1 26 0 is_stmt 0 discriminator 1
	add	x0, x1, 136
.LVL45:
	.loc 1 27 0 is_stmt 1
	ret
	.cfi_endproc
.LFE2964:
	.size	hisi_blk_get_lld, .-hisi_blk_get_lld
	.align	2
	.global	hisi_blk_get_queue_by_lld
	.type	hisi_blk_get_queue_by_lld, %function
hisi_blk_get_queue_by_lld:
.LFB2965:
	.loc 1 30 0
	.cfi_startproc
.LVL46:
	.loc 1 33 0
	ldr	w1, [x0,4]
	cmp	w1, 1
	beq	.L70
	cbz	w1, .L71
	cmp	w1, 2
	bne	.L76
.LBB126:
	.loc 1 41 0
	ldr	x0, [x0,8]
.LVL47:
	ldr	x0, [x0,1472]
	sub	x0, x0, #12288
	sub	x0, x0, #2640
.LBE126:
	.loc 1 44 0
	ret
.LVL48:
.L76:
	.loc 1 43 0
	mov	x0, 0
.LVL49:
	.loc 1 44 0
	ret
.LVL50:
.L71:
	.loc 1 35 0
	ldr	x0, [x0,8]
.LVL51:
	.loc 1 44 0
	ret
.LVL52:
.L70:
.LBB127:
	.loc 1 38 0
	ldr	x0, [x0,8]
.LVL53:
	ldr	x0, [x0,128]
	sub	x0, x0, #12288
	sub	x0, x0, #2640
.LBE127:
	.loc 1 44 0
	ret
	.cfi_endproc
.LFE2965:
	.size	hisi_blk_get_queue_by_lld, .-hisi_blk_get_queue_by_lld
	.align	2
	.global	bio_set_streamid
	.type	bio_set_streamid, %function
bio_set_streamid:
.LFB2975:
	.loc 1 219 0
	.cfi_startproc
.LVL54:
	.loc 1 220 0
	orr	w1, w1, -128
.LVL55:
	strb	w1, [x0,147]
	.loc 1 221 0
	ret
	.cfi_endproc
.LFE2975:
	.size	bio_set_streamid, .-bio_set_streamid
	.align	2
	.global	bio_get_streamid
	.type	bio_get_streamid, %function
bio_get_streamid:
.LFB2976:
	.loc 1 224 0
	.cfi_startproc
.LVL56:
	.loc 1 225 0
	ldrb	w0, [x0,147]
.LVL57:
	.loc 1 226 0
	and	w0, w0, 127
	ret
	.cfi_endproc
.LFE2976:
	.size	bio_get_streamid, .-bio_get_streamid
	.align	2
	.global	req_get_streamid
	.type	req_get_streamid, %function
req_get_streamid:
.LFB2977:
	.loc 1 229 0
	.cfi_startproc
.LVL58:
	.loc 1 230 0
	ldrb	w0, [x0,274]
.LVL59:
	.loc 1 231 0
	and	w0, w0, 127
	ret
	.cfi_endproc
.LFE2977:
	.size	req_get_streamid, .-req_get_streamid
	.align	2
	.global	hisi_blk_queue_usr_ctrl_set
	.type	hisi_blk_queue_usr_ctrl_set, %function
hisi_blk_queue_usr_ctrl_set:
.LFB2979:
	.loc 1 255 0
	.cfi_startproc
.LVL60:
	mov	x1, x0
	.loc 1 256 0
	mov	x0, 28570
.LVL61:
	.loc 1 255 0
	stp	x29, x30, [sp, -16]!
	.cfi_def_cfa_offset 16
	.cfi_offset 29, -16
	.cfi_offset 30, -8
	.loc 1 256 0
	movk	x0, 0x4, lsl 16
	.loc 1 255 0
	add	x29, sp, 0
	.cfi_def_cfa_register 29
	.loc 1 256 0
	ldr	x2, [x1,1032]
	cmp	x2, x0
	.loc 1 258 0
	add	x0, x1, 12288
	.loc 1 256 0
	beq	.L83
	.loc 1 261 0
	str	xzr, [x1,12960]
	.loc 1 262 0
	add	x0, x0, 680
	bl	del_timer_sync
.LVL62:
	.loc 1 264 0
	ldp	x29, x30, [sp], 16
	.cfi_remember_state
	.cfi_restore 30
	.cfi_restore 29
	.cfi_def_cfa 31, 0
	ret
.LVL63:
.L83:
	.cfi_restore_state
	.loc 1 257 0
	mov	x2, 100
	str	x2, [x1,12960]
	.loc 1 258 0
	adrp	x1, jiffies
.LVL64:
	.loc 1 258 0 is_stmt 0 discriminator 1
	add	x0, x0, 680
	.loc 1 258 0
	ldr	x1, [x1,#:lo12:jiffies]
	add	x1, x1, 897024
	.loc 1 258 0 discriminator 1
	add	x1, x1, 2976
	bl	mod_timer
.LVL65:
	.loc 1 264 0 is_stmt 1
	ldp	x29, x30, [sp], 16
	.cfi_restore 29
	.cfi_restore 30
	.cfi_def_cfa 31, 0
	ret
	.cfi_endproc
.LFE2979:
	.size	hisi_blk_queue_usr_ctrl_set, .-hisi_blk_queue_usr_ctrl_set
	.align	2
	.global	hisi_blk_bio_queue_split
	.type	hisi_blk_bio_queue_split, %function
hisi_blk_bio_queue_split:
.LFB2983:
	.loc 1 293 0
	.cfi_startproc
.LVL66:
	stp	x29, x30, [sp, -48]!
	.cfi_def_cfa_offset 48
	.cfi_offset 29, -48
	.cfi_offset 30, -40
	add	x29, sp, 0
	.cfi_def_cfa_register 29
	str	x19, [sp,16]
	.cfi_offset 19, -32
	.loc 1 293 0
	mov	x19, x0
	.loc 1 294 0
	ldr	x0, [x1]
.LVL67:
	.loc 1 293 0
	str	x2, [x29,40]
	.loc 1 294 0
	bl	hisi_blk_busy_idle_check_bio_endio
.LVL68:
	.loc 1 295 0
	ldr	x1, [x29,40]
.LVL69:
	mov	x0, x19
	bl	hisi_blk_busy_idle_check_bio
.LVL70:
	.loc 1 296 0
	ldr	x19, [sp,16]
	.cfi_restore 19
.LVL71:
	ldp	x29, x30, [sp], 48
	.cfi_restore 30
	.cfi_restore 29
	.cfi_def_cfa 31, 0
	ret
	.cfi_endproc
.LFE2983:
	.size	hisi_blk_bio_queue_split, .-hisi_blk_bio_queue_split
	.align	2
	.global	hisi_blk_queue_bounce
	.type	hisi_blk_queue_bounce, %function
hisi_blk_queue_bounce:
.LFB2984:
	.loc 1 302 0
	.cfi_startproc
.LVL72:
	stp	x29, x30, [sp, -16]!
	.cfi_def_cfa_offset 16
	.cfi_offset 29, -16
	.cfi_offset 30, -8
	.loc 1 303 0
	mov	x1, x2
.LVL73:
	.loc 1 302 0
	add	x29, sp, 0
	.cfi_def_cfa_register 29
	.loc 1 303 0
	bl	hisi_blk_busy_idle_check_bio
.LVL74:
	.loc 1 304 0
	ldp	x29, x30, [sp], 16
	.cfi_restore 30
	.cfi_restore 29
	.cfi_def_cfa 31, 0
	ret
	.cfi_endproc
.LFE2984:
	.size	hisi_blk_queue_bounce, .-hisi_blk_queue_bounce
	.align	2
	.global	hisi_blk_bio_split_pre
	.type	hisi_blk_bio_split_pre, %function
hisi_blk_bio_split_pre:
.LFB2985:
	.loc 1 310 0
	.cfi_startproc
.LVL75:
	stp	x29, x30, [sp, -32]!
	.cfi_def_cfa_offset 32
	.cfi_offset 29, -32
	.cfi_offset 30, -24
	add	x29, sp, 0
	.cfi_def_cfa_register 29
	stp	x19, x20, [sp,16]
	.cfi_offset 19, -16
	.cfi_offset 20, -8
.LBB130:
.LBB131:
	.loc 1 187 0
	ldr	x2, [x0,272]
	cbz	x2, .L86
	mov	x19, x0
	.loc 1 188 0
	ldr	w0, [x0,280]
.LVL76:
	mov	x20, x1
	cmp	w0, 64
	bne	.L95
.L88:
	.loc 1 192 0
	str	x2, [x20,272]
	.loc 1 193 0
	ldr	w0, [x19,280]
	str	w0, [x20,280]
	.loc 1 194 0
	ldr	w0, [x19,284]
	str	w0, [x20,284]
	.loc 1 195 0
	ldr	x0, [x19,288]
	str	x0, [x20,288]
.L86:
.LBE131:
.LBE130:
	.loc 1 312 0
	ldp	x19, x20, [sp,16]
	.cfi_remember_state
	.cfi_restore 20
	.cfi_restore 19
.LVL77:
	ldp	x29, x30, [sp], 32
	.cfi_restore 30
	.cfi_restore 29
	.cfi_def_cfa 31, 0
	ret
.LVL78:
.L95:
	.cfi_restore_state
.LBB133:
.LBB132:
	.loc 1 189 0
	adrp	x0, .LC0
	adrp	x1, .LANCHOR0
	add	x0, x0, :lo12:.LC0
	add	x1, x1, :lo12:.LANCHOR0
	bl	printk
.LVL79:
	ldr	x2, [x19,272]
	b	.L88
.LBE132:
.LBE133:
	.cfi_endproc
.LFE2985:
	.size	hisi_blk_bio_split_pre, .-hisi_blk_bio_split_pre
	.align	2
	.global	hisi_blk_bio_split_post
	.type	hisi_blk_bio_split_post, %function
hisi_blk_bio_split_post:
.LFB2986:
	.loc 1 318 0
	.cfi_startproc
.LVL80:
	stp	x29, x30, [sp, -32]!
	.cfi_def_cfa_offset 32
	.cfi_offset 29, -32
	.cfi_offset 30, -24
	add	x29, sp, 0
	.cfi_def_cfa_register 29
	str	x19, [sp,16]
	.cfi_offset 19, -16
.LBB136:
.LBB137:
	.loc 1 201 0
	ldr	x1, [x0,272]
.LVL81:
	cbz	x1, .L96
	mov	x19, x0
	.loc 1 202 0
	ldr	w0, [x0,280]
.LVL82:
	cmp	w0, 64
	bne	.L105
.L98:
	.loc 1 205 0
	ldr	w0, [x19,44]
	ldr	x1, [x19,376]
	lsl	x0, x0, 4
	ldr	x0, [x1,x0]
	ldr	x0, [x0,16]
	str	x0, [x19,288]
.L96:
.LBE137:
.LBE136:
	.loc 1 320 0
	ldr	x19, [sp,16]
	.cfi_remember_state
	.cfi_restore 19
.LVL83:
	ldp	x29, x30, [sp], 32
	.cfi_restore 30
	.cfi_restore 29
	.cfi_def_cfa 31, 0
	ret
.LVL84:
.L105:
	.cfi_restore_state
.LBB139:
.LBB138:
	.loc 1 203 0
	adrp	x1, .LANCHOR0
	adrp	x0, .LC0
	add	x1, x1, :lo12:.LANCHOR0
	add	x0, x0, :lo12:.LC0
	add	x1, x1, 48
	bl	printk
.LVL85:
	b	.L98
.LBE138:
.LBE139:
	.cfi_endproc
.LFE2986:
	.size	hisi_blk_bio_split_post, .-hisi_blk_bio_split_post
	.align	2
	.global	hisi_blk_bio_merge_allow
	.type	hisi_blk_bio_merge_allow, %function
hisi_blk_bio_merge_allow:
.LFB2987:
	.loc 1 326 0
	.cfi_startproc
.LVL86:
	stp	x29, x30, [sp, -48]!
	.cfi_def_cfa_offset 48
	.cfi_offset 29, -48
	.cfi_offset 30, -40
	add	x29, sp, 0
	.cfi_def_cfa_register 29
	stp	x19, x20, [sp,16]
	str	x21, [sp,32]
	.cfi_offset 19, -32
	.cfi_offset 20, -24
	.cfi_offset 21, -16
.LBB147:
.LBB148:
	.loc 1 135 0
	ldr	x19, [x0,64]
.LBB149:
.LBB150:
.LBB151:
.LBB152:
	.loc 1 23 0
	ldr	x2, [x19,280]
	cbz	x2, .L107
	.loc 1 24 0
	ldr	x2, [x19,14920]
	cbz	x2, .L110
	.loc 1 24 0 is_stmt 0 discriminator 1
	add	x2, x2, 16
.L109:
.LBE152:
.LBE151:
	.loc 1 114 0 is_stmt 1
	ldr	x2, [x2,24]
.LBE150:
.LBE149:
	.loc 1 135 0
	tbz	x2, 5, .L111
	.loc 1 142 0
	ldr	x2, [x1,272]
	cbz	x2, .L133
	.loc 1 150 0 discriminator 1
	ldr	x3, [x0,416]
	cbz	x3, .L115
	.loc 1 153 0
	ldr	w4, [x1,280]
	ldr	w5, [x0,424]
	cmp	w4, w5
	beq	.L134
.LVL87:
.L115:
.LBE148:
.LBE147:
	.loc 1 328 0
	mov	w0, 0
.LVL88:
	.loc 1 330 0
	ldr	x21, [sp,32]
	.cfi_remember_state
	.cfi_restore 21
.LVL89:
	ldp	x19, x20, [sp,16]
	.cfi_restore 20
	.cfi_restore 19
.LVL90:
	ldp	x29, x30, [sp], 48
	.cfi_restore 30
	.cfi_restore 29
	.cfi_def_cfa 31, 0
	ret
.LVL91:
.L134:
	.cfi_restore_state
.LBB163:
.LBB159:
	.loc 1 156 0
	cmp	w4, 64
	mov	x20, x1
	mov	x19, x0
	bne	.L135
.L114:
	.loc 1 161 0
	cmp	x2, x3
	bne	.L115
.LBB156:
	.loc 1 165 0
	mov	x0, x19
	mov	x1, x20
	.loc 1 162 0
	ldr	x21, [x19,128]
.LVL92:
	.loc 1 165 0
	bl	blk_try_merge
.LVL93:
	.loc 1 166 0
	cmp	w0, 1
	beq	.L116
	cmp	w0, 2
	bne	.L115
	.loc 1 168 0
	ldrh	w2, [x21,368]
	ldr	x0, [x21,288]
.LVL94:
	ldr	x1, [x20,288]
	add	x0, x2, x0
	cmp	x0, x1
	bne	.L115
.L111:
.LBE156:
.LBE159:
.LBE163:
	.loc 1 329 0
	mov	w0, 1
.LVL95:
.L136:
	.loc 1 330 0
	ldp	x19, x20, [sp,16]
	.cfi_remember_state
	.cfi_restore 19
	.cfi_restore 20
.LVL96:
	ldr	x21, [sp,32]
	.cfi_restore 21
.LVL97:
	ldp	x29, x30, [sp], 48
	.cfi_restore 29
	.cfi_restore 30
	.cfi_def_cfa 31, 0
	ret
.LVL98:
.L110:
	.cfi_restore_state
.LBB164:
.LBB160:
.LBB157:
.LBB155:
.LBB154:
.LBB153:
	.loc 1 26 0 discriminator 2
	add	x2, x19, 12288
	add	x2, x2, 744
	b	.L109
.L107:
	.loc 1 26 0 is_stmt 0
	ldr	x2, [x19,688]
	cbz	x2, .L110
	.loc 1 26 0 discriminator 1
	add	x2, x2, 136
	b	.L109
.L133:
.LBE153:
.LBE154:
.LBE155:
.LBE157:
	.loc 1 142 0 is_stmt 1 discriminator 1
	ldr	x0, [x0,416]
.LVL99:
	cbnz	x0, .L115
.LBE160:
.LBE164:
	.loc 1 329 0
	mov	w0, 1
	b	.L136
.LVL100:
.L116:
.LBB165:
.LBB161:
.LBB158:
	.loc 1 172 0
	ldr	x1, [x19,120]
	ldrh	w2, [x20,368]
	ldr	x0, [x20,288]
.LVL101:
	ldr	x1, [x1,288]
	add	x0, x2, x0
	cmp	x0, x1
	bne	.L115
.LBE158:
.LBE161:
.LBE165:
	.loc 1 329 0
	mov	w0, 1
	b	.L136
.LVL102:
.L135:
.LBB166:
.LBB162:
	.loc 1 157 0
	adrp	x1, .LANCHOR0
	adrp	x0, .LC1
	add	x1, x1, :lo12:.LANCHOR0
	add	x0, x0, :lo12:.LC1
	add	x1, x1, 96
	bl	printk
.LVL103:
	ldr	x2, [x20,272]
	ldr	x3, [x19,416]
	b	.L114
.LBE162:
.LBE166:
	.cfi_endproc
.LFE2987:
	.size	hisi_blk_bio_merge_allow, .-hisi_blk_bio_merge_allow
	.align	2
	.global	hisi_blk_bio_merge_done
	.type	hisi_blk_bio_merge_done, %function
hisi_blk_bio_merge_done:
.LFB2988:
	.loc 1 336 0
	.cfi_startproc
.LVL104:
	stp	x29, x30, [sp, -16]!
	.cfi_def_cfa_offset 16
	.cfi_offset 29, -16
	.cfi_offset 30, -8
	.loc 1 337 0
	mov	x0, x1
.LVL105:
	mov	x1, x2
.LVL106:
	.loc 1 336 0
	add	x29, sp, 0
	.cfi_def_cfa_register 29
	.loc 1 337 0
	bl	hisi_blk_latency_for_merge
.LVL107:
	.loc 1 338 0
	ldp	x29, x30, [sp], 16
	.cfi_restore 30
	.cfi_restore 29
	.cfi_def_cfa 31, 0
	ret
	.cfi_endproc
.LFE2988:
	.size	hisi_blk_bio_merge_done, .-hisi_blk_bio_merge_done
	.align	2
	.global	hisi_blk_account_io_completion
	.type	hisi_blk_account_io_completion, %function
hisi_blk_account_io_completion:
.LFB2989:
	.loc 1 344 0
	.cfi_startproc
.LVL108:
	.loc 1 347 0
	cbz	x0, .L147
	.loc 1 350 0
	ldr	x4, [x0,64]
.LBB167:
.LBB168:
	.loc 1 23 0
	ldr	x2, [x4,280]
	cbz	x2, .L140
	.loc 1 24 0
	ldr	x3, [x4,14920]
	cbz	x3, .L144
	.loc 1 24 0 is_stmt 0 discriminator 1
	add	x3, x3, 16
.L142:
.LBE168:
.LBE167:
	.loc 1 352 0 is_stmt 1
	ldr	x2, [x0,88]
	lsr	x2, x2, 61
	cmp	x2, 2
	beq	.L148
.L145:
	.loc 1 355 0
	cmp	x2, 1
	beq	.L149
	.loc 1 359 0
	mov	w0, 0
.LVL109:
.L139:
	.loc 1 360 0
	ret
.LVL110:
.L149:
	.loc 1 356 0
	ldr	x2, [x3,1304]
	.loc 1 359 0
	mov	w0, 0
.LVL111:
	.loc 1 356 0
	add	x1, x2, x1, uxtw
.LVL112:
	str	x1, [x3,1304]
	.loc 1 360 0
	ret
.LVL113:
.L148:
	.loc 1 353 0
	ldr	x2, [x3,1312]
	add	x2, x2, x1, uxtw
	str	x2, [x3,1312]
	ldr	x2, [x0,88]
	lsr	x2, x2, 61
	b	.L145
.L144:
.LBB171:
.LBB169:
	.loc 1 26 0 discriminator 2
	add	x4, x4, 12288
	add	x3, x4, 744
.LBE169:
.LBE171:
	.loc 1 351 0
	cbnz	x3, .L142
	.loc 1 359 0
	mov	w0, 0
.LVL114:
	b	.L139
.LVL115:
.L140:
.LBB172:
.LBB170:
	.loc 1 26 0
	ldr	x3, [x4,688]
	cbz	x3, .L144
	.loc 1 26 0 is_stmt 0 discriminator 1
	add	x3, x3, 136
	b	.L142
.L147:
.LBE170:
.LBE172:
	.loc 1 348 0 is_stmt 1
	mov	w0, -1
.LVL116:
	.loc 1 360 0
	ret
	.cfi_endproc
.LFE2989:
	.size	hisi_blk_account_io_completion, .-hisi_blk_account_io_completion
	.align	2
	.global	hisi_blk_generic_make_request_check
	.type	hisi_blk_generic_make_request_check, %function
hisi_blk_generic_make_request_check:
.LFB2990:
	.loc 1 365 0
	.cfi_startproc
.LVL117:
	stp	x29, x30, [sp, -32]!
	.cfi_def_cfa_offset 32
	.cfi_offset 29, -32
	.cfi_offset 30, -24
	.loc 1 367 0
	mov	x1, x0
	.loc 1 365 0
	add	x29, sp, 0
	.cfi_def_cfa_register 29
	stp	x19, x20, [sp,16]
	.cfi_offset 19, -16
	.cfi_offset 20, -8
	.loc 1 365 0
	mov	x19, x0
	ldr	x0, [x0,8]
.LVL118:
.LBB173:
.LBB174:
	.file 2 "/mnt/disk/jenkins/ci/workspace/chipset_pipeline_release/opensource/component_code/vendor/huawei/extra/build/build_script/kirin_kernel_release/kernel/include/linux/blkdev.h"
	.loc 2 1264 0
	ldr	x0, [x0,168]
	ldr	x20, [x0,1048]
.LBE174:
.LBE173:
	.loc 1 367 0
	mov	x0, x20
	bl	hisi_blk_busy_idle_check_bio
.LVL119:
	.loc 1 368 0
	mov	x0, x19
	mov	w1, 0
	bl	hisi_blk_latency_bio_check
.LVL120:
	.loc 1 369 0
	mov	x1, x19
	mov	x0, x20
	bl	hisi_blk_flush_sync_dispatch
.LVL121:
	uxtb	w1, w0
	.loc 1 374 0
	mov	w0, 0
	.loc 1 369 0
	cbz	w1, .L153
	.loc 1 375 0
	ldp	x19, x20, [sp,16]
	.cfi_remember_state
	.cfi_restore 20
	.cfi_restore 19
.LVL122:
	ldp	x29, x30, [sp], 32
	.cfi_restore 30
	.cfi_restore 29
	.cfi_def_cfa 31, 0
	ret
.LVL123:
.L153:
	.cfi_restore_state
	.loc 1 371 0
	mov	x0, x19
	.loc 1 370 0
	str	wzr, [x19,16]
	.loc 1 371 0
	bl	bio_endio
.LVL124:
	.loc 1 372 0
	mov	w0, 1
	.loc 1 375 0
	ldp	x19, x20, [sp,16]
	.cfi_restore 19
	.cfi_restore 20
.LVL125:
	ldp	x29, x30, [sp], 32
	.cfi_restore 29
	.cfi_restore 30
	.cfi_def_cfa 31, 0
	ret
	.cfi_endproc
.LFE2990:
	.size	hisi_blk_generic_make_request_check, .-hisi_blk_generic_make_request_check
	.align	2
	.global	hisi_blk_generic_make_request
	.type	hisi_blk_generic_make_request, %function
hisi_blk_generic_make_request:
.LFB2991:
	.loc 1 381 0
	.cfi_startproc
.LVL126:
	stp	x29, x30, [sp, -16]!
	.cfi_def_cfa_offset 16
	.cfi_offset 29, -16
	.cfi_offset 30, -8
	.loc 1 382 0
	mov	w1, 2
	.loc 1 381 0
	add	x29, sp, 0
	.cfi_def_cfa_register 29
	.loc 1 382 0
	bl	hisi_blk_latency_bio_check
.LVL127:
	.loc 1 383 0
	ldp	x29, x30, [sp], 16
	.cfi_restore 30
	.cfi_restore 29
	.cfi_def_cfa 31, 0
	ret
	.cfi_endproc
.LFE2991:
	.size	hisi_blk_generic_make_request, .-hisi_blk_generic_make_request
	.align	2
	.global	hisi_blk_start_plug
	.type	hisi_blk_start_plug, %function
hisi_blk_start_plug:
.LFB2992:
	.loc 1 389 0
	.cfi_startproc
.LVL128:
	.loc 1 390 0
	add	x1, x0, 48
	.loc 1 391 0
	str	xzr, [x0,64]
.LBB175:
.LBB176:
.LBB177:
.LBB178:
.LBB179:
	.file 3 "/mnt/disk/jenkins/ci/workspace/chipset_pipeline_release/opensource/component_code/vendor/huawei/extra/build/build_script/kirin_kernel_release/kernel/include/linux/compiler.h"
	.loc 3 276 0
	str	x1, [x0,48]
.LBE179:
.LBE178:
.LBE177:
	.file 4 "/mnt/disk/jenkins/ci/workspace/chipset_pipeline_release/opensource/component_code/vendor/huawei/extra/build/build_script/kirin_kernel_release/kernel/include/linux/list.h"
	.loc 4 28 0
	str	x1, [x0,56]
.LBE176:
.LBE175:
	.loc 1 392 0
	ret
	.cfi_endproc
.LFE2992:
	.size	hisi_blk_start_plug, .-hisi_blk_start_plug
	.align	2
	.global	hisi_blk_flush_plug_list
	.type	hisi_blk_flush_plug_list, %function
hisi_blk_flush_plug_list:
.LFB2993:
	.loc 1 398 0
	.cfi_startproc
.LVL129:
.LBB180:
.LBB181:
.LBB182:
.LBB183:
	.loc 3 247 0 discriminator 5
	mov	x2, x0
.LBE183:
.LBE182:
.LBE181:
.LBE180:
	.loc 1 398 0
	uxtb	w1, w1
	stp	x29, x30, [sp, -16]!
	.cfi_def_cfa_offset 16
	.cfi_offset 29, -16
	.cfi_offset 30, -8
	add	x29, sp, 0
	.cfi_def_cfa_register 29
.LBB187:
.LBB186:
.LBB185:
.LBB184:
	.loc 3 247 0 discriminator 5
	ldr	x4, [x2,48]!
.LBE184:
.LBE185:
.LBE186:
.LBE187:
	.loc 1 399 0
	cmp	x2, x4
	beq	.L156
	.loc 1 399 0 is_stmt 0 discriminator 2
	ldr	x2, [x0,64]
	cbz	x2, .L156
	.loc 1 400 0 is_stmt 1
	blr	x2
.LVL130:
.L156:
	.loc 1 401 0
	ldp	x29, x30, [sp], 16
	.cfi_restore 30
	.cfi_restore 29
	.cfi_def_cfa 31, 0
	ret
	.cfi_endproc
.LFE2993:
	.size	hisi_blk_flush_plug_list, .-hisi_blk_flush_plug_list
	.align	2
	.global	hisi_blk_bio_endio
	.type	hisi_blk_bio_endio, %function
hisi_blk_bio_endio:
.LFB2994:
	.loc 1 407 0
	.cfi_startproc
.LVL131:
	stp	x29, x30, [sp, -32]!
	.cfi_def_cfa_offset 32
	.cfi_offset 29, -32
	.cfi_offset 30, -24
	add	x29, sp, 0
	.cfi_def_cfa_register 29
	str	x19, [sp,16]
	.cfi_offset 19, -16
	.loc 1 407 0
	mov	x19, x0
	.loc 1 408 0
	bl	hisi_blk_busy_idle_check_bio_endio
.LVL132:
	.loc 1 409 0
	mov	x0, x19
	mov	w1, 1
	bl	hisi_blk_latency_bio_check
.LVL133:
	.loc 1 410 0
	ldr	x19, [sp,16]
	.cfi_restore 19
.LVL134:
	ldp	x29, x30, [sp], 32
	.cfi_restore 30
	.cfi_restore 29
	.cfi_def_cfa 31, 0
	ret
	.cfi_endproc
.LFE2994:
	.size	hisi_blk_bio_endio, .-hisi_blk_bio_endio
	.align	2
	.global	hisi_blk_bio_free
	.type	hisi_blk_bio_free, %function
hisi_blk_bio_free:
.LFB2995:
	.loc 1 416 0
	.cfi_startproc
.LVL135:
	stp	x29, x30, [sp, -16]!
	.cfi_def_cfa_offset 16
	.cfi_offset 29, -16
	.cfi_offset 30, -8
	add	x29, sp, 0
	.cfi_def_cfa_register 29
	.loc 1 417 0
	ldrb	w1, [x0,144]
	tbnz	x1, 0, .L167
	.loc 1 425 0
	ldp	x29, x30, [sp], 16
	.cfi_remember_state
	.cfi_restore 30
	.cfi_restore 29
	.cfi_def_cfa 31, 0
	ret
.L167:
	.cfi_restore_state
	.loc 1 422 0
	bl	hisi_blk_busy_idle_check_bio_endio
.LVL136:
	.loc 1 425 0
	ldp	x29, x30, [sp], 16
	.cfi_restore 29
	.cfi_restore 30
	.cfi_def_cfa 31, 0
	ret
	.cfi_endproc
.LFE2995:
	.size	hisi_blk_bio_free, .-hisi_blk_bio_free
	.align	2
	.global	hisi_blk_request_init_from_bio
	.type	hisi_blk_request_init_from_bio, %function
hisi_blk_request_init_from_bio:
.LFB2996:
	.loc 1 431 0
	.cfi_startproc
.LVL137:
	stp	x29, x30, [sp, -32]!
	.cfi_def_cfa_offset 32
	.cfi_offset 29, -32
	.cfi_offset 30, -24
	add	x29, sp, 0
	.cfi_def_cfa_register 29
	stp	x19, x20, [sp,16]
	.cfi_offset 19, -16
	.cfi_offset 20, -8
	.loc 1 431 0
	mov	x20, x1
	.loc 1 432 0
	mov	w1, 0
.LVL138:
	.loc 1 431 0
	mov	x19, x0
	.loc 1 432 0
	bl	hisi_blk_latency_req_check
.LVL139:
	.loc 1 433 0
	ldrb	w0, [x20,147]
	strb	w0, [x19,274]
	.loc 1 434 0
	ldrb	w0, [x20,240]
	strb	w0, [x19,273]
	.loc 1 435 0
	str	wzr, [x19,276]
	.loc 1 436 0
	str	x19, [x20,104]
.LBB194:
.LBB195:
	.loc 1 120 0
	ldr	x1, [x19,64]
.LBB196:
.LBB197:
.LBB198:
.LBB199:
	.loc 1 23 0
	ldr	x0, [x1,280]
	cbz	x0, .L169
	.loc 1 24 0
	ldr	x0, [x1,14920]
	cbz	x0, .L172
	.loc 1 24 0 is_stmt 0 discriminator 1
	add	x0, x0, 16
.L171:
.LBE199:
.LBE198:
	.loc 1 114 0 is_stmt 1
	ldr	x0, [x0,24]
.LBE197:
.LBE196:
	.loc 1 120 0
	tbz	x0, 5, .L168
	.loc 1 121 0
	ldr	x0, [x20,272]
	cbz	x0, .L168
	.loc 1 122 0
	ldr	w1, [x20,280]
	cmp	w1, 64
	bne	.L181
	.loc 1 126 0
	str	x0, [x19,416]
	.loc 1 127 0
	ldr	w0, [x20,280]
	str	w0, [x19,424]
	.loc 1 128 0
	ldr	w0, [x20,284]
	str	w0, [x19,428]
.L168:
.LBE195:
.LBE194:
	.loc 1 438 0
	ldp	x19, x20, [sp,16]
	.cfi_remember_state
	.cfi_restore 20
	.cfi_restore 19
.LVL140:
	ldp	x29, x30, [sp], 32
	.cfi_restore 30
	.cfi_restore 29
	.cfi_def_cfa 31, 0
	ret
.LVL141:
.L172:
	.cfi_restore_state
.LBB205:
.LBB204:
.LBB203:
.LBB202:
.LBB201:
.LBB200:
	.loc 1 26 0 discriminator 2
	add	x1, x1, 12288
	add	x0, x1, 744
	b	.L171
.L169:
	.loc 1 26 0 is_stmt 0
	ldr	x0, [x1,688]
	cbz	x0, .L172
	.loc 1 26 0 discriminator 1
	add	x0, x0, 136
	b	.L171
.L181:
.LBE200:
.LBE201:
.LBE202:
.LBE203:
	.loc 1 123 0 is_stmt 1
	adrp	x1, .LANCHOR0
	adrp	x0, .LC2
	add	x1, x1, :lo12:.LANCHOR0
	add	x0, x0, :lo12:.LC2
	add	x1, x1, 144
	bl	printk
.LVL142:
	.loc 1 124 0 discriminator 1
#APP
// 124 "/mnt/disk/jenkins/ci/workspace/chipset_pipeline_release/opensource/component_code/vendor/huawei/extra/build/build_script/kirin_kernel_release/kernel/block/hisi-blk-core.c" 1
	.pushsection __bug_table,"a"
	.align 2
	0:	.long 1f - 0b
	.pushsection .rodata.str,"aMS",@progbits,1
2:	.string "/mnt/disk/jenkins/ci/workspace/chipset_pipeline_release/opensource/component_code/vendor/huawei/extra/build/build_script/kirin_kernel_release/kernel/block/hisi-blk-core.c"
	.popsection
	.long 2b - 0b
	.short 124
	.short 0
	.popsection
1:	brk 2048
// 0 "" 2
#NO_APP
.LBE204:
.LBE205:
	.cfi_endproc
.LFE2996:
	.size	hisi_blk_request_init_from_bio, .-hisi_blk_request_init_from_bio
	.align	2
	.global	hisi_blk_insert_cloned_request
	.type	hisi_blk_insert_cloned_request, %function
hisi_blk_insert_cloned_request:
.LFB2997:
	.loc 1 444 0
	.cfi_startproc
.LVL143:
	stp	x29, x30, [sp, -16]!
	.cfi_def_cfa_offset 16
	.cfi_offset 29, -16
	.cfi_offset 30, -8
	add	x29, sp, 0
	.cfi_def_cfa_register 29
	.loc 1 445 0
	bl	hisi_blk_busy_idle_check_request_bio
.LVL144:
	.loc 1 446 0
	ldp	x29, x30, [sp], 16
	.cfi_restore 30
	.cfi_restore 29
	.cfi_def_cfa 31, 0
	ret
	.cfi_endproc
.LFE2997:
	.size	hisi_blk_insert_cloned_request, .-hisi_blk_insert_cloned_request
	.align	2
	.global	hisi_blk_request_execute_nowait
	.type	hisi_blk_request_execute_nowait, %function
hisi_blk_request_execute_nowait:
.LFB2998:
	.loc 1 453 0
	.cfi_startproc
.LVL145:
	stp	x29, x30, [sp, -16]!
	.cfi_def_cfa_offset 16
	.cfi_offset 29, -16
	.cfi_offset 30, -8
	.loc 1 454 0
	mov	x1, x2
.LVL146:
	mov	x2, x4
.LVL147:
	.loc 1 453 0
	add	x29, sp, 0
	.cfi_def_cfa_register 29
	.loc 1 454 0
	bl	hisi_blk_busy_idle_check_execute_request
.LVL148:
	.loc 1 455 0
	ldp	x29, x30, [sp], 16
	.cfi_restore 30
	.cfi_restore 29
	.cfi_def_cfa 31, 0
	ret
	.cfi_endproc
.LFE2998:
	.size	hisi_blk_request_execute_nowait, .-hisi_blk_request_execute_nowait
	.align	2
	.global	hisi_blk_mq_rq_ctx_init
	.type	hisi_blk_mq_rq_ctx_init, %function
hisi_blk_mq_rq_ctx_init:
.LFB2999:
	.loc 1 461 0
	.cfi_startproc
.LVL149:
	stp	x29, x30, [sp, -32]!
	.cfi_def_cfa_offset 32
	.cfi_offset 29, -32
	.cfi_offset 30, -24
	add	x29, sp, 0
	.cfi_def_cfa_register 29
	str	x19, [sp,16]
	.cfi_offset 19, -16
	.loc 1 461 0
	mov	x19, x2
	.loc 1 462 0
	ldr	x3, [x0,13024]
	cbz	x3, .L186
	.loc 1 462 0 is_stmt 0 discriminator 1
	ldr	x3, [x3,32]
	cbz	x3, .L186
.LBB206:
	.loc 1 463 0 is_stmt 1
	blr	x3
.LVL150:
	mov	w2, w0
.LVL151:
	.loc 1 464 0
	cbnz	w0, .L194
.LVL152:
.L186:
.LBE206:
.LBB207:
.LBB208:
	.loc 1 211 0
	str	xzr, [x19,416]
	.loc 1 213 0
	mov	w0, -1
.LVL153:
	.loc 1 212 0
	str	wzr, [x19,424]
	.loc 1 213 0
	str	w0, [x19,428]
.LBE208:
.LBE207:
	.loc 1 472 0
	ldr	x19, [sp,16]
	.cfi_remember_state
	.cfi_restore 19
.LVL154:
	ldp	x29, x30, [sp], 32
	.cfi_restore 30
	.cfi_restore 29
	.cfi_def_cfa 31, 0
	ret
.LVL155:
.L194:
	.cfi_restore_state
.LBB209:
	.loc 1 465 0
	adrp	x1, .LANCHOR0
	adrp	x0, .LC3
.LVL156:
	add	x1, x1, :lo12:.LANCHOR0
	add	x0, x0, :lo12:.LC3
	add	x1, x1, 200
	bl	printk
.LVL157:
	b	.L186
.LBE209:
	.cfi_endproc
.LFE2999:
	.size	hisi_blk_mq_rq_ctx_init, .-hisi_blk_mq_rq_ctx_init
	.align	2
	.global	hisi_blk_mq_request_start
	.type	hisi_blk_mq_request_start, %function
hisi_blk_mq_request_start:
.LFB3000:
	.loc 1 478 0
	.cfi_startproc
.LVL158:
	stp	x29, x30, [sp, -32]!
	.cfi_def_cfa_offset 32
	.cfi_offset 29, -32
	.cfi_offset 30, -24
	.loc 1 479 0
	mov	w1, 1
	.loc 1 478 0
	add	x29, sp, 0
	.cfi_def_cfa_register 29
	str	x19, [sp,16]
	.cfi_offset 19, -16
	.loc 1 478 0
	mov	x19, x0
	.loc 1 479 0
	bl	hisi_blk_latency_req_check
.LVL159:
	.loc 1 480 0
	mov	x0, 28570
	ldr	x1, [x19,64]
	movk	x0, 0x4, lsl 16
	ldr	x2, [x1,1032]
	cmp	x2, x0
	beq	.L224
.L195:
	.loc 1 482 0
	ldr	x19, [sp,16]
	.cfi_remember_state
	.cfi_restore 19
.LVL160:
	ldp	x29, x30, [sp], 32
	.cfi_restore 30
	.cfi_restore 29
	.cfi_def_cfa 31, 0
	ret
.LVL161:
.L224:
	.cfi_restore_state
.LBB212:
.LBB213:
	.loc 1 235 0
	ldr	w0, [x19,84]
	cmp	w0, 1
	bne	.L195
	.loc 1 235 0 is_stmt 0 discriminator 1
	ldr	w2, [x19,104]
	cbz	w2, .L195
	.loc 1 237 0 is_stmt 1
	ldr	x0, [x19,88]
	lsr	x0, x0, 61
	cmp	x0, 1
	beq	.L225
.L199:
	.loc 1 243 0
	cbnz	x0, .L195
	.loc 1 244 0
	ldr	x1, [x19,64]
	ldr	x0, [x1,12952]
	cbz	x0, .L203
	.loc 1 244 0 is_stmt 0 discriminator 1
	ldr	w2, [x19,104]
	cmp	w2, 131072
	bhi	.L204
	.loc 1 245 0 is_stmt 1 discriminator 7
	bl	__udelay
.LVL162:
	ldr	x1, [x19,64]
.L203:
	.loc 1 246 0
	ldr	x0, [x1,12936]
	cbz	x0, .L195
	.loc 1 246 0 is_stmt 0 discriminator 1
	ldr	w1, [x19,104]
	cmp	w1, 131072
	bls	.L195
	.loc 1 247 0 is_stmt 1 discriminator 7
	bl	__udelay
.LVL163:
	b	.L195
.L225:
	.loc 1 238 0
	ldr	x0, [x1,12960]
	.loc 1 238 0 is_stmt 0 discriminator 1
	cbz	x0, .L200
	cmp	w2, 131072
	bhi	.L200
	.loc 1 239 0 is_stmt 1 discriminator 7
	bl	__udelay
.LVL164:
	.loc 1 240 0
	ldr	x0, [x19,64]
	ldr	x0, [x0,12944]
	cbz	x0, .L222
	ldr	w2, [x19,104]
.L205:
	.loc 1 240 0 is_stmt 0 discriminator 1
	cmp	w2, 131072
	bls	.L222
	.loc 1 241 0 is_stmt 1 discriminator 7
	bl	__udelay
.LVL165:
.L222:
	ldr	x0, [x19,88]
	lsr	x0, x0, 61
	b	.L199
.L204:
	.loc 1 246 0
	ldr	x0, [x1,12936]
	cbz	x0, .L195
	.loc 1 247 0 discriminator 7
	bl	__udelay
.LVL166:
	b	.L195
.L200:
	.loc 1 240 0
	ldr	x0, [x1,12944]
	cbnz	x0, .L205
	b	.L195
.LBE213:
.LBE212:
	.cfi_endproc
.LFE3000:
	.size	hisi_blk_mq_request_start, .-hisi_blk_mq_request_start
	.align	2
	.global	hisi_blk_request_start
	.type	hisi_blk_request_start, %function
hisi_blk_request_start:
.LFB3001:
	.loc 1 488 0
	.cfi_startproc
.LVL167:
	stp	x29, x30, [sp, -16]!
	.cfi_def_cfa_offset 16
	.cfi_offset 29, -16
	.cfi_offset 30, -8
	.loc 1 489 0
	mov	w1, 1
	.loc 1 488 0
	add	x29, sp, 0
	.cfi_def_cfa_register 29
	.loc 1 489 0
	bl	hisi_blk_latency_req_check
.LVL168:
	.loc 1 490 0
	ldp	x29, x30, [sp], 16
	.cfi_restore 30
	.cfi_restore 29
	.cfi_def_cfa 31, 0
	ret
	.cfi_endproc
.LFE3001:
	.size	hisi_blk_request_start, .-hisi_blk_request_start
	.align	2
	.global	hisi_blk_requeue_request
	.type	hisi_blk_requeue_request, %function
hisi_blk_requeue_request:
.LFB3002:
	.loc 1 496 0
	.cfi_startproc
.LVL169:
	stp	x29, x30, [sp, -16]!
	.cfi_def_cfa_offset 16
	.cfi_offset 29, -16
	.cfi_offset 30, -8
	.loc 1 497 0
	mov	x0, x1
.LVL170:
	mov	w1, 7
.LVL171:
	.loc 1 496 0
	add	x29, sp, 0
	.cfi_def_cfa_register 29
	.loc 1 497 0
	bl	hisi_blk_latency_req_check
.LVL172:
	.loc 1 498 0
	ldp	x29, x30, [sp], 16
	.cfi_restore 30
	.cfi_restore 29
	.cfi_def_cfa 31, 0
	ret
	.cfi_endproc
.LFE3002:
	.size	hisi_blk_requeue_request, .-hisi_blk_requeue_request
	.align	2
	.global	hisi_blk_request_update
	.type	hisi_blk_request_update, %function
hisi_blk_request_update:
.LFB3003:
	.loc 1 504 0
	.cfi_startproc
.LVL173:
	stp	x29, x30, [sp, -32]!
	.cfi_def_cfa_offset 32
	.cfi_offset 29, -32
	.cfi_offset 30, -24
	add	x29, sp, 0
	.cfi_def_cfa_register 29
	str	x19, [sp,16]
	.cfi_offset 19, -16
	.loc 1 504 0
	mov	x19, x0
	.loc 1 505 0
	ldr	x4, [x0,64]
.LBB214:
.LBB215:
	.loc 1 23 0
	ldr	x0, [x4,280]
.LVL174:
	cbz	x0, .L229
	.loc 1 24 0
	ldr	x3, [x4,14920]
	cbz	x3, .L232
	.loc 1 24 0 is_stmt 0 discriminator 1
	add	x3, x3, 16
.L231:
.LBE215:
.LBE214:
	.loc 1 507 0 is_stmt 1
	ldr	x0, [x19,88]
	lsr	x0, x0, 61
	cmp	x0, 2
	beq	.L236
	.loc 1 510 0
	cmp	x0, 1
	beq	.L237
.L234:
	.loc 1 513 0
	cmp	x0, 5
	beq	.L238
.L235:
	.loc 1 516 0
	mov	x0, x19
	mov	w1, 9
.LVL175:
	bl	hisi_blk_latency_req_check
.LVL176:
	.loc 1 517 0
	ldr	x19, [sp,16]
	.cfi_remember_state
	.cfi_restore 19
.LVL177:
	ldp	x29, x30, [sp], 32
	.cfi_restore 30
	.cfi_restore 29
	.cfi_def_cfa 31, 0
	ret
.LVL178:
.L236:
	.cfi_restore_state
	.loc 1 508 0
	ldr	x0, [x3,1312]
	add	x0, x0, x2, uxtw
	str	x0, [x3,1312]
	ldr	x0, [x19,88]
	lsr	x0, x0, 61
	.loc 1 510 0
	cmp	x0, 1
	bne	.L234
.L237:
	.loc 1 511 0
	ldr	x0, [x3,1304]
	add	x2, x0, x2, uxtw
.LVL179:
	str	x2, [x3,1304]
	ldr	x0, [x19,88]
	lsr	x0, x0, 61
	.loc 1 513 0
	cmp	x0, 5
	bne	.L235
.LVL180:
.L238:
	.loc 1 514 0
	mov	x0, x19
	bl	hisi_blk_flush_update
.LVL181:
	.loc 1 516 0
	mov	x0, x19
	mov	w1, 9
	bl	hisi_blk_latency_req_check
.LVL182:
	.loc 1 517 0
	ldr	x19, [sp,16]
	.cfi_remember_state
	.cfi_restore 19
.LVL183:
	ldp	x29, x30, [sp], 32
	.cfi_restore 29
	.cfi_restore 30
	.cfi_def_cfa 31, 0
	ret
.LVL184:
.L232:
	.cfi_restore_state
.LBB217:
.LBB216:
	.loc 1 26 0 discriminator 2
	add	x4, x4, 12288
	add	x3, x4, 744
	b	.L231
.L229:
	.loc 1 26 0 is_stmt 0
	ldr	x3, [x4,688]
	cbz	x3, .L232
	.loc 1 26 0 discriminator 1
	add	x3, x3, 136
	b	.L231
.LBE216:
.LBE217:
	.cfi_endproc
.LFE3003:
	.size	hisi_blk_request_update, .-hisi_blk_request_update
	.align	2
	.global	hisi_blk_req_bio_endio
	.type	hisi_blk_req_bio_endio, %function
hisi_blk_req_bio_endio:
.LFB3004:
	.loc 1 523 0 is_stmt 1
	.cfi_startproc
.LVL185:
	stp	x29, x30, [sp, -16]!
	.cfi_def_cfa_offset 16
	.cfi_offset 29, -16
	.cfi_offset 30, -8
	add	x29, sp, 0
	.cfi_def_cfa_register 29
	.loc 1 524 0
	bl	hisi_blk_latency_writeback_bio
.LVL186:
	.loc 1 525 0
	ldp	x29, x30, [sp], 16
	.cfi_restore 30
	.cfi_restore 29
	.cfi_def_cfa 31, 0
	ret
	.cfi_endproc
.LFE3004:
	.size	hisi_blk_req_bio_endio, .-hisi_blk_req_bio_endio
	.align	2
	.global	hisi_blk_mq_request_free
	.type	hisi_blk_mq_request_free, %function
hisi_blk_mq_request_free:
.LFB3005:
	.loc 1 531 0
	.cfi_startproc
.LVL187:
	stp	x29, x30, [sp, -16]!
	.cfi_def_cfa_offset 16
	.cfi_offset 29, -16
	.cfi_offset 30, -8
	.loc 1 532 0
	mov	x0, x1
.LVL188:
	mov	w1, 10
.LVL189:
	.loc 1 531 0
	add	x29, sp, 0
	.cfi_def_cfa_register 29
	.loc 1 532 0
	bl	hisi_blk_latency_req_check
.LVL190:
	.loc 1 533 0
	ldp	x29, x30, [sp], 16
	.cfi_restore 30
	.cfi_restore 29
	.cfi_def_cfa 31, 0
	ret
	.cfi_endproc
.LFE3005:
	.size	hisi_blk_mq_request_free, .-hisi_blk_mq_request_free
	.align	2
	.global	hisi_blk_request_put
	.type	hisi_blk_request_put, %function
hisi_blk_request_put:
.LFB3006:
	.loc 1 539 0
	.cfi_startproc
.LVL191:
	stp	x29, x30, [sp, -16]!
	.cfi_def_cfa_offset 16
	.cfi_offset 29, -16
	.cfi_offset 30, -8
	.loc 1 540 0
	mov	x0, x1
.LVL192:
	mov	w1, 10
.LVL193:
	.loc 1 539 0
	add	x29, sp, 0
	.cfi_def_cfa_register 29
	.loc 1 540 0
	bl	hisi_blk_latency_req_check
.LVL194:
	.loc 1 541 0
	ldp	x29, x30, [sp], 16
	.cfi_restore 30
	.cfi_restore 29
	.cfi_def_cfa 31, 0
	ret
	.cfi_endproc
.LFE3006:
	.size	hisi_blk_request_put, .-hisi_blk_request_put
	.align	2
	.global	hisi_blk_check_partition_done
	.type	hisi_blk_check_partition_done, %function
hisi_blk_check_partition_done:
.LFB3008:
	.loc 1 557 0
	.cfi_startproc
.LVL195:
	.loc 1 558 0
	ldr	x0, [x0,1048]
.LVL196:
	strb	w1, [x0,1024]
	.loc 1 559 0
	ret
	.cfi_endproc
.LFE3008:
	.size	hisi_blk_check_partition_done, .-hisi_blk_check_partition_done
	.align	2
	.global	hisi_blk_allocated_queue_init
	.type	hisi_blk_allocated_queue_init, %function
hisi_blk_allocated_queue_init:
.LFB3009:
	.loc 1 565 0
	.cfi_startproc
.LVL197:
	stp	x29, x30, [sp, -32]!
	.cfi_def_cfa_offset 32
	.cfi_offset 29, -32
	.cfi_offset 30, -24
	mov	x1, x0
	.loc 1 566 0
	add	x0, x0, 12288
.LVL198:
	add	x2, x0, 632
	.loc 1 565 0
	add	x29, sp, 0
	.cfi_def_cfa_register 29
	str	x19, [sp,16]
	.cfi_offset 19, -16
.LBB218:
.LBB219:
	.loc 1 545 0
	add	x19, x0, 744
.LBE219:
.LBE218:
.LBB223:
.LBB224:
.LBB225:
.LBB226:
.LBB227:
	.loc 3 276 0
	str	x2, [x1,12920]
.LBE227:
.LBE226:
.LBE225:
.LBE224:
.LBE223:
.LBB229:
.LBB220:
	.loc 1 548 0
	add	x0, x0, 808
.LBE220:
.LBE229:
.LBB230:
.LBB228:
	.loc 4 28 0
	str	x2, [x2,8]
.LBE228:
.LBE230:
.LBB231:
.LBB221:
	.loc 1 545 0
	mov	w2, 122
.LBE221:
.LBE231:
	.loc 1 567 0
	strb	wzr, [x1,1024]
.LBB232:
.LBB222:
	.loc 1 545 0
	str	w2, [x1,13032]
	.loc 1 546 0
	str	wzr, [x19,4]
	.loc 1 547 0
	str	x1, [x19,8]
	.loc 1 548 0
	bl	hisi_blk_busy_idle_state_init
.LVL199:
	.loc 1 549 0
	ldr	x0, [x19,24]
	tbz	x0, 7, .L243
	.loc 1 550 0
	mov	w0, 1
	strb	w0, [x19,64]
.L243:
.LBE222:
.LBE232:
	.loc 1 569 0
	ldr	x19, [sp,16]
	.cfi_restore 19
	ldp	x29, x30, [sp], 32
	.cfi_restore 30
	.cfi_restore 29
	.cfi_def_cfa 31, 0
	ret
	.cfi_endproc
.LFE3009:
	.size	hisi_blk_allocated_queue_init, .-hisi_blk_allocated_queue_init
	.align	2
	.global	hisi_blk_sq_init_allocated_queue
	.type	hisi_blk_sq_init_allocated_queue, %function
hisi_blk_sq_init_allocated_queue:
.LFB3011:
	.loc 1 583 0
	.cfi_startproc
.LVL200:
	stp	x29, x30, [sp, -32]!
	.cfi_def_cfa_offset 32
	.cfi_offset 29, -32
	.cfi_offset 30, -24
	add	x29, sp, 0
	.cfi_def_cfa_register 29
	str	x19, [sp,16]
	.cfi_offset 19, -16
	.loc 1 583 0
	mov	x19, x0
.LBB237:
.LBB238:
	.loc 1 573 0
	bl	hisi_blk_dump_register_queue
.LVL201:
	.loc 1 574 0
	mov	x0, x19
	bl	hisi_blk_queue_latency_init
.LVL202:
	.loc 1 575 0
	mov	x0, x19
	bl	hisi_blk_queue_async_flush_init
.LVL203:
.LBB239:
.LBB240:
	.loc 1 280 0
	str	xzr, [x19,12936]
	.loc 1 284 0
	add	x0, x19, 12288
	.loc 1 281 0
	str	xzr, [x19,12944]
	.loc 1 284 0
	add	x0, x0, 680
	mov	w1, 0
	.loc 1 282 0
	str	xzr, [x19,12952]
	.loc 1 284 0
	mov	x2, 0
	.loc 1 283 0
	str	xzr, [x19,12960]
	.loc 1 284 0
	mov	x3, 0
	bl	init_timer_key
.LVL204:
	.loc 1 286 0
	str	x19, [x19,13000]
	.loc 1 285 0
	adrp	x0, hisi_blk_queue_usr_ctrl_recovery_timer_expire
	add	x0, x0, :lo12:hisi_blk_queue_usr_ctrl_recovery_timer_expire
	str	x0, [x19,12992]
.LBE240:
.LBE239:
.LBE238:
.LBE237:
	.loc 1 585 0
	ldr	x19, [sp,16]
	.cfi_restore 19
.LVL205:
	ldp	x29, x30, [sp], 32
	.cfi_restore 30
	.cfi_restore 29
	.cfi_def_cfa 31, 0
	ret
	.cfi_endproc
.LFE3011:
	.size	hisi_blk_sq_init_allocated_queue, .-hisi_blk_sq_init_allocated_queue
	.align	2
	.global	hisi_blk_mq_init_allocated_queue
	.type	hisi_blk_mq_init_allocated_queue, %function
hisi_blk_mq_init_allocated_queue:
.LFB3012:
	.loc 1 591 0
	.cfi_startproc
.LVL206:
	stp	x29, x30, [sp, -32]!
	.cfi_def_cfa_offset 32
	.cfi_offset 29, -32
	.cfi_offset 30, -24
	add	x29, sp, 0
	.cfi_def_cfa_register 29
	str	x19, [sp,16]
	.cfi_offset 19, -16
	.loc 1 591 0
	mov	x19, x0
.LBB255:
.LBB256:
	.loc 1 573 0
	bl	hisi_blk_dump_register_queue
.LVL207:
	.loc 1 574 0
	mov	x0, x19
	bl	hisi_blk_queue_latency_init
.LVL208:
	.loc 1 575 0
	mov	x0, x19
	bl	hisi_blk_queue_async_flush_init
.LVL209:
.LBB257:
.LBB258:
	.loc 1 280 0
	str	xzr, [x19,12936]
	.loc 1 284 0
	add	x0, x19, 12288
	mov	w1, 0
	add	x0, x0, 680
	.loc 1 281 0
	str	xzr, [x19,12944]
	.loc 1 282 0
	str	xzr, [x19,12952]
	.loc 1 284 0
	mov	x2, 0
	.loc 1 283 0
	str	xzr, [x19,12960]
	.loc 1 284 0
	mov	x3, 0
	bl	init_timer_key
.LVL210:
.LBE258:
.LBE257:
.LBE256:
.LBE255:
.LBB265:
.LBB266:
.LBB267:
	.loc 3 275 0
	str	wzr, [x19,1164]
.LBE267:
.LBE266:
.LBE265:
.LBB268:
.LBB269:
.LBB270:
	str	wzr, [x19,1168]
.LBE270:
.LBE269:
.LBE268:
.LBB271:
.LBB263:
.LBB261:
.LBB259:
	.loc 1 285 0
	adrp	x0, hisi_blk_queue_usr_ctrl_recovery_timer_expire
.LBE259:
.LBE261:
.LBE263:
.LBE271:
	.loc 1 597 0
	ldr	x1, [x19,14920]
.LBB272:
.LBB264:
.LBB262:
.LBB260:
	.loc 1 285 0
	add	x0, x0, :lo12:hisi_blk_queue_usr_ctrl_recovery_timer_expire
	.loc 1 286 0
	str	x19, [x19,13000]
	.loc 1 285 0
	str	x0, [x19,12992]
.LBE260:
.LBE262:
.LBE264:
.LBE272:
.LBB273:
.LBB274:
.LBB275:
	.loc 3 275 0
	str	wzr, [x19,1172]
.LBE275:
.LBE274:
.LBE273:
	.loc 1 598 0
	cbz	x1, .L250
	.loc 1 597 0
	ldr	x0, [x1,1336]
	cbz	x0, .L250
	.loc 1 598 0
	ldr	x0, [x0,24]
	.loc 1 597 0
	str	x0, [x19,13024]
	.loc 1 600 0
	cbz	x0, .L249
	.loc 1 600 0 is_stmt 0 discriminator 1
	ldr	x1, [x0,8]
	cbz	x1, .L249
.LBB276:
	.loc 1 601 0 is_stmt 1
	mov	x0, x19
	blr	x1
.LVL211:
	mov	w2, w0
.LVL212:
	.loc 1 602 0
	cbnz	w0, .L266
.L249:
.LBE276:
	.loc 1 609 0
	ldr	x19, [sp,16]
	.cfi_remember_state
	.cfi_restore 19
.LVL213:
	ldp	x29, x30, [sp], 32
	.cfi_restore 30
	.cfi_restore 29
	.cfi_def_cfa 31, 0
	ret
.LVL214:
.L250:
	.cfi_restore_state
	.loc 1 597 0
	str	xzr, [x19,13024]
	.loc 1 609 0
	ldr	x19, [sp,16]
	.cfi_remember_state
	.cfi_restore 19
.LVL215:
	ldp	x29, x30, [sp], 32
	.cfi_restore 29
	.cfi_restore 30
	.cfi_def_cfa 31, 0
	ret
.LVL216:
.L266:
	.cfi_restore_state
.LBB277:
	.loc 1 603 0
	adrp	x1, .LANCHOR0
	adrp	x0, .LC4
.LVL217:
	add	x1, x1, :lo12:.LANCHOR0
	add	x0, x0, :lo12:.LC4
	add	x1, x1, 224
	bl	printk
.LVL218:
	b	.L249
.LBE277:
	.cfi_endproc
.LFE3012:
	.size	hisi_blk_mq_init_allocated_queue, .-hisi_blk_mq_init_allocated_queue
	.align	2
	.global	hisi_blk_mq_free_queue
	.type	hisi_blk_mq_free_queue, %function
hisi_blk_mq_free_queue:
.LFB3013:
	.loc 1 615 0
	.cfi_startproc
.LVL219:
	stp	x29, x30, [sp, -16]!
	.cfi_def_cfa_offset 16
	.cfi_offset 29, -16
	.cfi_offset 30, -8
	add	x29, sp, 0
	.cfi_def_cfa_register 29
	.loc 1 616 0
	ldr	x1, [x0,13024]
	cbz	x1, .L267
	.loc 1 616 0 is_stmt 0 discriminator 1
	ldr	x1, [x1,16]
	cbz	x1, .L267
.LBB278:
	.loc 1 617 0 is_stmt 1
	blr	x1
.LVL220:
	mov	w2, w0
.LVL221:
	.loc 1 618 0
	cbnz	w0, .L277
.LVL222:
.L267:
.LBE278:
	.loc 1 625 0
	ldp	x29, x30, [sp], 16
	.cfi_remember_state
	.cfi_restore 30
	.cfi_restore 29
	.cfi_def_cfa 31, 0
	ret
.LVL223:
.L277:
	.cfi_restore_state
.LBB279:
	.loc 1 619 0
	adrp	x1, .LANCHOR0
	adrp	x0, .LC5
	add	x1, x1, :lo12:.LANCHOR0
	add	x0, x0, :lo12:.LC5
	add	x1, x1, 264
	bl	printk
.LVL224:
	b	.L267
.LBE279:
	.cfi_endproc
.LFE3013:
	.size	hisi_blk_mq_free_queue, .-hisi_blk_mq_free_queue
	.align	2
	.global	hisi_blk_cleanup_queue
	.type	hisi_blk_cleanup_queue, %function
hisi_blk_cleanup_queue:
.LFB3014:
	.loc 1 631 0
	.cfi_startproc
.LVL225:
	stp	x29, x30, [sp, -32]!
	.cfi_def_cfa_offset 32
	.cfi_offset 29, -32
	.cfi_offset 30, -24
	add	x29, sp, 0
	.cfi_def_cfa_register 29
	str	x19, [sp,16]
	.cfi_offset 19, -16
	.loc 1 631 0
	mov	x19, x0
	.loc 1 632 0
	bl	hisi_blk_dump_unregister_queue
.LVL226:
.LBB280:
.LBB281:
	.loc 1 275 0
	add	x0, x19, 12288
	add	x0, x0, 680
	bl	del_timer_sync
.LVL227:
.LBE281:
.LBE280:
	.loc 1 634 0
	mov	x0, x19
	bl	hisi_blk_flush_reduced_queue_unregister
.LVL228:
	.loc 1 635 0
	ldr	x19, [sp,16]
	.cfi_restore 19
.LVL229:
	ldp	x29, x30, [sp], 32
	.cfi_restore 30
	.cfi_restore 29
	.cfi_def_cfa 31, 0
	ret
	.cfi_endproc
.LFE3014:
	.size	hisi_blk_cleanup_queue, .-hisi_blk_cleanup_queue
	.align	2
	.global	hisi_blk_allocated_tags_init
	.type	hisi_blk_allocated_tags_init, %function
hisi_blk_allocated_tags_init:
.LFB3015:
	.loc 1 641 0
	.cfi_startproc
.LVL230:
	stp	x29, x30, [sp, -48]!
	.cfi_def_cfa_offset 48
	.cfi_offset 29, -48
	.cfi_offset 30, -40
.LBB282:
	.loc 1 642 0
	adrp	x1, .LC6
	adrp	x2, .LANCHOR1
.LBE282:
	.loc 1 641 0
	add	x29, sp, 0
	.cfi_def_cfa_register 29
	stp	x19, x20, [sp,16]
.LBB283:
	.loc 1 642 0
	add	x1, x1, :lo12:.LC6
	.cfi_offset 19, -32
	.cfi_offset 20, -24
.LBE283:
	.loc 1 641 0
	mov	x19, x0
.LBB284:
	.loc 1 642 0
	add	x2, x2, :lo12:.LANCHOR1
	add	x0, x0, 48
.LVL231:
.LBE284:
	.loc 1 641 0
	str	x21, [sp,32]
	.cfi_offset 21, -16
	.loc 1 644 0
	add	x20, x19, 136
.LBB285:
	.loc 1 642 0
	bl	__mutex_init
.LVL232:
.LBE285:
.LBB286:
.LBB287:
	.loc 1 546 0
	mov	w21, 1
.LBE287:
.LBE286:
	.loc 1 643 0
	add	x3, x19, 120
.LBB289:
.LBB290:
.LBB291:
.LBB292:
.LBB293:
	.loc 3 276 0
	str	x3, [x19,120]
.LBE293:
.LBE292:
.LBE291:
.LBE290:
.LBE289:
	.loc 1 644 0
	mov	w1, 0
	mov	x2, 1320
	mov	x0, x20
.LBB295:
.LBB294:
	.loc 4 28 0
	str	x3, [x3,8]
.LBE294:
.LBE295:
	.loc 1 644 0
	bl	memset
.LVL233:
.LBB296:
.LBB288:
	.loc 1 546 0
	str	w21, [x19,140]
	.loc 1 545 0
	mov	w0, 122
	.loc 1 547 0
	str	x19, [x19,144]
	.loc 1 545 0
	str	w0, [x19,136]
	.loc 1 548 0
	add	x0, x19, 200
	bl	hisi_blk_busy_idle_state_init
.LVL234:
	.loc 1 549 0
	ldr	x0, [x19,160]
	tbz	x0, 7, .L279
	.loc 1 550 0
	strb	w21, [x19,200]
.L279:
.LBE288:
.LBE296:
	.loc 1 646 0
	ldp	x19, x20, [sp,16]
	.cfi_restore 20
	.cfi_restore 19
.LVL235:
	ldr	x21, [sp,32]
	.cfi_restore 21
	ldp	x29, x30, [sp], 48
	.cfi_restore 30
	.cfi_restore 29
	.cfi_def_cfa 31, 0
	ret
	.cfi_endproc
.LFE3015:
	.size	hisi_blk_allocated_tags_init, .-hisi_blk_allocated_tags_init
	.align	2
	.global	blk_add_queue_tags
	.type	blk_add_queue_tags, %function
blk_add_queue_tags:
.LFB3016:
	.loc 1 652 0
	.cfi_startproc
.LVL236:
	stp	x29, x30, [sp, -48]!
	.cfi_def_cfa_offset 48
	.cfi_offset 29, -48
	.cfi_offset 30, -40
	add	x29, sp, 0
	.cfi_def_cfa_register 29
	stp	x19, x20, [sp,16]
	.cfi_offset 19, -32
	.cfi_offset 20, -24
	.loc 1 653 0
	add	x20, x0, 48
	.loc 1 652 0
	mov	x19, x0
	.loc 1 653 0
	mov	x0, x20
.LVL237:
	.loc 1 652 0
	str	x1, [x29,40]
	.loc 1 653 0
	bl	mutex_lock
.LVL238:
	.loc 1 654 0
	ldr	x1, [x29,40]
.LVL239:
.LBB297:
.LBB298:
	.loc 4 92 0
	add	x2, x19, 120
	ldr	x4, [x19,128]
.LBE298:
.LBE297:
	.loc 1 655 0
	mov	x0, x20
	.loc 1 654 0
	add	x3, x1, 12288
	add	x3, x3, 2640
.LBB305:
.LBB304:
.LBB299:
.LBB300:
	.loc 4 62 0
	str	x3, [x19,128]
	.loc 4 63 0
	str	x2, [x1,14928]
	.loc 4 64 0
	str	x4, [x3,8]
.LBB301:
.LBB302:
.LBB303:
	.loc 3 276 0
	str	x3, [x4]
.LBE303:
.LBE302:
.LBE301:
.LBE300:
.LBE299:
.LBE304:
.LBE305:
	.loc 1 655 0
	bl	mutex_unlock
.LVL240:
	.loc 1 656 0
	ldp	x19, x20, [sp,16]
	.cfi_restore 20
	.cfi_restore 19
.LVL241:
	ldp	x29, x30, [sp], 48
	.cfi_restore 30
	.cfi_restore 29
	.cfi_def_cfa 31, 0
	ret
	.cfi_endproc
.LFE3016:
	.size	blk_add_queue_tags, .-blk_add_queue_tags
	.align	2
	.global	hisi_blk_mq_allocated_tagset_init
	.type	hisi_blk_mq_allocated_tagset_init, %function
hisi_blk_mq_allocated_tagset_init:
.LFB3017:
	.loc 1 662 0
	.cfi_startproc
.LVL242:
	stp	x29, x30, [sp, -32]!
	.cfi_def_cfa_offset 32
	.cfi_offset 29, -32
	.cfi_offset 30, -24
.LBB306:
.LBB307:
	.loc 1 545 0
	mov	w1, 122
.LBE307:
.LBE306:
	.loc 1 662 0
	add	x29, sp, 0
	.cfi_def_cfa_register 29
	stp	x19, x20, [sp,16]
	.cfi_offset 19, -16
	.cfi_offset 20, -8
	.loc 1 662 0
	mov	x19, x0
.LBB309:
.LBB308:
	.loc 1 548 0
	add	x0, x0, 80
.LVL243:
	.loc 1 545 0
	str	w1, [x19,16]
	.loc 1 546 0
	mov	w1, 2
	.loc 1 547 0
	str	x19, [x19,24]
	.loc 1 546 0
	str	w1, [x19,20]
	.loc 1 548 0
	bl	hisi_blk_busy_idle_state_init
.LVL244:
	.loc 1 549 0
	ldr	x0, [x19,40]
	tbz	x0, 7, .L286
	.loc 1 550 0
	mov	w1, 1
	strb	w1, [x19,80]
.L286:
.LBE308:
.LBE309:
	.loc 1 668 0
	tbnz	x0, 6, .L288
	.loc 1 671 0
	mov	x0, 0
	str	x0, [x19,1336]
	.loc 1 672 0
	ldp	x19, x20, [sp,16]
	.cfi_remember_state
	.cfi_restore 20
	.cfi_restore 19
.LVL245:
	ldp	x29, x30, [sp], 32
	.cfi_restore 30
	.cfi_restore 29
	.cfi_def_cfa 31, 0
	ret
.LVL246:
.L288:
	.cfi_restore_state
	.loc 1 669 0
	adrp	x0, hisi_ufs_blk_tagset_ops
	add	x0, x0, :lo12:hisi_ufs_blk_tagset_ops
	str	x0, [x19,1336]
	.loc 1 672 0
	ldp	x19, x20, [sp,16]
	.cfi_restore 19
	.cfi_restore 20
.LVL247:
	ldp	x29, x30, [sp], 32
	.cfi_restore 29
	.cfi_restore 30
	.cfi_def_cfa 31, 0
	ret
	.cfi_endproc
.LFE3017:
	.size	hisi_blk_mq_allocated_tagset_init, .-hisi_blk_mq_allocated_tagset_init
	.align	2
	.global	hisi_blk_queue_register
	.type	hisi_blk_queue_register, %function
hisi_blk_queue_register:
.LFB3018:
	.loc 1 678 0
	.cfi_startproc
.LVL248:
	.loc 1 679 0
	str	x1, [x0,1016]
	.loc 1 680 0
	ret
	.cfi_endproc
.LFE3018:
	.size	hisi_blk_queue_register, .-hisi_blk_queue_register
	.section	.init.text,"ax",%progbits
	.align	2
	.global	hisi_blk_dev_init
	.type	hisi_blk_dev_init, %function
hisi_blk_dev_init:
.LFB3019:
	.loc 1 686 0
	.cfi_startproc
	stp	x29, x30, [sp, -16]!
	.cfi_def_cfa_offset 16
	.cfi_offset 29, -16
	.cfi_offset 30, -8
	add	x29, sp, 0
	.cfi_def_cfa_register 29
	.loc 1 687 0
	bl	hisi_blk_dump_init
.LVL249:
	.loc 1 688 0
	bl	hisi_blk_latency_init
.LVL250:
	.loc 1 690 0
	mov	w0, 0
	ldp	x29, x30, [sp], 16
	.cfi_restore 30
	.cfi_restore 29
	.cfi_def_cfa 31, 0
	ret
	.cfi_endproc
.LFE3019:
	.size	hisi_blk_dev_init, .-hisi_blk_dev_init
	.text
	.align	2
	.global	hisi_queue_status_show
	.type	hisi_queue_status_show, %function
hisi_queue_status_show:
.LFB3021:
	.loc 1 734 0
	.cfi_startproc
.LVL251:
	stp	x29, x30, [sp, -48]!
	.cfi_def_cfa_offset 48
	.cfi_offset 29, -48
	.cfi_offset 30, -40
	add	x29, sp, 0
	.cfi_def_cfa_register 29
	stp	x19, x20, [sp,16]
	str	x21, [sp,32]
	.cfi_offset 19, -32
	.cfi_offset 20, -24
	.cfi_offset 21, -16
	.loc 1 734 0
	mov	x19, x0
	mov	x21, x1
.LBB310:
.LBB311:
	.loc 1 23 0
	ldr	x0, [x0,280]
.LVL252:
	cbz	x0, .L295
	.loc 1 24 0
	ldr	x0, [x19,14920]
	cbz	x0, .L296
	.loc 1 24 0 is_stmt 0 discriminator 1
	add	x0, x0, 16
.L297:
.LBE311:
.LBE310:
	.loc 1 736 0 is_stmt 1
	mov	x1, x21
	mov	x2, 4096
	mov	w3, 0
	bl	hisi_blk_dump_lld_status
.LVL253:
	mov	x20, x0
	.loc 1 737 0
	mov	x2, 4096
	add	x1, x21, x20
	sub	x2, x2, x20
	mov	x0, x19
	mov	w3, 0
	bl	hisi_blk_dump_queue_status2
.LVL254:
	.loc 1 739 0
	add	x0, x0, x20
	ldr	x21, [sp,32]
	.cfi_remember_state
	.cfi_restore 21
.LVL255:
	ldp	x19, x20, [sp,16]
	.cfi_restore 20
	.cfi_restore 19
.LVL256:
	ldp	x29, x30, [sp], 48
	.cfi_restore 30
	.cfi_restore 29
	.cfi_def_cfa 31, 0
	ret
.LVL257:
.L296:
	.cfi_restore_state
.LBB313:
.LBB312:
	.loc 1 24 0 discriminator 2
	add	x0, x19, 12288
	add	x0, x0, 744
	b	.L297
.L295:
	.loc 1 26 0
	ldr	x0, [x19,688]
	cbz	x0, .L296
	.loc 1 26 0 is_stmt 0 discriminator 1
	add	x0, x0, 136
	b	.L297
.LBE312:
.LBE313:
	.cfi_endproc
.LFE3021:
	.size	hisi_queue_status_show, .-hisi_queue_status_show
	.section	.rodata
	.align	3
.LANCHOR0 = . + 0
	.type	__func__.37383, %object
	.size	__func__.37383, 41
__func__.37383:
	.string	"hisi_blk_lld_inline_crypto_bio_split_pre"
	.zero	7
	.type	__func__.37388, %object
	.size	__func__.37388, 42
__func__.37388:
	.string	"hisi_blk_lld_inline_crypto_bio_split_post"
	.zero	6
	.type	__func__.37372, %object
	.size	__func__.37372, 43
__func__.37372:
	.string	"hisi_blk_lld_inline_crypto_bio_merge_allow"
	.zero	5
	.type	__func__.37367, %object
	.size	__func__.37367, 49
__func__.37367:
	.string	"hisi_blk_lld_inline_crypto_init_request_from_bio"
	.zero	7
	.type	__func__.37491, %object
	.size	__func__.37491, 24
__func__.37491:
	.string	"hisi_blk_mq_rq_ctx_init"
	.type	__func__.37559, %object
	.size	__func__.37559, 33
__func__.37559:
	.string	"hisi_blk_mq_init_allocated_queue"
	.zero	7
	.type	__func__.37564, %object
	.size	__func__.37564, 23
__func__.37564:
	.string	"hisi_blk_mq_free_queue"
	.section	___kcrctab+is_blk_queue_support_crypto,"a",%progbits
	.align	3
	.type	__kcrctab_is_blk_queue_support_crypto, %object
	.size	__kcrctab_is_blk_queue_support_crypto, 8
__kcrctab_is_blk_queue_support_crypto:
	.xword	__crc_is_blk_queue_support_crypto
	.section	___ksymtab+blk_mq_tagset_set_inline_crypto_flag,"a",%progbits
	.align	3
	.type	__ksymtab_blk_mq_tagset_set_inline_crypto_flag, %object
	.size	__ksymtab_blk_mq_tagset_set_inline_crypto_flag, 16
__ksymtab_blk_mq_tagset_set_inline_crypto_flag:
	.xword	blk_mq_tagset_set_inline_crypto_flag
	.xword	__kstrtab_blk_mq_tagset_set_inline_crypto_flag
	.section	___kcrctab+blk_generic_freeze,"a",%progbits
	.align	3
	.type	__kcrctab_blk_generic_freeze, %object
	.size	__kcrctab_blk_generic_freeze, 8
__kcrctab_blk_generic_freeze:
	.xword	__crc_blk_generic_freeze
	.section	__ksymtab_strings,"a",%progbits
	.type	__kstrtab_blk_generic_freeze, %object
	.size	__kstrtab_blk_generic_freeze, 19
__kstrtab_blk_generic_freeze:
	.string	"blk_generic_freeze"
	.type	__kstrtab_is_blk_queue_support_crypto, %object
	.size	__kstrtab_is_blk_queue_support_crypto, 28
__kstrtab_is_blk_queue_support_crypto:
	.string	"is_blk_queue_support_crypto"
	.type	__kstrtab_blk_queue_set_inline_crypto_flag, %object
	.size	__kstrtab_blk_queue_set_inline_crypto_flag, 33
__kstrtab_blk_queue_set_inline_crypto_flag:
	.string	"blk_queue_set_inline_crypto_flag"
	.type	__kstrtab_blk_mq_tagset_set_inline_crypto_flag, %object
	.size	__kstrtab_blk_mq_tagset_set_inline_crypto_flag, 37
__kstrtab_blk_mq_tagset_set_inline_crypto_flag:
	.string	"blk_mq_tagset_set_inline_crypto_flag"
	.section	___ksymtab+is_blk_queue_support_crypto,"a",%progbits
	.align	3
	.type	__ksymtab_is_blk_queue_support_crypto, %object
	.size	__ksymtab_is_blk_queue_support_crypto, 16
__ksymtab_is_blk_queue_support_crypto:
	.xword	is_blk_queue_support_crypto
	.xword	__kstrtab_is_blk_queue_support_crypto
	.section	___kcrctab+blk_mq_tagset_set_inline_crypto_flag,"a",%progbits
	.align	3
	.type	__kcrctab_blk_mq_tagset_set_inline_crypto_flag, %object
	.size	__kcrctab_blk_mq_tagset_set_inline_crypto_flag, 8
__kcrctab_blk_mq_tagset_set_inline_crypto_flag:
	.xword	__crc_blk_mq_tagset_set_inline_crypto_flag
	.section	___ksymtab+blk_generic_freeze,"a",%progbits
	.align	3
	.type	__ksymtab_blk_generic_freeze, %object
	.size	__ksymtab_blk_generic_freeze, 16
__ksymtab_blk_generic_freeze:
	.xword	blk_generic_freeze
	.xword	__kstrtab_blk_generic_freeze
	.section	.rodata.str1.8,"aMS",%progbits,1
	.align	3
.LC0:
	.string	"\0013[BLK-IO][%s]init key len not 64\n"
	.zero	5
.LC1:
	.string	"\0013[BLK-IO][%s]key len not 64\n"
	.zero	2
.LC2:
	.string	"\0013[BLK-IO][%s]init rq key len not 64\n"
	.zero	2
.LC3:
	.string	"\0013[BLK-IO]%s: mq_req_init_fn failed. err = %d \r\n"
	.zero	7
.LC4:
	.string	"\0013[BLK-IO]%s: mq_iosched_init_fn failed. err = %d \r\n"
	.zero	3
.LC5:
	.string	"\0013[BLK-IO]%s: mq_iosched_deinit_fn failed. err = %d \r\n"
	.zero	1
.LC6:
	.string	"&tags->tag_list_lock"
	.bss
	.align	3
.LANCHOR1 = . + 0
	.type	__key.37571, %object
	.size	__key.37571, 0
__key.37571:
	.section	___kcrctab+blk_queue_set_inline_crypto_flag,"a",%progbits
	.align	3
	.type	__kcrctab_blk_queue_set_inline_crypto_flag, %object
	.size	__kcrctab_blk_queue_set_inline_crypto_flag, 8
__kcrctab_blk_queue_set_inline_crypto_flag:
	.xword	__crc_blk_queue_set_inline_crypto_flag
	.section	___ksymtab+blk_queue_set_inline_crypto_flag,"a",%progbits
	.align	3
	.type	__ksymtab_blk_queue_set_inline_crypto_flag, %object
	.size	__ksymtab_blk_queue_set_inline_crypto_flag, 16
__ksymtab_blk_queue_set_inline_crypto_flag:
	.xword	blk_queue_set_inline_crypto_flag
	.xword	__kstrtab_blk_queue_set_inline_crypto_flag
	.weak	__crc_blk_queue_set_inline_crypto_flag
	.weak	__crc_blk_mq_tagset_set_inline_crypto_flag
	.weak	__crc_blk_generic_freeze
	.weak	__crc_is_blk_queue_support_crypto
	.text
.Letext0:
	.file 5 "/mnt/disk/jenkins/ci/workspace/chipset_pipeline_release/opensource/component_code/vendor/huawei/extra/build/build_script/kirin_kernel_release/kernel/include/uapi/asm-generic/int-ll64.h"
	.file 6 "/mnt/disk/jenkins/ci/workspace/chipset_pipeline_release/opensource/component_code/vendor/huawei/extra/build/build_script/kirin_kernel_release/kernel/include/asm-generic/int-ll64.h"
	.file 7 "/mnt/disk/jenkins/ci/workspace/chipset_pipeline_release/opensource/component_code/vendor/huawei/extra/build/build_script/kirin_kernel_release/kernel/include/uapi/asm-generic/posix_types.h"
	.file 8 "/mnt/disk/jenkins/ci/workspace/chipset_pipeline_release/opensource/component_code/vendor/huawei/extra/build/build_script/kirin_kernel_release/kernel/include/linux/export.h"
	.file 9 "/mnt/disk/jenkins/ci/workspace/chipset_pipeline_release/opensource/component_code/vendor/huawei/extra/build/build_script/kirin_kernel_release/kernel/include/linux/types.h"
	.file 10 "/mnt/disk/jenkins/ci/workspace/chipset_pipeline_release/opensource/component_code/vendor/huawei/extra/build/build_script/kirin_kernel_release/kernel/include/linux/capability.h"
	.file 11 "/mnt/disk/jenkins/ci/workspace/chipset_pipeline_release/opensource/component_code/vendor/huawei/extra/build/build_script/kirin_kernel_release/kernel/include/asm-generic/bug.h"
	.file 12 "/mnt/disk/jenkins/ci/workspace/chipset_pipeline_release/opensource/component_code/vendor/huawei/extra/build/build_script/kirin_kernel_release/kernel/include/linux/restart_block.h"
	.file 13 "/mnt/disk/jenkins/ci/workspace/chipset_pipeline_release/opensource/component_code/vendor/huawei/extra/build/build_script/kirin_kernel_release/kernel/include/uapi/linux/time.h"
	.file 14 "/mnt/disk/jenkins/ci/workspace/chipset_pipeline_release/opensource/component_code/vendor/huawei/extra/build/build_script/kirin_kernel_release/kernel/arch/arm64/include/asm/compat.h"
	.file 15 "/mnt/disk/jenkins/ci/workspace/chipset_pipeline_release/opensource/component_code/vendor/huawei/extra/build/build_script/kirin_kernel_release/kernel/include/uapi/asm-generic/poll.h"
	.file 16 "/mnt/disk/jenkins/ci/workspace/chipset_pipeline_release/opensource/component_code/vendor/huawei/extra/build/build_script/kirin_kernel_release/kernel/arch/arm64/include/asm/thread_info.h"
	.file 17 "/mnt/disk/jenkins/ci/workspace/chipset_pipeline_release/opensource/component_code/vendor/huawei/extra/build/build_script/kirin_kernel_release/kernel/arch/arm64/include/uapi/asm/ptrace.h"
	.file 18 "/mnt/disk/jenkins/ci/workspace/chipset_pipeline_release/opensource/component_code/vendor/huawei/extra/build/build_script/kirin_kernel_release/kernel/arch/arm64/include/asm/spinlock_types.h"
	.file 19 "/mnt/disk/jenkins/ci/workspace/chipset_pipeline_release/opensource/component_code/vendor/huawei/extra/build/build_script/kirin_kernel_release/kernel/include/linux/spinlock_types.h"
	.file 20 "/mnt/disk/jenkins/ci/workspace/chipset_pipeline_release/opensource/component_code/vendor/huawei/extra/build/build_script/kirin_kernel_release/kernel/include/linux/rwlock_types.h"
	.file 21 "/mnt/disk/jenkins/ci/workspace/chipset_pipeline_release/opensource/component_code/vendor/huawei/extra/build/build_script/kirin_kernel_release/kernel/arch/arm64/include/asm/fpsimd.h"
	.file 22 "/mnt/disk/jenkins/ci/workspace/chipset_pipeline_release/opensource/component_code/vendor/huawei/extra/build/build_script/kirin_kernel_release/kernel/include/linux/jump_label.h"
	.file 23 "/mnt/disk/jenkins/ci/workspace/chipset_pipeline_release/opensource/component_code/vendor/huawei/extra/build/build_script/kirin_kernel_release/kernel/include/asm-generic/atomic-long.h"
	.file 24 "/mnt/disk/jenkins/ci/workspace/chipset_pipeline_release/opensource/component_code/vendor/huawei/extra/build/build_script/kirin_kernel_release/kernel/arch/arm64/include/asm/processor.h"
	.file 25 "/mnt/disk/jenkins/ci/workspace/chipset_pipeline_release/opensource/component_code/vendor/huawei/extra/build/build_script/kirin_kernel_release/kernel/include/linux/seqlock.h"
	.file 26 "/mnt/disk/jenkins/ci/workspace/chipset_pipeline_release/opensource/component_code/vendor/huawei/extra/build/build_script/kirin_kernel_release/kernel/include/linux/time64.h"
	.file 27 "/mnt/disk/jenkins/ci/workspace/chipset_pipeline_release/opensource/component_code/vendor/huawei/extra/build/build_script/kirin_kernel_release/kernel/include/linux/plist.h"
	.file 28 "/mnt/disk/jenkins/ci/workspace/chipset_pipeline_release/opensource/component_code/vendor/huawei/extra/build/build_script/kirin_kernel_release/kernel/include/linux/cpumask.h"
	.file 29 "/mnt/disk/jenkins/ci/workspace/chipset_pipeline_release/opensource/component_code/vendor/huawei/extra/build/build_script/kirin_kernel_release/kernel/include/linux/wait.h"
	.file 30 "/mnt/disk/jenkins/ci/workspace/chipset_pipeline_release/opensource/component_code/vendor/huawei/extra/build/build_script/kirin_kernel_release/kernel/include/linux/completion.h"
	.file 31 "/mnt/disk/jenkins/ci/workspace/chipset_pipeline_release/opensource/component_code/vendor/huawei/extra/build/build_script/kirin_kernel_release/kernel/include/linux/ktime.h"
	.file 32 "/mnt/disk/jenkins/ci/workspace/chipset_pipeline_release/opensource/component_code/vendor/huawei/extra/build/build_script/kirin_kernel_release/kernel/include/linux/rbtree.h"
	.file 33 "/mnt/disk/jenkins/ci/workspace/chipset_pipeline_release/opensource/component_code/vendor/huawei/extra/build/build_script/kirin_kernel_release/kernel/include/linux/nodemask.h"
	.file 34 "/mnt/disk/jenkins/ci/workspace/chipset_pipeline_release/opensource/component_code/vendor/huawei/extra/build/build_script/kirin_kernel_release/kernel/include/linux/osq_lock.h"
	.file 35 "/mnt/disk/jenkins/ci/workspace/chipset_pipeline_release/opensource/component_code/vendor/huawei/extra/build/build_script/kirin_kernel_release/kernel/include/linux/rwsem.h"
	.file 36 "/mnt/disk/jenkins/ci/workspace/chipset_pipeline_release/opensource/component_code/vendor/huawei/extra/build/build_script/kirin_kernel_release/kernel/include/linux/sched.h"
	.file 37 "/mnt/disk/jenkins/ci/workspace/chipset_pipeline_release/opensource/component_code/vendor/huawei/extra/build/build_script/kirin_kernel_release/kernel/include/linux/mm_types.h"
	.file 38 "/mnt/disk/jenkins/ci/workspace/chipset_pipeline_release/opensource/component_code/vendor/huawei/extra/build/build_script/kirin_kernel_release/kernel/include/linux/lockdep.h"
	.file 39 "/mnt/disk/jenkins/ci/workspace/chipset_pipeline_release/opensource/component_code/vendor/huawei/extra/build/build_script/kirin_kernel_release/kernel/include/linux/uprobes.h"
	.file 40 "/mnt/disk/jenkins/ci/workspace/chipset_pipeline_release/opensource/component_code/vendor/huawei/extra/build/build_script/kirin_kernel_release/kernel/include/linux/timer.h"
	.file 41 "/mnt/disk/jenkins/ci/workspace/chipset_pipeline_release/opensource/component_code/vendor/huawei/extra/build/build_script/kirin_kernel_release/kernel/include/linux/uidgid.h"
	.file 42 "/mnt/disk/jenkins/ci/workspace/chipset_pipeline_release/opensource/component_code/vendor/huawei/extra/build/build_script/kirin_kernel_release/kernel/include/linux/workqueue.h"
	.file 43 "/mnt/disk/jenkins/ci/workspace/chipset_pipeline_release/opensource/component_code/vendor/huawei/extra/build/build_script/kirin_kernel_release/kernel/arch/arm64/include/asm/pgtable-types.h"
	.file 44 "/mnt/disk/jenkins/ci/workspace/chipset_pipeline_release/opensource/component_code/vendor/huawei/extra/build/build_script/kirin_kernel_release/kernel/arch/arm64/include/asm/page.h"
	.file 45 "/mnt/disk/jenkins/ci/workspace/chipset_pipeline_release/opensource/component_code/vendor/huawei/extra/build/build_script/kirin_kernel_release/kernel/include/linux/pfn.h"
	.file 46 "/mnt/disk/jenkins/ci/workspace/chipset_pipeline_release/opensource/component_code/vendor/huawei/extra/build/build_script/kirin_kernel_release/kernel/include/linux/llist.h"
	.file 47 "/mnt/disk/jenkins/ci/workspace/chipset_pipeline_release/opensource/component_code/vendor/huawei/extra/build/build_script/kirin_kernel_release/kernel/include/linux/smp.h"
	.file 48 "/mnt/disk/jenkins/ci/workspace/chipset_pipeline_release/opensource/component_code/vendor/huawei/extra/build/build_script/kirin_kernel_release/kernel/arch/arm64/include/asm/smp.h"
	.file 49 "/mnt/disk/jenkins/ci/workspace/chipset_pipeline_release/opensource/component_code/vendor/huawei/extra/build/build_script/kirin_kernel_release/kernel/arch/arm64/include/asm/mmu.h"
	.file 50 "/mnt/disk/jenkins/ci/workspace/chipset_pipeline_release/opensource/component_code/vendor/huawei/extra/build/build_script/kirin_kernel_release/kernel/include/linux/fs.h"
	.file 51 "/mnt/disk/jenkins/ci/workspace/chipset_pipeline_release/opensource/component_code/vendor/huawei/extra/build/build_script/kirin_kernel_release/kernel/include/linux/mm.h"
	.file 52 "/mnt/disk/jenkins/ci/workspace/chipset_pipeline_release/opensource/component_code/vendor/huawei/extra/build/build_script/kirin_kernel_release/kernel/include/asm-generic/cputime_jiffies.h"
	.file 53 "/mnt/disk/jenkins/ci/workspace/chipset_pipeline_release/opensource/component_code/vendor/huawei/extra/build/build_script/kirin_kernel_release/kernel/include/uapi/asm-generic/signal.h"
	.file 54 "/mnt/disk/jenkins/ci/workspace/chipset_pipeline_release/opensource/component_code/vendor/huawei/extra/build/build_script/kirin_kernel_release/kernel/include/uapi/asm-generic/signal-defs.h"
	.file 55 "/mnt/disk/jenkins/ci/workspace/chipset_pipeline_release/opensource/component_code/vendor/huawei/extra/build/build_script/kirin_kernel_release/kernel/include/uapi/asm-generic/siginfo.h"
	.file 56 "/mnt/disk/jenkins/ci/workspace/chipset_pipeline_release/opensource/component_code/vendor/huawei/extra/build/build_script/kirin_kernel_release/kernel/include/linux/signal.h"
	.file 57 "/mnt/disk/jenkins/ci/workspace/chipset_pipeline_release/opensource/component_code/vendor/huawei/extra/build/build_script/kirin_kernel_release/kernel/include/linux/pid.h"
	.file 58 "/mnt/disk/jenkins/ci/workspace/chipset_pipeline_release/opensource/component_code/vendor/huawei/extra/build/build_script/kirin_kernel_release/kernel/include/linux/mmzone.h"
	.file 59 "/mnt/disk/jenkins/ci/workspace/chipset_pipeline_release/opensource/component_code/vendor/huawei/extra/build/build_script/kirin_kernel_release/kernel/include/linux/mutex.h"
	.file 60 "/mnt/disk/jenkins/ci/workspace/chipset_pipeline_release/opensource/component_code/vendor/huawei/extra/build/build_script/kirin_kernel_release/kernel/include/linux/notifier.h"
	.file 61 "/mnt/disk/jenkins/ci/workspace/chipset_pipeline_release/opensource/component_code/vendor/huawei/extra/build/build_script/kirin_kernel_release/kernel/include/linux/seccomp.h"
	.file 62 "/mnt/disk/jenkins/ci/workspace/chipset_pipeline_release/opensource/component_code/vendor/huawei/extra/build/build_script/kirin_kernel_release/kernel/include/uapi/linux/resource.h"
	.file 63 "/mnt/disk/jenkins/ci/workspace/chipset_pipeline_release/opensource/component_code/vendor/huawei/extra/build/build_script/kirin_kernel_release/kernel/include/linux/timerqueue.h"
	.file 64 "/mnt/disk/jenkins/ci/workspace/chipset_pipeline_release/opensource/component_code/vendor/huawei/extra/build/build_script/kirin_kernel_release/kernel/include/linux/hrtimer.h"
	.file 65 "/mnt/disk/jenkins/ci/workspace/chipset_pipeline_release/opensource/component_code/vendor/huawei/extra/build/build_script/kirin_kernel_release/kernel/include/linux/task_io_accounting.h"
	.file 66 "/mnt/disk/jenkins/ci/workspace/chipset_pipeline_release/opensource/component_code/vendor/huawei/extra/build/build_script/kirin_kernel_release/kernel/include/linux/assoc_array.h"
	.file 67 "/mnt/disk/jenkins/ci/workspace/chipset_pipeline_release/opensource/component_code/vendor/huawei/extra/build/build_script/kirin_kernel_release/kernel/include/linux/key.h"
	.file 68 "/mnt/disk/jenkins/ci/workspace/chipset_pipeline_release/opensource/component_code/vendor/huawei/extra/build/build_script/kirin_kernel_release/kernel/include/linux/cred.h"
	.file 69 "/mnt/disk/jenkins/ci/workspace/chipset_pipeline_release/opensource/component_code/vendor/huawei/extra/build/build_script/kirin_kernel_release/kernel/include/linux/idr.h"
	.file 70 "/mnt/disk/jenkins/ci/workspace/chipset_pipeline_release/opensource/component_code/vendor/huawei/extra/build/build_script/kirin_kernel_release/kernel/include/linux/percpu-refcount.h"
	.file 71 "/mnt/disk/jenkins/ci/workspace/chipset_pipeline_release/opensource/component_code/vendor/huawei/extra/build/build_script/kirin_kernel_release/kernel/include/linux/rcu_sync.h"
	.file 72 "/mnt/disk/jenkins/ci/workspace/chipset_pipeline_release/opensource/component_code/vendor/huawei/extra/build/build_script/kirin_kernel_release/kernel/include/linux/percpu-rwsem.h"
	.file 73 "/mnt/disk/jenkins/ci/workspace/chipset_pipeline_release/opensource/component_code/vendor/huawei/extra/build/build_script/kirin_kernel_release/kernel/include/linux/bpf-cgroup.h"
	.file 74 "/mnt/disk/jenkins/ci/workspace/chipset_pipeline_release/opensource/component_code/vendor/huawei/extra/build/build_script/kirin_kernel_release/kernel/include/linux/cgroup-defs.h"
	.file 75 "/mnt/disk/jenkins/ci/workspace/chipset_pipeline_release/opensource/component_code/vendor/huawei/extra/build/build_script/kirin_kernel_release/kernel/include/linux/kernfs.h"
	.file 76 "/mnt/disk/jenkins/ci/workspace/chipset_pipeline_release/opensource/component_code/vendor/huawei/extra/build/build_script/kirin_kernel_release/kernel/include/linux/seq_file.h"
	.file 77 "/mnt/disk/jenkins/ci/workspace/chipset_pipeline_release/opensource/component_code/vendor/huawei/extra/build/build_script/kirin_kernel_release/kernel/include/linux/bio.h"
	.file 78 "/mnt/disk/jenkins/ci/workspace/chipset_pipeline_release/opensource/component_code/vendor/huawei/extra/build/build_script/kirin_kernel_release/kernel/include/linux/backing-dev-defs.h"
	.file 79 "/mnt/disk/jenkins/ci/workspace/chipset_pipeline_release/opensource/component_code/vendor/huawei/extra/build/build_script/kirin_kernel_release/kernel/include/linux/iocontext.h"
	.file 80 "/mnt/disk/jenkins/ci/workspace/chipset_pipeline_release/opensource/component_code/vendor/huawei/extra/build/build_script/kirin_kernel_release/kernel/include/linux/compat.h"
	.file 81 "/mnt/disk/jenkins/ci/workspace/chipset_pipeline_release/opensource/component_code/vendor/huawei/extra/build/build_script/kirin_kernel_release/kernel/include/linux/stat.h"
	.file 82 "/mnt/disk/jenkins/ci/workspace/chipset_pipeline_release/opensource/component_code/vendor/huawei/extra/build/build_script/kirin_kernel_release/kernel/include/uapi/linux/elf.h"
	.file 83 "/mnt/disk/jenkins/ci/workspace/chipset_pipeline_release/opensource/component_code/vendor/huawei/extra/build/build_script/kirin_kernel_release/kernel/include/linux/kobject_ns.h"
	.file 84 "/mnt/disk/jenkins/ci/workspace/chipset_pipeline_release/opensource/component_code/vendor/huawei/extra/build/build_script/kirin_kernel_release/kernel/include/linux/sysfs.h"
	.file 85 "/mnt/disk/jenkins/ci/workspace/chipset_pipeline_release/opensource/component_code/vendor/huawei/extra/build/build_script/kirin_kernel_release/kernel/include/linux/kobject.h"
	.file 86 "/mnt/disk/jenkins/ci/workspace/chipset_pipeline_release/opensource/component_code/vendor/huawei/extra/build/build_script/kirin_kernel_release/kernel/include/linux/kref.h"
	.file 87 "/mnt/disk/jenkins/ci/workspace/chipset_pipeline_release/opensource/component_code/vendor/huawei/extra/build/build_script/kirin_kernel_release/kernel/include/linux/moduleparam.h"
	.file 88 "/mnt/disk/jenkins/ci/workspace/chipset_pipeline_release/opensource/component_code/vendor/huawei/extra/build/build_script/kirin_kernel_release/kernel/include/linux/module.h"
	.file 89 "/mnt/disk/jenkins/ci/workspace/chipset_pipeline_release/opensource/component_code/vendor/huawei/extra/build/build_script/kirin_kernel_release/kernel/include/linux/rbtree_latch.h"
	.file 90 "/mnt/disk/jenkins/ci/workspace/chipset_pipeline_release/opensource/component_code/vendor/huawei/extra/build/build_script/kirin_kernel_release/kernel/arch/arm64/include/asm/module.h"
	.file 91 "/mnt/disk/jenkins/ci/workspace/chipset_pipeline_release/opensource/component_code/vendor/huawei/extra/build/build_script/kirin_kernel_release/kernel/arch/arm64/include/asm/uaccess.h"
	.file 92 "/mnt/disk/jenkins/ci/workspace/chipset_pipeline_release/opensource/component_code/vendor/huawei/extra/build/build_script/kirin_kernel_release/kernel/include/linux/tracepoint-defs.h"
	.file 93 "/mnt/disk/jenkins/ci/workspace/chipset_pipeline_release/opensource/component_code/vendor/huawei/extra/build/build_script/kirin_kernel_release/kernel/include/linux/tracepoint.h"
	.file 94 "/mnt/disk/jenkins/ci/workspace/chipset_pipeline_release/opensource/component_code/vendor/huawei/extra/build/build_script/kirin_kernel_release/kernel/include/linux/list_bl.h"
	.file 95 "/mnt/disk/jenkins/ci/workspace/chipset_pipeline_release/opensource/component_code/vendor/huawei/extra/build/build_script/kirin_kernel_release/kernel/include/linux/lockref.h"
	.file 96 "/mnt/disk/jenkins/ci/workspace/chipset_pipeline_release/opensource/component_code/vendor/huawei/extra/build/build_script/kirin_kernel_release/kernel/include/linux/dcache.h"
	.file 97 "/mnt/disk/jenkins/ci/workspace/chipset_pipeline_release/opensource/component_code/vendor/huawei/extra/build/build_script/kirin_kernel_release/kernel/include/linux/path.h"
	.file 98 "/mnt/disk/jenkins/ci/workspace/chipset_pipeline_release/opensource/component_code/vendor/huawei/extra/build/build_script/kirin_kernel_release/kernel/include/linux/shrinker.h"
	.file 99 "/mnt/disk/jenkins/ci/workspace/chipset_pipeline_release/opensource/component_code/vendor/huawei/extra/build/build_script/kirin_kernel_release/kernel/include/linux/list_lru.h"
	.file 100 "/mnt/disk/jenkins/ci/workspace/chipset_pipeline_release/opensource/component_code/vendor/huawei/extra/build/build_script/kirin_kernel_release/kernel/include/linux/radix-tree.h"
	.file 101 "/mnt/disk/jenkins/ci/workspace/chipset_pipeline_release/opensource/component_code/vendor/huawei/extra/build/build_script/kirin_kernel_release/kernel/include/uapi/linux/fiemap.h"
	.file 102 "/mnt/disk/jenkins/ci/workspace/chipset_pipeline_release/opensource/component_code/vendor/huawei/extra/build/build_script/kirin_kernel_release/kernel/include/linux/migrate_mode.h"
	.file 103 "/mnt/disk/jenkins/ci/workspace/chipset_pipeline_release/opensource/component_code/vendor/huawei/extra/build/build_script/kirin_kernel_release/kernel/include/linux/bvec.h"
	.file 104 "/mnt/disk/jenkins/ci/workspace/chipset_pipeline_release/opensource/component_code/vendor/huawei/extra/build/build_script/kirin_kernel_release/kernel/include/linux/blk_types.h"
	.file 105 "/mnt/disk/jenkins/ci/workspace/chipset_pipeline_release/opensource/component_code/vendor/huawei/extra/build/build_script/kirin_kernel_release/kernel/include/linux/delayed_call.h"
	.file 106 "/mnt/disk/jenkins/ci/workspace/chipset_pipeline_release/opensource/component_code/vendor/huawei/extra/build/build_script/kirin_kernel_release/kernel/include/linux/percpu_counter.h"
	.file 107 "/mnt/disk/jenkins/ci/workspace/chipset_pipeline_release/opensource/component_code/vendor/huawei/extra/build/build_script/kirin_kernel_release/kernel/include/linux/quota.h"
	.file 108 "/mnt/disk/jenkins/ci/workspace/chipset_pipeline_release/opensource/component_code/vendor/huawei/extra/build/build_script/kirin_kernel_release/kernel/include/linux/projid.h"
	.file 109 "/mnt/disk/jenkins/ci/workspace/chipset_pipeline_release/opensource/component_code/vendor/huawei/extra/build/build_script/kirin_kernel_release/kernel/include/linux/uio.h"
	.file 110 "/mnt/disk/jenkins/ci/workspace/chipset_pipeline_release/opensource/component_code/vendor/huawei/extra/build/build_script/kirin_kernel_release/kernel/include/linux/genhd.h"
	.file 111 "/mnt/disk/jenkins/ci/workspace/chipset_pipeline_release/opensource/component_code/vendor/huawei/extra/build/build_script/kirin_kernel_release/kernel/include/linux/nfs_fs_i.h"
	.file 112 "/mnt/disk/jenkins/ci/workspace/chipset_pipeline_release/opensource/component_code/vendor/huawei/extra/build/build_script/kirin_kernel_release/kernel/include/linux/poll.h"
	.file 113 "/mnt/disk/jenkins/ci/workspace/chipset_pipeline_release/opensource/component_code/vendor/huawei/extra/build/build_script/kirin_kernel_release/kernel/include/linux/vmstat.h"
	.file 114 "/mnt/disk/jenkins/ci/workspace/chipset_pipeline_release/opensource/component_code/vendor/huawei/extra/build/build_script/kirin_kernel_release/kernel/include/linux/mempool.h"
	.file 115 "/mnt/disk/jenkins/ci/workspace/chipset_pipeline_release/opensource/component_code/vendor/huawei/extra/build/build_script/kirin_kernel_release/kernel/include/linux/klist.h"
	.file 116 "/mnt/disk/jenkins/ci/workspace/chipset_pipeline_release/opensource/component_code/vendor/huawei/extra/build/build_script/kirin_kernel_release/kernel/include/linux/pinctrl/devinfo.h"
	.file 117 "/mnt/disk/jenkins/ci/workspace/chipset_pipeline_release/opensource/component_code/vendor/huawei/extra/build/build_script/kirin_kernel_release/kernel/include/linux/pm.h"
	.file 118 "/mnt/disk/jenkins/ci/workspace/chipset_pipeline_release/opensource/component_code/vendor/huawei/extra/build/build_script/kirin_kernel_release/kernel/include/linux/device.h"
	.file 119 "/mnt/disk/jenkins/ci/workspace/chipset_pipeline_release/opensource/component_code/vendor/huawei/extra/build/build_script/kirin_kernel_release/kernel/include/linux/pm_wakeup.h"
	.file 120 "/mnt/disk/jenkins/ci/workspace/chipset_pipeline_release/opensource/component_code/vendor/huawei/extra/build/build_script/kirin_kernel_release/kernel/arch/arm64/include/asm/device.h"
	.file 121 "/mnt/disk/jenkins/ci/workspace/chipset_pipeline_release/opensource/component_code/vendor/huawei/extra/build/build_script/kirin_kernel_release/kernel/include/linux/flex_proportions.h"
	.file 122 "/mnt/disk/jenkins/ci/workspace/chipset_pipeline_release/opensource/component_code/vendor/huawei/extra/build/build_script/kirin_kernel_release/kernel/include/linux/bsg.h"
	.file 123 "/mnt/disk/jenkins/ci/workspace/chipset_pipeline_release/opensource/component_code/vendor/huawei/extra/build/build_script/kirin_kernel_release/kernel/include/linux/wbt.h"
	.file 124 "/mnt/disk/jenkins/ci/workspace/chipset_pipeline_release/opensource/component_code/vendor/huawei/extra/build/build_script/kirin_kernel_release/kernel/block/blk-mq.h"
	.file 125 "/mnt/disk/jenkins/ci/workspace/chipset_pipeline_release/opensource/component_code/vendor/huawei/extra/build/build_script/kirin_kernel_release/kernel/include/linux/elevator.h"
	.file 126 "/mnt/disk/jenkins/ci/workspace/chipset_pipeline_release/opensource/component_code/vendor/huawei/extra/build/build_script/kirin_kernel_release/kernel/include/linux/blk-mq.h"
	.file 127 "/mnt/disk/jenkins/ci/workspace/chipset_pipeline_release/opensource/component_code/vendor/huawei/extra/build/build_script/kirin_kernel_release/kernel/block/hisi-blk.h"
	.file 128 "/mnt/disk/jenkins/ci/workspace/chipset_pipeline_release/opensource/component_code/vendor/huawei/extra/build/build_script/kirin_kernel_release/kernel/block/blk.h"
	.file 129 "/mnt/disk/jenkins/ci/workspace/chipset_pipeline_release/opensource/component_code/vendor/huawei/extra/build/build_script/kirin_kernel_release/kernel/include/linux/sbitmap.h"
	.file 130 "/mnt/disk/jenkins/ci/workspace/chipset_pipeline_release/opensource/component_code/vendor/huawei/extra/build/build_script/kirin_kernel_release/kernel/include/uapi/linux/uio.h"
	.file 131 "/mnt/disk/jenkins/ci/workspace/chipset_pipeline_release/opensource/component_code/vendor/huawei/extra/build/build_script/kirin_kernel_release/kernel/include/linux/jiffies.h"
	.file 132 "/mnt/disk/jenkins/ci/workspace/chipset_pipeline_release/opensource/component_code/vendor/huawei/extra/build/build_script/kirin_kernel_release/kernel/arch/arm64/include/asm/cachetype.h"
	.file 133 "/mnt/disk/jenkins/ci/workspace/chipset_pipeline_release/opensource/component_code/vendor/huawei/extra/build/build_script/kirin_kernel_release/kernel/include/linux/printk.h"
	.file 134 "/mnt/disk/jenkins/ci/workspace/chipset_pipeline_release/opensource/component_code/vendor/huawei/extra/build/build_script/kirin_kernel_release/kernel/include/linux/kernel.h"
	.file 135 "/mnt/disk/jenkins/ci/workspace/chipset_pipeline_release/opensource/component_code/vendor/huawei/extra/build/build_script/kirin_kernel_release/kernel/arch/arm64/include/asm/stack_pointer.h"
	.file 136 "/mnt/disk/jenkins/ci/workspace/chipset_pipeline_release/opensource/component_code/vendor/huawei/extra/build/build_script/kirin_kernel_release/kernel/arch/arm64/include/asm/hwcap.h"
	.file 137 "/mnt/disk/jenkins/ci/workspace/chipset_pipeline_release/opensource/component_code/vendor/huawei/extra/build/build_script/kirin_kernel_release/kernel/arch/arm64/include/asm/cpufeature.h"
	.file 138 "/mnt/disk/jenkins/ci/workspace/chipset_pipeline_release/opensource/component_code/vendor/huawei/extra/build/build_script/kirin_kernel_release/kernel/arch/arm64/include/asm/virt.h"
	.file 139 "/mnt/disk/jenkins/ci/workspace/chipset_pipeline_release/opensource/component_code/vendor/huawei/extra/build/build_script/kirin_kernel_release/kernel/include/linux/highuid.h"
	.file 140 "/mnt/disk/jenkins/ci/workspace/chipset_pipeline_release/opensource/component_code/vendor/huawei/extra/build/build_script/kirin_kernel_release/kernel/arch/arm64/include/asm/memory.h"
	.file 141 "/mnt/disk/jenkins/ci/workspace/chipset_pipeline_release/opensource/component_code/vendor/huawei/extra/build/build_script/kirin_kernel_release/kernel/include/asm-generic/percpu.h"
	.file 142 "/mnt/disk/jenkins/ci/workspace/chipset_pipeline_release/opensource/component_code/vendor/huawei/extra/build/build_script/kirin_kernel_release/kernel/include/linux/debug_locks.h"
	.file 143 "/mnt/disk/jenkins/ci/workspace/chipset_pipeline_release/opensource/component_code/vendor/huawei/extra/build/build_script/kirin_kernel_release/kernel/include/asm-generic/pgtable.h"
	.file 144 "/mnt/disk/jenkins/ci/workspace/chipset_pipeline_release/opensource/component_code/vendor/huawei/extra/build/build_script/kirin_kernel_release/kernel/arch/arm64/include/asm/irq.h"
	.file 145 "/mnt/disk/jenkins/ci/workspace/chipset_pipeline_release/opensource/component_code/vendor/huawei/extra/build/build_script/kirin_kernel_release/kernel/arch/arm64/include/asm/hardirq.h"
	.file 146 "/mnt/disk/jenkins/ci/workspace/chipset_pipeline_release/opensource/component_code/vendor/huawei/extra/build/build_script/kirin_kernel_release/kernel/include/linux/slab.h"
	.file 147 "/mnt/disk/jenkins/ci/workspace/chipset_pipeline_release/opensource/component_code/vendor/huawei/extra/build/build_script/kirin_kernel_release/kernel/include/trace/events/block.h"
	.file 148 "/mnt/disk/jenkins/ci/workspace/chipset_pipeline_release/opensource/component_code/vendor/huawei/extra/build/build_script/kirin_kernel_release/kernel/include/asm-generic/delay.h"
	.file 149 "/mnt/disk/jenkins/ci/workspace/chipset_pipeline_release/opensource/component_code/vendor/huawei/extra/build/build_script/kirin_kernel_release/kernel/include/linux/stddef.h"
	.section	.note.GNU-stack,"",%progbits
