	.cpu generic+fp+simd
	.file	"hisi-bkops-core.c"
	.text
.Ltext0:
	.cfi_sections	.debug_frame
	.align	2
	.type	bkops_notify_reboot, %function
bkops_notify_reboot:
.LFB2923:
	.file 1 "/mnt/disk/jenkins/ci/workspace/chipset_pipeline_release/opensource/component_code/vendor/huawei/extra/build/build_script/kirin_kernel_release/kernel/block/hisi-bkops-core.c"
	.loc 1 337 0
	.cfi_startproc
.LVL0:
	stp	x29, x30, [sp, -32]!
	.cfi_def_cfa_offset 32
	.cfi_offset 29, -32
	.cfi_offset 30, -24
	add	x29, sp, 0
	.cfi_def_cfa_register 29
	str	x19, [sp,16]
	.cfi_offset 19, -16
.LBB148:
.LBB149:
	.loc 1 302 0
	adrp	x19, .LANCHOR0
	add	x19, x19, :lo12:.LANCHOR0
	mov	x0, x19
.LVL1:
	bl	mutex_lock
.LVL2:
	.loc 1 303 0
	str	wzr, [x19,72]
	.loc 1 304 0
	mov	x0, x19
	bl	mutex_unlock
.LVL3:
.LBE149:
.LBE148:
	.loc 1 340 0
	ldr	x19, [sp,16]
	.cfi_restore 19
	mov	w0, 0
	ldp	x29, x30, [sp], 32
	.cfi_restore 30
	.cfi_restore 29
	.cfi_def_cfa 31, 0
	ret
	.cfi_endproc
.LFE2923:
	.size	bkops_notify_reboot, .-bkops_notify_reboot
	.align	2
	.type	bkops_io_busy_idle_notify_handler, %function
bkops_io_busy_idle_notify_handler:
.LFB2918:
	.loc 1 255 0
	.cfi_startproc
.LVL4:
	stp	x29, x30, [sp, -64]!
	.cfi_def_cfa_offset 64
	.cfi_offset 29, -64
	.cfi_offset 30, -56
	add	x29, sp, 0
	.cfi_def_cfa_register 29
	stp	x19, x20, [sp,16]
	stp	x21, x22, [sp,32]
	.cfi_offset 19, -48
	.cfi_offset 20, -40
	.cfi_offset 21, -32
	.cfi_offset 22, -24
	.loc 1 258 0
	ldr	x19, [x0,96]
.LVL5:
	.loc 1 260 0
	cbz	w1, .L4
	cmp	w1, 1
	beq	.L50
.L47:
	.loc 1 281 0
	mov	w0, 0
.LVL6:
.L45:
	.loc 1 286 0
	ldp	x19, x20, [sp,16]
	.cfi_remember_state
	.cfi_restore 20
	.cfi_restore 19
.LVL7:
.LVL8:
	ldp	x21, x22, [sp,32]
	.cfi_restore 22
	.cfi_restore 21
	ldp	x29, x30, [sp], 64
	.cfi_restore 30
	.cfi_restore 29
	.cfi_def_cfa 31, 0
	ret
.LVL9:
.L50:
	.cfi_restore_state
.LBB168:
.LBB169:
	.loc 1 228 0
	ldr	x0, [x19,128]
.LVL10:
	tbnz	x0, 1, .L6
.LVL11:
	.loc 1 231 0
	ldr	w1, [x19,276]
	cbz	w1, .L7
	.loc 1 231 0 is_stmt 0 discriminator 1
	ldr	w1, [x19,272]
	cbz	w1, .L7
	.loc 1 232 0 is_stmt 1
	ldr	w1, [x19,328]
	adrp	x21, .LANCHOR1
	add	w1, w1, 1
	str	w1, [x19,328]
.LVL12:
.L8:
	.loc 1 249 0
	mov	x1, x19
	orr	x2, x0, 2
.LBE169:
.LBE168:
	.loc 1 264 0
	mov	w0, 2
	.loc 1 265 0
	add	x20, x19, 32
.LVL13:
.LBB184:
.LBB178:
	.loc 1 249 0
	str	x2, [x1,128]!
.LBE178:
.LBE184:
	.loc 1 264 0
	bl	set_bit
.LVL14:
	.loc 1 265 0
	ldr	x1, [x21,#:lo12:.LANCHOR1]
	ldr	w0, [x19,136]
	b	.L21
.LVL15:
.L4:
	.loc 1 271 0
	add	x20, x19, 128
	.loc 1 270 0
	mov	w0, 2
.LVL16:
	mov	x1, x20
.LVL17:
	bl	test_and_clear_bit
.LVL18:
	cbz	w0, .L47
	.loc 1 273 0
	add	x0, x19, 32
	bl	cancel_delayed_work_sync
.LVL19:
	uxtb	w0, w0
	cbz	w0, .L16
	.loc 1 274 0
	ldr	w0, [x19,352]
	add	w0, w0, 1
	str	w0, [x19,352]
.L17:
.LBB185:
.LBB186:
	.file 2 "/mnt/disk/jenkins/ci/workspace/chipset_pipeline_release/opensource/component_code/vendor/huawei/extra/build/build_script/kirin_kernel_release/kernel/include/asm-generic/bitops/non-atomic.h"
	.loc 2 105 0
	ldr	x0, [x19,128]
.LBE186:
.LBE185:
	.loc 1 277 0
	tbz	x0, 0, .L47
.LBB187:
.LBB188:
	.loc 1 145 0
	adrp	x21, .LANCHOR0
	add	x22, x21, :lo12:.LANCHOR0
	mov	x0, x22
	bl	mutex_lock
.LVL20:
	.loc 1 146 0
	ldr	w0, [x22,72]
	cbz	w0, .L19
	.loc 1 149 0
	ldr	x2, [x19,8]
	mov	w1, 0
	ldr	x0, [x19,16]
	ldr	x2, [x2]
	blr	x2
.LVL21:
	.loc 1 150 0
	ldr	w0, [x19,340]
	add	w0, w0, 1
	str	w0, [x19,340]
.L19:
	.loc 1 153 0
	add	x0, x21, :lo12:.LANCHOR0
	bl	mutex_unlock
.LVL22:
.LBE188:
.LBE187:
	.loc 1 279 0
	mov	w0, 0
	mov	x1, x20
	bl	clear_bit
.LVL23:
	b	.L47
.L6:
.LBB189:
.LBB179:
	.loc 1 249 0
	mov	x1, x19
	orr	x2, x0, 2
.LBE179:
.LBE189:
	.loc 1 264 0
	mov	w0, 2
	.loc 1 265 0
	add	x20, x19, 32
.LBB190:
.LBB180:
	.loc 1 249 0
	str	x2, [x1,128]!
.LBE180:
.LBE190:
	.loc 1 264 0
	bl	set_bit
.LVL24:
	.loc 1 265 0
	adrp	x1, .LANCHOR1
	ldr	w0, [x19,136]
	ldr	x1, [x1,#:lo12:.LANCHOR1]
.L21:
	str	x1, [x29,56]
.LBB191:
.LBB192:
	.file 3 "/mnt/disk/jenkins/ci/workspace/chipset_pipeline_release/opensource/component_code/vendor/huawei/extra/build/build_script/kirin_kernel_release/kernel/include/linux/jiffies.h"
	.loc 3 364 0
	bl	__msecs_to_jiffies
.LVL25:
.LBE192:
.LBE191:
.LBB194:
.LBB195:
	.file 4 "/mnt/disk/jenkins/ci/workspace/chipset_pipeline_release/opensource/component_code/vendor/huawei/extra/build/build_script/kirin_kernel_release/kernel/include/linux/workqueue.h"
	.loc 4 492 0
	ldr	x1, [x29,56]
.LBE195:
.LBE194:
.LBB197:
.LBB193:
	.loc 3 364 0
	mov	x3, x0
.LBE193:
.LBE197:
.LBB198:
.LBB196:
	.loc 4 492 0
	mov	x2, x20
	mov	w0, 8
	bl	queue_delayed_work_on
.LVL26:
.LBE196:
.LBE198:
	.loc 1 267 0
	mov	w0, 1
.LVL27:
.LVL28:
	.loc 1 286 0
	ldp	x19, x20, [sp,16]
	.cfi_remember_state
	.cfi_restore 19
	.cfi_restore 20
.LVL29:
	ldp	x21, x22, [sp,32]
	.cfi_restore 21
	.cfi_restore 22
	ldp	x29, x30, [sp], 64
	.cfi_restore 29
	.cfi_restore 30
	.cfi_def_cfa 31, 0
	ret
.LVL30:
.L7:
	.cfi_restore_state
.LBB199:
.LBB181:
.LBB170:
.LBB171:
	.loc 1 185 0
	ldr	x0, [x19,24]
	bl	hisi_blk_get_lld
.LVL31:
	mov	x20, x0
.LVL32:
	.loc 1 188 0
	ldr	x0, [x19,128]
	tbnz	x0, 3, .L51
.L9:
	.loc 1 199 0
	tbz	x0, 5, .L13
	.loc 1 200 0
	ldr	x2, [x20,1312]
	ldr	x1, [x19,304]
	.loc 1 199 0 discriminator 1
	ldr	x3, [x19,296]
	.loc 1 200 0
	sub	x1, x2, x1
	.loc 1 199 0 discriminator 1
	cmp	x1, x3
	bcs	.L52
.L13:
	.loc 1 207 0
	tbz	x0, 4, .L14
	.loc 1 208 0
	ldr	x2, [x20,1304]
	ldr	x1, [x19,320]
	.loc 1 207 0 discriminator 1
	ldr	x3, [x19,312]
	.loc 1 208 0
	sub	x1, x2, x1
	.loc 1 207 0 discriminator 1
	cmp	x1, x3
	bcc	.L14
	.loc 1 211 0
	ldr	w1, [x19,364]
	adrp	x21, .LANCHOR1
	.loc 1 210 0
	str	x2, [x19,320]
	.loc 1 211 0
	add	w1, w1, 1
	str	w1, [x19,364]
	b	.L8
.L14:
.LBE171:
.LBE170:
	.loc 1 239 0
	adrp	x21, .LANCHOR1
	add	x1, x21, :lo12:.LANCHOR1
	ldrb	w1, [x1,8]
	cbnz	w1, .L8
	.loc 1 245 0
	and	x1, x0, -3
.LBE181:
.LBE199:
	.loc 1 256 0
	mov	w0, 0
.LVL33:
.LBB200:
.LBB182:
	.loc 1 245 0
	str	x1, [x19,128]
	b	.L45
.LVL34:
.L16:
.LBE182:
.LBE200:
	.loc 1 276 0
	ldr	w0, [x19,356]
	add	w0, w0, 1
	str	w0, [x19,356]
	b	.L17
.LVL35:
.L51:
.LBB201:
.LBB183:
.LBB177:
.LBB176:
.LBB172:
.LBB173:
.LBB174:
.LBB175:
	.file 5 "/mnt/disk/jenkins/ci/workspace/chipset_pipeline_release/opensource/component_code/vendor/huawei/extra/build/build_script/kirin_kernel_release/kernel/include/linux/timekeeping.h"
	.loc 5 207 0
	mov	w0, 1
	bl	ktime_get_with_offset
.LVL36:
.LBE175:
.LBE174:
	.loc 5 260 0 discriminator 1
	bl	ns_to_timespec
.LVL37:
.LBE173:
.LBE172:
	.loc 1 190 0
	ldr	x1, [x19,288]
	cbz	x1, .L11
	.loc 1 190 0 is_stmt 0 discriminator 1
	ldr	x2, [x19,280]
.LVL38:
	.loc 1 191 0 is_stmt 1
	sub	x1, x0, x1
	.loc 1 190 0 discriminator 1
	cmp	x1, x2
	bcs	.L11
	ldr	x0, [x19,128]
	b	.L9
.L52:
	.loc 1 203 0
	ldr	w1, [x19,368]
	adrp	x21, .LANCHOR1
	.loc 1 202 0
	str	x2, [x19,304]
	.loc 1 203 0
	add	w1, w1, 1
	str	w1, [x19,368]
	b	.L8
.L11:
	.loc 1 194 0
	ldr	w1, [x19,360]
	adrp	x21, .LANCHOR1
	.loc 1 193 0
	str	x0, [x19,288]
	.loc 1 194 0
	add	w1, w1, 1
	ldr	x0, [x19,128]
	str	w1, [x19,360]
	b	.L8
.LBE176:
.LBE177:
.LBE183:
.LBE201:
	.cfi_endproc
.LFE2918:
	.size	bkops_io_busy_idle_notify_handler, .-bkops_io_busy_idle_notify_handler
	.align	2
	.type	hisi_bkops_status_proc_open, %function
hisi_bkops_status_proc_open:
.LFB2930:
	.loc 1 435 0
	.cfi_startproc
.LVL39:
	stp	x29, x30, [sp, -32]!
	.cfi_def_cfa_offset 32
	.cfi_offset 29, -32
	.cfi_offset 30, -24
	add	x29, sp, 0
	.cfi_def_cfa_register 29
	.loc 1 435 0
	str	x1, [x29,24]
	.loc 1 436 0
	bl	PDE_DATA
.LVL40:
	.loc 1 436 0 is_stmt 0 discriminator 1
	ldr	x1, [x29,24]
.LVL41:
	.loc 1 436 0
	mov	x2, x0
	.loc 1 436 0 discriminator 1
	mov	x0, x1
	adrp	x1, hisi_bkops_status_proc_show
.LVL42:
	add	x1, x1, :lo12:hisi_bkops_status_proc_show
	bl	single_open
.LVL43:
	.loc 1 438 0 is_stmt 1
	ldp	x29, x30, [sp], 32
	.cfi_restore 30
	.cfi_restore 29
	.cfi_def_cfa 31, 0
	ret
	.cfi_endproc
.LFE2930:
	.size	hisi_bkops_status_proc_open, .-hisi_bkops_status_proc_open
	.align	2
	.type	hisi_bkops_manual_gc_proc_open, %function
hisi_bkops_manual_gc_proc_open:
.LFB2927:
	.loc 1 390 0
	.cfi_startproc
.LVL44:
	stp	x29, x30, [sp, -16]!
	.cfi_def_cfa_offset 16
	.cfi_offset 29, -16
	.cfi_offset 30, -8
	.loc 1 391 0
	mov	x0, x1
.LVL45:
	adrp	x1, hisi_bkops_manual_gc_proc_show
.LVL46:
	.loc 1 390 0
	add	x29, sp, 0
	.cfi_def_cfa_register 29
	.loc 1 391 0
	mov	x2, 0
	add	x1, x1, :lo12:hisi_bkops_manual_gc_proc_show
	.loc 1 390 0
	.loc 1 391 0
	bl	single_open
.LVL47:
	.loc 1 392 0
	ldp	x29, x30, [sp], 16
	.cfi_restore 30
	.cfi_restore 29
	.cfi_def_cfa 31, 0
	ret
	.cfi_endproc
.LFE2927:
	.size	hisi_bkops_manual_gc_proc_open, .-hisi_bkops_manual_gc_proc_open
	.align	2
	.type	hisi_bkops_manual_gc_proc_show, %function
hisi_bkops_manual_gc_proc_show:
.LFB2926:
	.loc 1 382 0
	.cfi_startproc
.LVL48:
	.loc 1 383 0
	adrp	x2, .LANCHOR1+8
	adrp	x1, .LC0
.LVL49:
	.loc 1 382 0
	stp	x29, x30, [sp, -16]!
	.cfi_def_cfa_offset 16
	.cfi_offset 29, -16
	.cfi_offset 30, -8
	.loc 1 383 0
	add	x1, x1, :lo12:.LC0
	.loc 1 382 0
	add	x29, sp, 0
	.cfi_def_cfa_register 29
	.loc 1 383 0
	ldrb	w2, [x2,#:lo12:.LANCHOR1+8]
	bl	seq_printf
.LVL50:
	.loc 1 386 0
	mov	w0, 0
	ldp	x29, x30, [sp], 16
	.cfi_restore 30
	.cfi_restore 29
	.cfi_def_cfa 31, 0
	ret
	.cfi_endproc
.LFE2926:
	.size	hisi_bkops_manual_gc_proc_show, .-hisi_bkops_manual_gc_proc_show
	.align	2
	.type	bkops_pm_callback, %function
bkops_pm_callback:
.LFB2922:
	.loc 1 316 0
	.cfi_startproc
.LVL51:
	stp	x29, x30, [sp, -32]!
	.cfi_def_cfa_offset 32
	.cfi_offset 29, -32
	.cfi_offset 30, -24
	.loc 1 317 0
	sub	x1, x1, #1
.LVL52:
	.loc 1 316 0
	add	x29, sp, 0
	.cfi_def_cfa_register 29
	stp	x19, x20, [sp,16]
	.cfi_offset 19, -16
	.cfi_offset 20, -8
	.loc 1 317 0
	cmp	x1, 3
	bhi	.L61
	cmp	w1, 3
	bls	.L62
.L61:
	.loc 1 329 0
	mov	w0, 0
.LVL53:
	b	.L57
.LVL54:
.L62:
	.loc 1 317 0
	adrp	x0, .L59
.LVL55:
	add	x0, x0, :lo12:.L59
	ldrb	w0, [x0,w1,uxtw]
	adr	x1, .Lrtx59
	add	x0, x1, w0, sxtb #2
	br	x0
.Lrtx59:
	.section	.rodata
	.align	0
	.align	2
.L59:
	.byte	(.L58 - .Lrtx59) / 4
	.byte	(.L60 - .Lrtx59) / 4
	.byte	(.L58 - .Lrtx59) / 4
	.byte	(.L60 - .Lrtx59) / 4
	.text
.L58:
.LBB210:
.LBB211:
.LBB212:
	.loc 1 302 0
	adrp	x19, .LANCHOR0
	add	x19, x19, :lo12:.LANCHOR0
	mov	x0, x19
	bl	mutex_lock
.LVL56:
	.loc 1 303 0
	str	wzr, [x19,72]
	.loc 1 304 0
	mov	x0, x19
	bl	mutex_unlock
.LVL57:
	mov	w0, 1
.LVL58:
.L57:
.LBE212:
.LBE211:
.LBE210:
	.loc 1 333 0
	ldp	x19, x20, [sp,16]
	.cfi_remember_state
	.cfi_restore 20
	.cfi_restore 19
	ldp	x29, x30, [sp], 32
	.cfi_restore 30
	.cfi_restore 29
	.cfi_def_cfa 31, 0
	ret
.L60:
	.cfi_restore_state
.LBB213:
.LBB214:
	.loc 1 309 0
	adrp	x20, .LANCHOR0
	.loc 1 310 0
	mov	w19, 1
	.loc 1 309 0
	add	x20, x20, :lo12:.LANCHOR0
	mov	x0, x20
	bl	mutex_lock
.LVL59:
	.loc 1 310 0
	str	w19, [x20,72]
	.loc 1 311 0
	mov	x0, x20
	bl	mutex_unlock
.LVL60:
.LBE214:
.LBE213:
	.loc 1 332 0
	mov	w0, w19
	.loc 1 333 0
	ldp	x19, x20, [sp,16]
	.cfi_restore 19
	.cfi_restore 20
	ldp	x29, x30, [sp], 32
	.cfi_restore 29
	.cfi_restore 30
	.cfi_def_cfa 31, 0
	ret
	.cfi_endproc
.LFE2922:
	.size	bkops_pm_callback, .-bkops_pm_callback
	.align	2
	.type	hisi_bkops_manual_gc_proc_write, %function
hisi_bkops_manual_gc_proc_write:
.LFB2928:
	.loc 1 396 0
	.cfi_startproc
.LVL61:
	stp	x29, x30, [sp, -64]!
	.cfi_def_cfa_offset 64
	.cfi_offset 29, -64
	.cfi_offset 30, -56
	add	x29, sp, 0
	.cfi_def_cfa_register 29
	stp	x19, x20, [sp,16]
	.cfi_offset 19, -48
	.cfi_offset 20, -40
	adrp	x20, __stack_chk_guard
	mov	x19, x2
	str	x21, [sp,32]
	.cfi_offset 21, -32
	.loc 1 396 0
	mov	x2, x1
.LVL62:
	ldr	x0, [x20,#:lo12:__stack_chk_guard]
.LVL63:
	str	x0, [x29,56]
	.loc 1 399 0
	cbz	x19, .L70
	cbz	x1, .L70
.LBB231:
.LBB232:
.LBB233:
.LBB234:
.LBB235:
.LBB236:
	.file 6 "/mnt/disk/jenkins/ci/workspace/chipset_pipeline_release/opensource/component_code/vendor/huawei/extra/build/build_script/kirin_kernel_release/kernel/arch/arm64/include/asm/current.h"
	.loc 6 20 0
#APP
// 20 "/mnt/disk/jenkins/ci/workspace/chipset_pipeline_release/opensource/component_code/vendor/huawei/extra/build/build_script/kirin_kernel_release/kernel/arch/arm64/include/asm/current.h" 1
	mrs x0, sp_el0
// 0 "" 2
.LVL64:
#NO_APP
.LBE236:
.LBE235:
	.file 7 "/mnt/disk/jenkins/ci/workspace/chipset_pipeline_release/opensource/component_code/vendor/huawei/extra/build/build_script/kirin_kernel_release/kernel/arch/arm64/include/asm/uaccess.h"
	.loc 7 112 0
	ldr	x3, [x0,8]
.LVL65:
	.loc 7 115 0
#APP
// 115 "/mnt/disk/jenkins/ci/workspace/chipset_pipeline_release/opensource/component_code/vendor/huawei/extra/build/build_script/kirin_kernel_release/kernel/arch/arm64/include/asm/uaccess.h" 1
		adds	x2, x2, 1
	csel	x3, xzr, x3, hi
	csinv	x2, x2, xzr, cc
	sbcs	xzr, x2, x3
	cset	x2, ls

// 0 "" 2
#NO_APP
.LBE234:
.LBE233:
	.loc 7 445 0
	cbnz	x2, .L76
	add	x0, x29, 55
.LVL66:
	.loc 7 442 0
	mov	x2, 1
.LVL67:
.L65:
	.loc 7 450 0
	mov	w1, 0
.LVL68:
	bl	memset
.LVL69:
.LBE232:
.LBE231:
	.loc 1 403 0
	mov	x0, -14
.LVL70:
.L64:
	.loc 1 413 0
	ldr	x2, [x29,56]
	ldr	x1, [x20,#:lo12:__stack_chk_guard]
.LVL71:
	cmp	x2, x1
	bne	.L77
	ldp	x19, x20, [sp,16]
	.cfi_remember_state
	.cfi_restore 20
	.cfi_restore 19
.LVL72:
	ldr	x21, [sp,32]
	.cfi_restore 21
	ldp	x29, x30, [sp], 64
	.cfi_restore 30
	.cfi_restore 29
	.cfi_def_cfa 31, 0
	ret
.LVL73:
.L76:
	.cfi_restore_state
.LBB238:
.LBB237:
	.loc 7 447 0
	add	x21, x29, 55
	mov	x2, 1
.LVL74:
	mov	x0, x21
.LVL75:
	bl	__arch_copy_from_user
.LVL76:
	mov	x2, x0
.LVL77:
	.loc 7 449 0
	cbnz	x0, .L78
.LVL78:
.LBE237:
.LBE238:
	.loc 1 405 0
	ldrb	w2, [x29,55]
	sub	w2, w2, #48
	uxtb	w2, w2
	cmp	w2, 1
	bhi	.L79
	.loc 1 410 0
	adrp	x1, .LANCHOR1+8
	.loc 1 412 0
	mov	x0, x19
.LVL79:
	.loc 1 410 0
	strb	w2, [x1,#:lo12:.LANCHOR1+8]
	.loc 1 412 0
	b	.L64
.LVL80:
.L70:
	.loc 1 400 0
	mov	x0, -22
	b	.L64
.LVL81:
.L77:
	.loc 1 413 0
	bl	__stack_chk_fail
.LVL82:
.L79:
.LBB239:
.LBB240:
	.loc 1 406 0
	adrp	x0, .LC1
.LVL83:
	adrp	x1, .LANCHOR2
	add	x0, x0, :lo12:.LC1
	add	x1, x1, :lo12:.LANCHOR2
	mov	w2, 406
	bl	printk
.LVL84:
	mov	x0, -22
	b	.L64
.LVL85:
.L78:
	sub	x0, x21, x0
.LVL86:
	add	x0, x0, 1
	b	.L65
.LBE240:
.LBE239:
	.cfi_endproc
.LFE2928:
	.size	hisi_bkops_manual_gc_proc_write, .-hisi_bkops_manual_gc_proc_write
	.align	2
	.type	hisi_bkops_query.constprop.4, %function
hisi_bkops_query.constprop.4:
.LFB2937:
	.loc 1 60 0
	.cfi_startproc
.LVL87:
	stp	x29, x30, [sp, -64]!
	.cfi_def_cfa_offset 64
	.cfi_offset 29, -64
	.cfi_offset 30, -56
	add	x29, sp, 0
	.cfi_def_cfa_register 29
	stp	x21, x22, [sp,32]
	.cfi_offset 21, -32
	.cfi_offset 22, -24
	.loc 1 67 0
	adrp	x21, .LANCHOR0
	.loc 1 60 0
	stp	x23, x24, [sp,48]
	stp	x19, x20, [sp,16]
	.cfi_offset 23, -16
	.cfi_offset 24, -8
	.cfi_offset 19, -48
	.cfi_offset 20, -40
	.loc 1 60 0
	mov	x23, x0
	.loc 1 67 0
	add	x19, x21, :lo12:.LANCHOR0
	mov	x0, x19
.LVL88:
	.loc 1 60 0
	mov	x24, x1
	.loc 1 64 0
	ldr	x22, [x23,8]
.LVL89:
	.loc 1 67 0
	bl	mutex_lock
.LVL90:
	.loc 1 68 0
	ldr	w0, [x19,72]
	cbz	w0, .L85
.LBB241:
.LBB242:
	.loc 5 228 0
	bl	ktime_get
.LVL91:
	mov	x20, x0
.LBE242:
.LBE241:
	.loc 1 80 0
	ldr	x2, [x22,8]
	.loc 1 81 0
	add	x19, x23, 328
	.loc 1 80 0
	ldr	x0, [x23,16]
	mov	x1, x24
	blr	x2
.LVL92:
	mov	w22, w0
.LVL93:
	.loc 1 81 0
	ldr	w0, [x19,20]
	add	w0, w0, 1
	str	w0, [x19,20]
	.loc 1 82 0
	cbnz	w22, .L82
	.loc 1 82 0 is_stmt 0 discriminator 1
	ldr	w0, [x24]
	ldr	w1, [x19,192]
	cmp	w0, w1
	bcs	.L82
	add	x0, x23, x0, uxtw 2
	.loc 1 83 0 is_stmt 1
	ldr	w1, [x0,480]
	add	w1, w1, 1
	str	w1, [x0,480]
.L82:
	.loc 1 84 0
	adrp	x0, .LANCHOR1
	add	x0, x0, :lo12:.LANCHOR1
	ldrb	w1, [x0,8]
	cbz	w1, .L83
	.loc 1 84 0 is_stmt 0 discriminator 1
	ldr	w1, [x24]
	cbnz	w1, .L83
	.loc 1 85 0 is_stmt 1
	strb	wzr, [x0,8]
.L83:
.LBB243:
.LBB244:
	.loc 5 228 0
	bl	ktime_get
.LVL94:
.LBE244:
.LBE243:
	.loc 1 87 0
	sub	x0, x0, x20
.LVL95:
	.loc 1 88 0
	ldr	x1, [x19,64]
	cmp	x0, x1
	bhi	.L89
.L84:
	.loc 1 93 0
	ldr	w2, [x19,20]
	.loc 1 92 0
	ldr	x3, [x19,72]
	sub	w1, w2, #1
	.loc 1 94 0
	uxtw	x2, w2
	.loc 1 93 0
	madd	x0, x1, x3, x0
.LVL96:
	.loc 1 94 0
	udiv	x0, x0, x2
	.loc 1 91 0
	str	x0, [x19,72]
.L81:
	.loc 1 98 0
	add	x0, x21, :lo12:.LANCHOR0
	bl	mutex_unlock
.LVL97:
	.loc 1 100 0
	mov	w0, w22
	ldp	x19, x20, [sp,16]
	.cfi_remember_state
	.cfi_restore 20
	.cfi_restore 19
	ldp	x21, x22, [sp,32]
	.cfi_restore 22
	.cfi_restore 21
.LVL98:
	ldp	x23, x24, [sp,48]
	.cfi_restore 24
	.cfi_restore 23
.LVL99:
	ldp	x29, x30, [sp], 64
	.cfi_restore 30
	.cfi_restore 29
	.cfi_def_cfa 31, 0
	ret
.LVL100:
.L89:
	.cfi_restore_state
	.loc 1 89 0
	str	x0, [x19,64]
	b	.L84
.LVL101:
.L85:
	.loc 1 62 0
	mov	w22, -1
.LVL102:
	b	.L81
	.cfi_endproc
.LFE2937:
	.size	hisi_bkops_query.constprop.4, .-hisi_bkops_query.constprop.4
	.align	2
	.type	hisi_bkops_status_proc_show, %function
hisi_bkops_status_proc_show:
.LFB2929:
	.loc 1 424 0
	.cfi_startproc
.LVL103:
	stp	x29, x30, [sp, -48]!
	.cfi_def_cfa_offset 48
	.cfi_offset 29, -48
	.cfi_offset 30, -40
	add	x29, sp, 0
	.cfi_def_cfa_register 29
	stp	x19, x20, [sp,16]
	.cfi_offset 19, -32
	.cfi_offset 20, -24
	.loc 1 424 0
	adrp	x19, __stack_chk_guard
	.loc 1 425 0
	add	x1, x29, 48
.LVL104:
	.loc 1 424 0
	mov	x20, x0
	.loc 1 427 0
	ldr	x0, [x0,160]
.LVL105:
	.loc 1 424 0
	ldr	x2, [x19,#:lo12:__stack_chk_guard]
	.loc 1 425 0
	str	wzr, [x1,-12]!
.LVL106:
	.loc 1 424 0
	str	x2, [x29,40]
	.loc 1 427 0
	bl	hisi_bkops_query.constprop.4
.LVL107:
	.loc 1 428 0
	ldr	w2, [x29,36]
	adrp	x1, .LC0
	mov	x0, x20
	add	x1, x1, :lo12:.LC0
	bl	seq_printf
.LVL108:
	.loc 1 431 0
	ldr	x2, [x29,40]
	mov	w0, 0
	ldr	x1, [x19,#:lo12:__stack_chk_guard]
	cmp	x2, x1
	bne	.L92
	ldp	x19, x20, [sp,16]
	.cfi_remember_state
	.cfi_restore 20
	.cfi_restore 19
.LVL109:
	ldp	x29, x30, [sp], 48
	.cfi_restore 30
	.cfi_restore 29
	.cfi_def_cfa 31, 0
	ret
.LVL110:
.L92:
	.cfi_restore_state
	bl	__stack_chk_fail
.LVL111:
	.cfi_endproc
.LFE2929:
	.size	hisi_bkops_status_proc_show, .-hisi_bkops_status_proc_show
	.align	2
	.type	bkops_idle_work_func, %function
bkops_idle_work_func:
.LFB2915:
	.loc 1 158 0
	.cfi_startproc
.LVL112:
	stp	x29, x30, [sp, -80]!
	.cfi_def_cfa_offset 80
	.cfi_offset 29, -80
	.cfi_offset 30, -72
	add	x29, sp, 0
	.cfi_def_cfa_register 29
	stp	x21, x22, [sp,32]
	.cfi_offset 21, -48
	.cfi_offset 22, -40
	adrp	x21, __stack_chk_guard
	.loc 1 159 0
	add	x1, x29, 80
	.loc 1 158 0
	stp	x19, x20, [sp,16]
	stp	x23, x24, [sp,48]
	.cfi_offset 19, -64
	.cfi_offset 20, -56
	.cfi_offset 23, -32
	.cfi_offset 24, -24
.LBB254:
	.loc 1 160 0
	sub	x19, x0, #32
.LVL113:
.LBE254:
	.loc 1 158 0
	ldr	x2, [x21,#:lo12:__stack_chk_guard]
	mov	x20, x0
	.loc 1 159 0
	str	wzr, [x1,-12]!
.LVL114:
	.loc 1 164 0
	mov	x0, x19
.LVL115:
	.loc 1 158 0
	str	x2, [x29,72]
	.loc 1 164 0
	bl	hisi_bkops_query.constprop.4
.LVL116:
	.loc 1 165 0
	cbnz	w0, .L105
	.loc 1 169 0
	ldr	x0, [x19,128]
.LVL117:
	.loc 1 172 0
	ldr	w1, [x29,68]
	.loc 1 169 0
	and	x0, x0, -3
	.loc 1 172 0
	str	w1, [x19,272]
	.loc 1 169 0
	str	x0, [x19,128]
	.loc 1 174 0
	cbnz	w1, .L106
.LVL118:
.L93:
	.loc 1 181 0
	ldr	x1, [x29,72]
	ldr	x0, [x21,#:lo12:__stack_chk_guard]
	cmp	x1, x0
	bne	.L107
	ldp	x19, x20, [sp,16]
	.cfi_remember_state
	.cfi_restore 20
	.cfi_restore 19
.LVL119:
	ldp	x21, x22, [sp,32]
	.cfi_restore 22
	.cfi_restore 21
	ldp	x23, x24, [sp,48]
	.cfi_restore 24
	.cfi_restore 23
.LVL120:
	ldp	x29, x30, [sp], 80
	.cfi_restore 30
	.cfi_restore 29
	.cfi_def_cfa 31, 0
	ret
.LVL121:
.L106:
	.cfi_restore_state
.LBB255:
.LBB256:
	.loc 2 105 0
	ldr	x0, [x20,96]
.LBE256:
.LBE255:
	.loc 1 174 0 discriminator 1
	tbnz	x0, 0, .L93
.LBB257:
.LBB258:
	.loc 1 109 0
	adrp	x24, .LANCHOR0
	.loc 1 106 0
	ldr	x23, [x20,-24]
.LVL122:
	.loc 1 109 0
	add	x22, x24, :lo12:.LANCHOR0
	mov	x0, x22
	bl	mutex_lock
.LVL123:
	.loc 1 110 0
	ldr	w0, [x22,72]
	cbz	w0, .L97
.LBB259:
.LBB260:
	.loc 5 228 0
	bl	ktime_get
.LVL124:
	mov	x22, x0
.LBE260:
.LBE259:
	.loc 1 114 0
	ldr	x2, [x23]
	mov	w1, 1
	ldr	x0, [x20,-16]
	blr	x2
.LVL125:
	mov	w23, w0
.LVL126:
	.loc 1 115 0
	ldr	w0, [x19,332]
	add	w0, w0, 1
	str	w0, [x19,332]
	.loc 1 116 0
	add	x19, x20, 296
.LVL127:
.LBB261:
.LBB262:
	.loc 5 228 0
	bl	ktime_get
.LVL128:
.LBE262:
.LBE261:
	.loc 1 117 0
	sub	x2, x0, x22
.LVL129:
	.loc 1 118 0
	ldr	x1, [x19,80]
	.loc 1 116 0
	str	x0, [x19,56]
	.loc 1 118 0
	cmp	x2, x1
	bls	.L98
	.loc 1 119 0
	str	x2, [x19,80]
.L98:
	.loc 1 122 0
	ldr	w3, [x19,4]
	.loc 1 127 0
	add	x0, x24, :lo12:.LANCHOR0
	.loc 1 121 0
	ldr	x4, [x19,88]
	sub	w1, w3, #1
	.loc 1 123 0
	uxtw	x3, w3
	.loc 1 122 0
	madd	x1, x1, x4, x2
	.loc 1 123 0
	udiv	x1, x1, x3
	.loc 1 120 0
	str	x1, [x19,88]
	.loc 1 127 0
	bl	mutex_unlock
.LVL130:
.LBE258:
.LBE257:
	.loc 1 176 0
	cbnz	w23, .L100
	.loc 1 179 0
	mov	w0, 0
	add	x1, x20, 96
	bl	set_bit
.LVL131:
	b	.L93
.LVL132:
.L97:
.LBB264:
.LBB263:
	.loc 1 127 0
	mov	x0, x22
	bl	mutex_unlock
.LVL133:
.L100:
.LBE263:
.LBE264:
	.loc 1 177 0
	adrp	x0, .LC3
	add	x0, x0, :lo12:.LC3
	bl	printk
.LVL134:
	b	.L93
.L107:
	.loc 1 181 0
	bl	__stack_chk_fail
.LVL135:
.L105:
	.loc 1 166 0
	adrp	x0, .LC2
	add	x0, x0, :lo12:.LC2
	bl	printk
.LVL136:
	b	.L93
	.cfi_endproc
.LFE2915:
	.size	bkops_idle_work_func, .-bkops_idle_work_func
	.align	2
	.global	hisi_bkops_update_dur
	.type	hisi_bkops_update_dur, %function
hisi_bkops_update_dur:
.LFB2911:
	.loc 1 31 0
	.cfi_startproc
.LVL137:
	stp	x29, x30, [sp, -32]!
	.cfi_def_cfa_offset 32
	.cfi_offset 29, -32
	.cfi_offset 30, -24
	add	x29, sp, 0
	.cfi_def_cfa_register 29
	str	x19, [sp,16]
	.cfi_offset 19, -16
	.loc 1 31 0
	mov	x19, x0
.LBB265:
.LBB266:
	.loc 5 228 0
	bl	ktime_get
.LVL138:
.LBE266:
.LBE265:
	.loc 1 35 0
	ldr	x2, [x19,56]
	.loc 1 36 0
	ldr	x1, [x19,112]
	.loc 1 35 0
	sub	x0, x0, x2
.LVL139:
	.loc 1 36 0
	cmp	x0, x1
	bls	.L109
	.loc 1 37 0
	str	x0, [x19,112]
.L109:
	.loc 1 39 0
	mov	x1, 13531
	movk	x1, 0xd7b6, lsl 16
	movk	x1, 0xde82, lsl 32
	movk	x1, 0x431b, lsl 48
	umulh	x1, x0, x1
	lsr	x1, x1, 18
.LVL140:
	.loc 1 40 0
	cmp	x1, 99
	bls	.L116
	.loc 1 42 0
	cmp	x1, 499
	bls	.L117
	.loc 1 44 0
	cmp	x1, 999
	bls	.L118
	.loc 1 46 0
	cmp	x1, 1999
	bls	.L119
	.loc 1 48 0
	mov	x2, 4999
	cmp	x1, x2
	bls	.L120
	.loc 1 51 0
	ldr	w1, [x19,148]
.LVL141:
	add	w1, w1, 1
	str	w1, [x19,148]
	b	.L111
.LVL142:
.L117:
	.loc 1 43 0
	ldr	w1, [x19,132]
.LVL143:
	add	w1, w1, 1
	str	w1, [x19,132]
.L111:
	.loc 1 55 0
	ldr	w2, [x19,8]
	.loc 1 54 0
	ldr	x3, [x19,120]
	sub	w1, w2, #1
	.loc 1 56 0
	uxtw	x2, w2
	.loc 1 55 0
	madd	x0, x1, x3, x0
.LVL144:
	.loc 1 56 0
	udiv	x0, x0, x2
	.loc 1 53 0
	str	x0, [x19,120]
	.loc 1 58 0
	ldr	x19, [sp,16]
	.cfi_remember_state
	.cfi_restore 19
.LVL145:
	ldp	x29, x30, [sp], 32
	.cfi_restore 30
	.cfi_restore 29
	.cfi_def_cfa 31, 0
	ret
.LVL146:
.L116:
	.cfi_restore_state
	.loc 1 41 0
	ldr	w1, [x19,128]
.LVL147:
	add	w1, w1, 1
	str	w1, [x19,128]
	b	.L111
.LVL148:
.L119:
	.loc 1 47 0
	ldr	w1, [x19,140]
.LVL149:
	add	w1, w1, 1
	str	w1, [x19,140]
	b	.L111
.LVL150:
.L118:
	.loc 1 45 0
	ldr	w1, [x19,136]
.LVL151:
	add	w1, w1, 1
	str	w1, [x19,136]
	b	.L111
.LVL152:
.L120:
	.loc 1 49 0
	ldr	w1, [x19,144]
.LVL153:
	add	w1, w1, 1
	str	w1, [x19,144]
	b	.L111
	.cfi_endproc
.LFE2911:
	.size	hisi_bkops_update_dur, .-hisi_bkops_update_dur
	.align	2
	.global	hisi_bkops_set_status_info
	.type	hisi_bkops_set_status_info, %function
hisi_bkops_set_status_info:
.LFB2919:
	.loc 1 290 0
	.cfi_startproc
.LVL154:
	stp	x29, x30, [sp, -16]!
	.cfi_def_cfa_offset 16
	.cfi_offset 29, -16
	.cfi_offset 30, -8
	.loc 1 291 0
	cmp	w1, 10
	.loc 1 290 0
	add	x29, sp, 0
	.cfi_def_cfa_register 29
	.loc 1 291 0
	bhi	.L124
	.loc 1 295 0
	str	w1, [x0,520]
	.loc 1 297 0
	mov	w1, 0
.LVL155:
	.loc 1 296 0
	str	x2, [x0,528]
.L123:
	.loc 1 298 0
	mov	w0, w1
.LVL156:
	ldp	x29, x30, [sp], 16
	.cfi_remember_state
	.cfi_restore 30
	.cfi_restore 29
	.cfi_def_cfa 31, 0
	ret
.LVL157:
.L124:
	.cfi_restore_state
	.loc 1 292 0
	adrp	x0, .LC4
.LVL158:
	add	x0, x0, :lo12:.LC4
	bl	printk
.LVL159:
	.loc 1 293 0
	mov	w1, -1
	b	.L123
	.cfi_endproc
.LFE2919:
	.size	hisi_bkops_set_status_info, .-hisi_bkops_set_status_info
	.align	2
	.global	hisi_bkops_alloc
	.type	hisi_bkops_alloc, %function
hisi_bkops_alloc:
.LFB2925:
	.loc 1 363 0
	.cfi_startproc
.LBB267:
.LBB268:
.LBB269:
	.file 8 "/mnt/disk/jenkins/ci/workspace/chipset_pipeline_release/opensource/component_code/vendor/huawei/extra/build/build_script/kirin_kernel_release/kernel/include/linux/slab.h"
	.loc 8 499 0
	adrp	x0, kmalloc_caches+80
	mov	w1, 32960
.LBE269:
.LBE268:
.LBE267:
	.loc 1 363 0
	stp	x29, x30, [sp, -32]!
	.cfi_def_cfa_offset 32
	.cfi_offset 29, -32
	.cfi_offset 30, -24
.LBB276:
.LBB273:
.LBB270:
	.loc 8 499 0
	movk	w1, 0x240, lsl 16
	mov	x2, 536
.LBE270:
.LBE273:
.LBE276:
	.loc 1 363 0
	add	x29, sp, 0
	.cfi_def_cfa_register 29
.LBB277:
.LBB274:
.LBB271:
	.loc 8 499 0
	ldr	x0, [x0,#:lo12:kmalloc_caches+80]
.LBE271:
.LBE274:
.LBE277:
	.loc 1 363 0
	str	x19, [sp,16]
	.cfi_offset 19, -16
.LBB278:
.LBB275:
.LBB272:
	.loc 8 499 0
	bl	kmem_cache_alloc_trace
.LVL160:
	mov	x19, x0
.LBE272:
.LBE275:
.LBE278:
	.loc 1 367 0
	cbz	x0, .L128
	.loc 1 372 0
	add	x4, x0, 40
.LBB279:
.LBB280:
.LBB281:
.LBB282:
.LBB283:
	.file 9 "/mnt/disk/jenkins/ci/workspace/chipset_pipeline_release/opensource/component_code/vendor/huawei/extra/build/build_script/kirin_kernel_release/kernel/include/linux/compiler.h"
	.loc 9 276 0
	str	x4, [x0,40]
.LBE283:
.LBE282:
.LBE281:
.LBE280:
.LBE279:
	.loc 1 372 0
	mov	x1, 68719476704
	str	x1, [x19,32]
	.loc 1 372 0 is_stmt 0 discriminator 2
	add	x0, x0, 64
	mov	w1, 2097152
.LBB285:
.LBB284:
	.file 10 "/mnt/disk/jenkins/ci/workspace/chipset_pipeline_release/opensource/component_code/vendor/huawei/extra/build/build_script/kirin_kernel_release/kernel/include/linux/list.h"
	.loc 10 28 0 is_stmt 1
	str	x4, [x4,8]
.LBE284:
.LBE285:
	.loc 1 372 0
	adrp	x4, bkops_idle_work_func
	.loc 1 372 0 is_stmt 0 discriminator 2
	mov	x2, 0
	.loc 1 372 0
	add	x4, x4, :lo12:bkops_idle_work_func
	.loc 1 372 0 discriminator 2
	mov	x3, 0
	.loc 1 372 0
	str	x4, [x19,56]
	.loc 1 372 0 discriminator 2
	bl	init_timer_key
.LVL161:
	.loc 1 372 0
	add	x2, x19, 32
	adrp	x0, delayed_work_timer_fn
	add	x0, x0, :lo12:delayed_work_timer_fn
	str	x2, [x19,96]
	.loc 1 373 0 is_stmt 1
	mov	x2, 1000
	.loc 1 375 0
	mov	x1, 536870912
	.loc 1 372 0
	str	x0, [x19,88]
	.loc 1 378 0
	mov	x0, x19
	.loc 1 373 0
	str	x2, [x19,136]
	.loc 1 374 0
	mov	x2, 3600
	.loc 1 375 0
	str	x1, [x19,296]
	.loc 1 374 0
	str	x2, [x19,280]
	.loc 1 376 0
	str	x1, [x19,312]
.L127:
	.loc 1 379 0
	ldr	x19, [sp,16]
	.cfi_remember_state
	.cfi_restore 19
	ldp	x29, x30, [sp], 32
	.cfi_restore 30
	.cfi_restore 29
	.cfi_def_cfa 31, 0
	ret
.L128:
	.cfi_restore_state
	.loc 1 368 0
	adrp	x0, .LC5
	add	x0, x0, :lo12:.LC5
	bl	printk
.LVL162:
	.loc 1 369 0
	mov	x0, 0
	b	.L127
	.cfi_endproc
.LFE2925:
	.size	hisi_bkops_alloc, .-hisi_bkops_alloc
	.align	2
	.global	hisi_bkops_enable
	.type	hisi_bkops_enable, %function
hisi_bkops_enable:
.LFB2932:
	.loc 1 465 0
	.cfi_startproc
.LVL163:
	stp	x29, x30, [sp, -80]!
	.cfi_def_cfa_offset 80
	.cfi_offset 29, -80
	.cfi_offset 30, -72
	add	x29, sp, 0
	.cfi_def_cfa_register 29
	stp	x19, x20, [sp,16]
	stp	x21, x22, [sp,32]
	stp	x23, x24, [sp,48]
	str	x25, [sp,64]
	.cfi_offset 19, -64
	.cfi_offset 20, -56
	.cfi_offset 21, -48
	.cfi_offset 22, -40
	.cfi_offset 23, -32
	.cfi_offset 24, -24
	.cfi_offset 25, -16
	.loc 1 465 0
	mov	x19, x1
	mov	x24, x0
	mov	x25, x2
	.loc 1 467 0
	bl	hisi_blk_get_lld
.LVL164:
	mov	x21, x0
.LVL165:
	.loc 1 469 0
	ldr	x0, [x0,24]
	.loc 1 466 0
	add	x20, x19, 144
	.loc 1 469 0
	tbz	x0, 4, .L144
	.loc 1 474 0
	adrp	x22, .LANCHOR1
	add	x23, x22, :lo12:.LANCHOR1
	ldr	w0, [x23,12]
	cbz	w0, .L145
.L132:
	.loc 1 483 0
	ldr	w0, [x19]
	sub	w0, w0, #1
	cmp	w0, 2
	bhi	.L146
	.loc 1 489 0
	ldr	x0, [x19,8]
	cbz	x0, .L147
	.loc 1 494 0
	mov	x0, x19
	mov	x1, x25
	bl	hisi_bkops_add_debugfs
.LVL166:
	cbnz	w0, .L148
.L136:
	.loc 1 498 0
	adrp	x0, .LC11
	.loc 1 499 0
	adrp	x1, bkops_io_busy_idle_notify_handler
	.loc 1 497 0
	str	x24, [x19,24]
	.loc 1 498 0
	add	x0, x0, :lo12:.LC11
	.loc 1 499 0
	add	x1, x1, :lo12:bkops_io_busy_idle_notify_handler
	.loc 1 498 0
	str	x0, [x19,144]
	.loc 1 499 0
	str	x1, [x20,88]
	.loc 1 504 0
	mov	x0, x21
	.loc 1 501 0
	str	xzr, [x20,64]
	.loc 1 504 0
	mov	x1, x20
	.loc 1 502 0
	str	x19, [x20,96]
	.loc 1 504 0
	bl	blk_lld_busy_idle_event_subscriber
.LVL167:
	mov	w22, w0
	cbnz	w0, .L137
.LBB293:
.LBB294:
	.loc 1 451 0
	adrp	x0, .LC12
	mov	x1, 0
	add	x0, x0, :lo12:.LC12
	bl	proc_mkdir
.LVL168:
	mov	x21, x0
.LVL169:
	.loc 1 452 0
	cbz	x0, .L149
.LBB295:
.LBB296:
	.file 11 "/mnt/disk/jenkins/ci/workspace/chipset_pipeline_release/opensource/component_code/vendor/huawei/extra/build/build_script/kirin_kernel_release/kernel/include/linux/proc_fs.h"
	.loc 11 34 0
	adrp	x20, .LANCHOR2
	mov	x2, x0
	add	x20, x20, :lo12:.LANCHOR2
	adrp	x0, .LC14
	add	x3, x20, 64
	mov	w1, 432
	mov	x4, 0
	add	x0, x0, :lo12:.LC14
	bl	proc_create_data
.LVL170:
.LBE296:
.LBE295:
	.loc 1 459 0
	adrp	x0, .LC15
	mov	w1, 288
	add	x0, x0, :lo12:.LC15
	mov	x2, x21
	add	x3, x20, 304
	mov	x4, x19
	bl	proc_create_data
.LVL171:
.L143:
.LBE294:
.LBE293:
	.loc 1 516 0
	mov	w0, w22
	ldr	x25, [sp,64]
	.cfi_remember_state
	.cfi_restore 25
.LVL172:
	ldp	x19, x20, [sp,16]
	.cfi_restore 20
	.cfi_restore 19
.LVL173:
	ldp	x21, x22, [sp,32]
	.cfi_restore 22
	.cfi_restore 21
.LVL174:
	ldp	x23, x24, [sp,48]
	.cfi_restore 24
	.cfi_restore 23
.LVL175:
	ldp	x29, x30, [sp], 80
	.cfi_restore 30
	.cfi_restore 29
	.cfi_def_cfa 31, 0
	ret
.LVL176:
.L145:
	.cfi_restore_state
.LBB298:
.LBB299:
	.loc 1 350 0
	adrp	x0, .LC7
	mov	w1, 24
	add	x0, x0, :lo12:.LC7
	mov	w2, 0
	mov	x3, 0
	mov	x4, 0
	bl	__alloc_workqueue_key
.LVL177:
	str	x0, [x22,#:lo12:.LANCHOR1]
	.loc 1 353 0
	cbz	x0, .L133
.LBB300:
	.loc 1 354 0
	adrp	x22, .LANCHOR0
	add	x22, x22, :lo12:.LANCHOR0
	add	x0, x22, 80
	bl	register_pm_notifier
.LVL178:
.LBE300:
	.loc 1 355 0
	add	x0, x22, 104
	bl	register_reboot_notifier
.LVL179:
.LBE299:
.LBE298:
	.loc 1 480 0
	mov	w0, 1
	str	w0, [x23,12]
	b	.L132
.L144:
	.loc 1 470 0
	adrp	x0, .LC6
	add	x0, x0, :lo12:.LC6
	bl	printk
.LVL180:
.L131:
	.loc 1 514 0
	mov	x0, x19
	.loc 1 515 0
	mov	w22, -1
	.loc 1 514 0
	bl	kfree
.LVL181:
	.loc 1 516 0
	ldr	x25, [sp,64]
	.cfi_remember_state
	.cfi_restore 25
.LVL182:
	mov	w0, w22
	ldp	x19, x20, [sp,16]
	.cfi_restore 19
	.cfi_restore 20
.LVL183:
	ldp	x21, x22, [sp,32]
	.cfi_restore 21
	.cfi_restore 22
.LVL184:
	ldp	x23, x24, [sp,48]
	.cfi_restore 23
	.cfi_restore 24
.LVL185:
	ldp	x29, x30, [sp], 80
	.cfi_restore 29
	.cfi_restore 30
	.cfi_def_cfa 31, 0
	ret
.LVL186:
.L137:
	.cfi_restore_state
	.loc 1 512 0
	mov	x0, x19
	bl	hisi_bkops_remove_debugfs
.LVL187:
	b	.L131
.L133:
	.loc 1 476 0
	adrp	x1, .LANCHOR2
	adrp	x0, .LC16
	add	x1, x1, :lo12:.LANCHOR2
	mov	w2, 477
	add	x1, x1, 544
	add	x0, x0, :lo12:.LC16
	bl	printk
.LVL188:
	.loc 1 478 0
	b	.L131
.L148:
	.loc 1 495 0
	adrp	x0, .LC10
	add	x0, x0, :lo12:.LC10
	bl	printk
.LVL189:
	b	.L136
.L147:
	.loc 1 490 0
	adrp	x0, .LC9
	add	x0, x0, :lo12:.LC9
	bl	printk
.LVL190:
	.loc 1 491 0
	b	.L131
.L146:
	.loc 1 485 0
	adrp	x0, .LC8
	add	x0, x0, :lo12:.LC8
	bl	printk
.LVL191:
	.loc 1 486 0
	b	.L131
.LVL192:
.L149:
.LBB301:
.LBB297:
	.loc 1 453 0
	adrp	x1, .LANCHOR2
	adrp	x0, .LC13
.LVL193:
	add	x1, x1, :lo12:.LANCHOR2
	mov	w2, 453
	add	x1, x1, 32
	add	x0, x0, :lo12:.LC13
	bl	printk
.LVL194:
	b	.L143
.LBE297:
.LBE301:
	.cfi_endproc
.LFE2932:
	.size	hisi_bkops_enable, .-hisi_bkops_enable
	.section	.rodata
	.align	3
.LANCHOR2 = . + 0
	.type	__func__.35507, %object
	.size	__func__.35507, 32
__func__.35507:
	.string	"hisi_bkops_manual_gc_proc_write"
	.type	__func__.35523, %object
	.size	__func__.35523, 31
__func__.35523:
	.string	"hisi_bkops_manual_gc_proc_init"
	.zero	1
	.type	hisi_bkops_manual_gc_fops, %object
	.size	hisi_bkops_manual_gc_fops, 240
hisi_bkops_manual_gc_fops:
	.zero	8
	.xword	seq_lseek
	.xword	seq_read
	.xword	hisi_bkops_manual_gc_proc_write
	.zero	64
	.xword	hisi_bkops_manual_gc_proc_open
	.zero	8
	.xword	single_release
	.zero	120
	.type	hisi_bkops_status_fops, %object
	.size	hisi_bkops_status_fops, 240
hisi_bkops_status_fops:
	.zero	8
	.xword	seq_lseek
	.xword	seq_read
	.zero	72
	.xword	hisi_bkops_status_proc_open
	.zero	8
	.xword	single_release
	.zero	120
	.type	__func__.35532, %object
	.size	__func__.35532, 18
__func__.35532:
	.string	"hisi_bkops_enable"
	.data
	.align	3
.LANCHOR0 = . + 0
	.type	bkops_lock, %object
	.size	bkops_lock, 72
bkops_lock:
	.word	1
	.zero	4
	.hword	0
	.hword	0
	.word	-559067475
	.word	-1
	.zero	4
	.xword	-1
	.xword	bkops_lock+32
	.xword	bkops_lock+32
	.zero	16
	.xword	0
	.type	bkops_enabled, %object
	.size	bkops_enabled, 4
bkops_enabled:
	.word	1
	.zero	4
	.type	bkops_pm_callback_nb.35486, %object
	.size	bkops_pm_callback_nb.35486, 24
bkops_pm_callback_nb.35486:
	.xword	bkops_pm_callback
	.zero	8
	.word	0
	.zero	4
	.type	bkops_notifier, %object
	.size	bkops_notifier, 24
bkops_notifier:
	.xword	bkops_notify_reboot
	.xword	0
	.word	2147483647
	.zero	4
	.section	.rodata.str1.8,"aMS",%progbits,1
	.align	3
.LC0:
	.string	"%d\n"
	.zero	4
.LC1:
	.string	"\0013[BKOPS]%s %d: input error.\n"
	.zero	2
.LC2:
	.string	"\0013[BKOPS]hisi_bkops_query failed!\n"
	.zero	5
.LC3:
	.string	"\0013[BKOPS]hisi_bkops_start failed!\n"
	.zero	5
.LC4:
	.string	"\0013[BKOPS]bkops_status_max %d is too big!\n"
	.zero	6
.LC5:
	.string	"\0013[BKOPS]Failed to alloc bkops_func\n"
	.zero	3
.LC6:
	.string	"\0013[BKOPS]Busy Idle was not enabled!\n"
	.zero	3
.LC7:
	.string	"bkops_workqueue"
.LC8:
	.string	"\0013[BKOPS]bkops dev type not specified!\n"
.LC9:
	.string	"\0013[BKOPS]bkops_ops is NULL!\n"
	.zero	3
.LC10:
	.string	"\0013[BKOPS]Failed to create mmc bkops debugfs!\n"
	.zero	2
.LC11:
	.string	"hisi_bkops"
	.zero	5
.LC12:
	.string	"block"
	.zero	2
.LC13:
	.string	"\0013[BKOPS]%s %d: proc mk error.\n"
.LC14:
	.string	"manual_gc"
	.zero	6
.LC15:
	.string	"status"
	.zero	1
.LC16:
	.string	"\0013[BKOPS]%s %d hisi_bkops_init failed!\n"
	.bss
	.align	3
.LANCHOR1 = . + 0
	.type	bkops_workqueue_g, %object
	.size	bkops_workqueue_g, 8
bkops_workqueue_g:
	.zero	8
	.type	user_manual_gc, %object
	.size	user_manual_gc, 1
user_manual_gc:
	.zero	1
	.zero	3
	.type	hisi_bkops_inited, %object
	.size	hisi_bkops_inited, 4
hisi_bkops_inited:
	.zero	4
	.text
.Letext0:
	.file 12 "/mnt/disk/jenkins/ci/workspace/chipset_pipeline_release/opensource/component_code/vendor/huawei/extra/build/build_script/kirin_kernel_release/kernel/include/uapi/asm-generic/int-ll64.h"
	.file 13 "/mnt/disk/jenkins/ci/workspace/chipset_pipeline_release/opensource/component_code/vendor/huawei/extra/build/build_script/kirin_kernel_release/kernel/include/asm-generic/int-ll64.h"
	.file 14 "/mnt/disk/jenkins/ci/workspace/chipset_pipeline_release/opensource/component_code/vendor/huawei/extra/build/build_script/kirin_kernel_release/kernel/include/uapi/asm-generic/posix_types.h"
	.file 15 "/mnt/disk/jenkins/ci/workspace/chipset_pipeline_release/opensource/component_code/vendor/huawei/extra/build/build_script/kirin_kernel_release/kernel/include/linux/types.h"
	.file 16 "/mnt/disk/jenkins/ci/workspace/chipset_pipeline_release/opensource/component_code/vendor/huawei/extra/build/build_script/kirin_kernel_release/kernel/include/linux/export.h"
	.file 17 "/mnt/disk/jenkins/ci/workspace/chipset_pipeline_release/opensource/component_code/vendor/huawei/extra/build/build_script/kirin_kernel_release/kernel/include/asm-generic/bug.h"
	.file 18 "/mnt/disk/jenkins/ci/workspace/chipset_pipeline_release/opensource/component_code/vendor/huawei/extra/build/build_script/kirin_kernel_release/kernel/include/linux/restart_block.h"
	.file 19 "/mnt/disk/jenkins/ci/workspace/chipset_pipeline_release/opensource/component_code/vendor/huawei/extra/build/build_script/kirin_kernel_release/kernel/include/uapi/linux/time.h"
	.file 20 "/mnt/disk/jenkins/ci/workspace/chipset_pipeline_release/opensource/component_code/vendor/huawei/extra/build/build_script/kirin_kernel_release/kernel/arch/arm64/include/asm/compat.h"
	.file 21 "/mnt/disk/jenkins/ci/workspace/chipset_pipeline_release/opensource/component_code/vendor/huawei/extra/build/build_script/kirin_kernel_release/kernel/arch/arm64/include/asm/thread_info.h"
	.file 22 "/mnt/disk/jenkins/ci/workspace/chipset_pipeline_release/opensource/component_code/vendor/huawei/extra/build/build_script/kirin_kernel_release/kernel/arch/arm64/include/uapi/asm/ptrace.h"
	.file 23 "/mnt/disk/jenkins/ci/workspace/chipset_pipeline_release/opensource/component_code/vendor/huawei/extra/build/build_script/kirin_kernel_release/kernel/arch/arm64/include/asm/spinlock_types.h"
	.file 24 "/mnt/disk/jenkins/ci/workspace/chipset_pipeline_release/opensource/component_code/vendor/huawei/extra/build/build_script/kirin_kernel_release/kernel/include/linux/spinlock_types.h"
	.file 25 "/mnt/disk/jenkins/ci/workspace/chipset_pipeline_release/opensource/component_code/vendor/huawei/extra/build/build_script/kirin_kernel_release/kernel/include/linux/rwlock_types.h"
	.file 26 "/mnt/disk/jenkins/ci/workspace/chipset_pipeline_release/opensource/component_code/vendor/huawei/extra/build/build_script/kirin_kernel_release/kernel/arch/arm64/include/asm/fpsimd.h"
	.file 27 "/mnt/disk/jenkins/ci/workspace/chipset_pipeline_release/opensource/component_code/vendor/huawei/extra/build/build_script/kirin_kernel_release/kernel/include/linux/jump_label.h"
	.file 28 "/mnt/disk/jenkins/ci/workspace/chipset_pipeline_release/opensource/component_code/vendor/huawei/extra/build/build_script/kirin_kernel_release/kernel/include/asm-generic/atomic-long.h"
	.file 29 "/mnt/disk/jenkins/ci/workspace/chipset_pipeline_release/opensource/component_code/vendor/huawei/extra/build/build_script/kirin_kernel_release/kernel/arch/arm64/include/asm/processor.h"
	.file 30 "/mnt/disk/jenkins/ci/workspace/chipset_pipeline_release/opensource/component_code/vendor/huawei/extra/build/build_script/kirin_kernel_release/kernel/include/linux/cpumask.h"
	.file 31 "/mnt/disk/jenkins/ci/workspace/chipset_pipeline_release/opensource/component_code/vendor/huawei/extra/build/build_script/kirin_kernel_release/kernel/include/linux/seqlock.h"
	.file 32 "/mnt/disk/jenkins/ci/workspace/chipset_pipeline_release/opensource/component_code/vendor/huawei/extra/build/build_script/kirin_kernel_release/kernel/include/linux/wait.h"
	.file 33 "/mnt/disk/jenkins/ci/workspace/chipset_pipeline_release/opensource/component_code/vendor/huawei/extra/build/build_script/kirin_kernel_release/kernel/include/linux/completion.h"
	.file 34 "/mnt/disk/jenkins/ci/workspace/chipset_pipeline_release/opensource/component_code/vendor/huawei/extra/build/build_script/kirin_kernel_release/kernel/include/linux/time64.h"
	.file 35 "/mnt/disk/jenkins/ci/workspace/chipset_pipeline_release/opensource/component_code/vendor/huawei/extra/build/build_script/kirin_kernel_release/kernel/include/linux/ktime.h"
	.file 36 "/mnt/disk/jenkins/ci/workspace/chipset_pipeline_release/opensource/component_code/vendor/huawei/extra/build/build_script/kirin_kernel_release/kernel/include/linux/idr.h"
	.file 37 "/mnt/disk/jenkins/ci/workspace/chipset_pipeline_release/opensource/component_code/vendor/huawei/extra/build/build_script/kirin_kernel_release/kernel/include/linux/capability.h"
	.file 38 "/mnt/disk/jenkins/ci/workspace/chipset_pipeline_release/opensource/component_code/vendor/huawei/extra/build/build_script/kirin_kernel_release/kernel/include/linux/plist.h"
	.file 39 "/mnt/disk/jenkins/ci/workspace/chipset_pipeline_release/opensource/component_code/vendor/huawei/extra/build/build_script/kirin_kernel_release/kernel/include/linux/rbtree.h"
	.file 40 "/mnt/disk/jenkins/ci/workspace/chipset_pipeline_release/opensource/component_code/vendor/huawei/extra/build/build_script/kirin_kernel_release/kernel/include/linux/nodemask.h"
	.file 41 "/mnt/disk/jenkins/ci/workspace/chipset_pipeline_release/opensource/component_code/vendor/huawei/extra/build/build_script/kirin_kernel_release/kernel/include/linux/osq_lock.h"
	.file 42 "/mnt/disk/jenkins/ci/workspace/chipset_pipeline_release/opensource/component_code/vendor/huawei/extra/build/build_script/kirin_kernel_release/kernel/include/linux/rwsem.h"
	.file 43 "/mnt/disk/jenkins/ci/workspace/chipset_pipeline_release/opensource/component_code/vendor/huawei/extra/build/build_script/kirin_kernel_release/kernel/include/linux/sched.h"
	.file 44 "/mnt/disk/jenkins/ci/workspace/chipset_pipeline_release/opensource/component_code/vendor/huawei/extra/build/build_script/kirin_kernel_release/kernel/include/linux/mm_types.h"
	.file 45 "/mnt/disk/jenkins/ci/workspace/chipset_pipeline_release/opensource/component_code/vendor/huawei/extra/build/build_script/kirin_kernel_release/kernel/include/linux/lockdep.h"
	.file 46 "/mnt/disk/jenkins/ci/workspace/chipset_pipeline_release/opensource/component_code/vendor/huawei/extra/build/build_script/kirin_kernel_release/kernel/include/linux/uprobes.h"
	.file 47 "/mnt/disk/jenkins/ci/workspace/chipset_pipeline_release/opensource/component_code/vendor/huawei/extra/build/build_script/kirin_kernel_release/kernel/include/linux/timer.h"
	.file 48 "/mnt/disk/jenkins/ci/workspace/chipset_pipeline_release/opensource/component_code/vendor/huawei/extra/build/build_script/kirin_kernel_release/kernel/include/linux/uidgid.h"
	.file 49 "/mnt/disk/jenkins/ci/workspace/chipset_pipeline_release/opensource/component_code/vendor/huawei/extra/build/build_script/kirin_kernel_release/kernel/include/linux/sysctl.h"
	.file 50 "/mnt/disk/jenkins/ci/workspace/chipset_pipeline_release/opensource/component_code/vendor/huawei/extra/build/build_script/kirin_kernel_release/kernel/include/linux/stddef.h"
	.file 51 "/mnt/disk/jenkins/ci/workspace/chipset_pipeline_release/opensource/component_code/vendor/huawei/extra/build/build_script/kirin_kernel_release/kernel/arch/arm64/include/asm/pgtable-types.h"
	.file 52 "/mnt/disk/jenkins/ci/workspace/chipset_pipeline_release/opensource/component_code/vendor/huawei/extra/build/build_script/kirin_kernel_release/kernel/arch/arm64/include/asm/page.h"
	.file 53 "/mnt/disk/jenkins/ci/workspace/chipset_pipeline_release/opensource/component_code/vendor/huawei/extra/build/build_script/kirin_kernel_release/kernel/include/linux/pfn.h"
	.file 54 "/mnt/disk/jenkins/ci/workspace/chipset_pipeline_release/opensource/component_code/vendor/huawei/extra/build/build_script/kirin_kernel_release/kernel/include/linux/llist.h"
	.file 55 "/mnt/disk/jenkins/ci/workspace/chipset_pipeline_release/opensource/component_code/vendor/huawei/extra/build/build_script/kirin_kernel_release/kernel/include/linux/smp.h"
	.file 56 "/mnt/disk/jenkins/ci/workspace/chipset_pipeline_release/opensource/component_code/vendor/huawei/extra/build/build_script/kirin_kernel_release/kernel/arch/arm64/include/asm/smp.h"
	.file 57 "/mnt/disk/jenkins/ci/workspace/chipset_pipeline_release/opensource/component_code/vendor/huawei/extra/build/build_script/kirin_kernel_release/kernel/arch/arm64/include/asm/mmu.h"
	.file 58 "/mnt/disk/jenkins/ci/workspace/chipset_pipeline_release/opensource/component_code/vendor/huawei/extra/build/build_script/kirin_kernel_release/kernel/include/linux/fs.h"
	.file 59 "/mnt/disk/jenkins/ci/workspace/chipset_pipeline_release/opensource/component_code/vendor/huawei/extra/build/build_script/kirin_kernel_release/kernel/include/linux/mm.h"
	.file 60 "/mnt/disk/jenkins/ci/workspace/chipset_pipeline_release/opensource/component_code/vendor/huawei/extra/build/build_script/kirin_kernel_release/kernel/include/linux/user_namespace.h"
	.file 61 "/mnt/disk/jenkins/ci/workspace/chipset_pipeline_release/opensource/component_code/vendor/huawei/extra/build/build_script/kirin_kernel_release/kernel/include/asm-generic/cputime_jiffies.h"
	.file 62 "/mnt/disk/jenkins/ci/workspace/chipset_pipeline_release/opensource/component_code/vendor/huawei/extra/build/build_script/kirin_kernel_release/kernel/include/uapi/asm-generic/signal.h"
	.file 63 "/mnt/disk/jenkins/ci/workspace/chipset_pipeline_release/opensource/component_code/vendor/huawei/extra/build/build_script/kirin_kernel_release/kernel/include/uapi/asm-generic/signal-defs.h"
	.file 64 "/mnt/disk/jenkins/ci/workspace/chipset_pipeline_release/opensource/component_code/vendor/huawei/extra/build/build_script/kirin_kernel_release/kernel/include/uapi/asm-generic/siginfo.h"
	.file 65 "/mnt/disk/jenkins/ci/workspace/chipset_pipeline_release/opensource/component_code/vendor/huawei/extra/build/build_script/kirin_kernel_release/kernel/include/linux/signal.h"
	.file 66 "/mnt/disk/jenkins/ci/workspace/chipset_pipeline_release/opensource/component_code/vendor/huawei/extra/build/build_script/kirin_kernel_release/kernel/include/linux/pid.h"
	.file 67 "/mnt/disk/jenkins/ci/workspace/chipset_pipeline_release/opensource/component_code/vendor/huawei/extra/build/build_script/kirin_kernel_release/kernel/include/linux/mmzone.h"
	.file 68 "/mnt/disk/jenkins/ci/workspace/chipset_pipeline_release/opensource/component_code/vendor/huawei/extra/build/build_script/kirin_kernel_release/kernel/include/linux/mutex.h"
	.file 69 "/mnt/disk/jenkins/ci/workspace/chipset_pipeline_release/opensource/component_code/vendor/huawei/extra/build/build_script/kirin_kernel_release/kernel/include/linux/notifier.h"
	.file 70 "/mnt/disk/jenkins/ci/workspace/chipset_pipeline_release/opensource/component_code/vendor/huawei/extra/build/build_script/kirin_kernel_release/kernel/include/linux/seccomp.h"
	.file 71 "/mnt/disk/jenkins/ci/workspace/chipset_pipeline_release/opensource/component_code/vendor/huawei/extra/build/build_script/kirin_kernel_release/kernel/include/uapi/linux/resource.h"
	.file 72 "/mnt/disk/jenkins/ci/workspace/chipset_pipeline_release/opensource/component_code/vendor/huawei/extra/build/build_script/kirin_kernel_release/kernel/include/linux/timerqueue.h"
	.file 73 "/mnt/disk/jenkins/ci/workspace/chipset_pipeline_release/opensource/component_code/vendor/huawei/extra/build/build_script/kirin_kernel_release/kernel/include/linux/hrtimer.h"
	.file 74 "/mnt/disk/jenkins/ci/workspace/chipset_pipeline_release/opensource/component_code/vendor/huawei/extra/build/build_script/kirin_kernel_release/kernel/include/linux/task_io_accounting.h"
	.file 75 "/mnt/disk/jenkins/ci/workspace/chipset_pipeline_release/opensource/component_code/vendor/huawei/extra/build/build_script/kirin_kernel_release/kernel/include/linux/assoc_array.h"
	.file 76 "/mnt/disk/jenkins/ci/workspace/chipset_pipeline_release/opensource/component_code/vendor/huawei/extra/build/build_script/kirin_kernel_release/kernel/include/linux/key.h"
	.file 77 "/mnt/disk/jenkins/ci/workspace/chipset_pipeline_release/opensource/component_code/vendor/huawei/extra/build/build_script/kirin_kernel_release/kernel/include/linux/cred.h"
	.file 78 "/mnt/disk/jenkins/ci/workspace/chipset_pipeline_release/opensource/component_code/vendor/huawei/extra/build/build_script/kirin_kernel_release/kernel/include/linux/percpu-refcount.h"
	.file 79 "/mnt/disk/jenkins/ci/workspace/chipset_pipeline_release/opensource/component_code/vendor/huawei/extra/build/build_script/kirin_kernel_release/kernel/include/linux/rcu_sync.h"
	.file 80 "/mnt/disk/jenkins/ci/workspace/chipset_pipeline_release/opensource/component_code/vendor/huawei/extra/build/build_script/kirin_kernel_release/kernel/include/linux/percpu-rwsem.h"
	.file 81 "/mnt/disk/jenkins/ci/workspace/chipset_pipeline_release/opensource/component_code/vendor/huawei/extra/build/build_script/kirin_kernel_release/kernel/include/linux/bpf-cgroup.h"
	.file 82 "/mnt/disk/jenkins/ci/workspace/chipset_pipeline_release/opensource/component_code/vendor/huawei/extra/build/build_script/kirin_kernel_release/kernel/include/linux/cgroup-defs.h"
	.file 83 "/mnt/disk/jenkins/ci/workspace/chipset_pipeline_release/opensource/component_code/vendor/huawei/extra/build/build_script/kirin_kernel_release/kernel/include/linux/kernfs.h"
	.file 84 "/mnt/disk/jenkins/ci/workspace/chipset_pipeline_release/opensource/component_code/vendor/huawei/extra/build/build_script/kirin_kernel_release/kernel/include/linux/seq_file.h"
	.file 85 "/mnt/disk/jenkins/ci/workspace/chipset_pipeline_release/opensource/component_code/vendor/huawei/extra/build/build_script/kirin_kernel_release/kernel/include/uapi/linux/taskstats.h"
	.file 86 "/mnt/disk/jenkins/ci/workspace/chipset_pipeline_release/opensource/component_code/vendor/huawei/extra/build/build_script/kirin_kernel_release/kernel/include/linux/nsproxy.h"
	.file 87 "/mnt/disk/jenkins/ci/workspace/chipset_pipeline_release/opensource/component_code/vendor/huawei/extra/build/build_script/kirin_kernel_release/kernel/include/linux/bio.h"
	.file 88 "/mnt/disk/jenkins/ci/workspace/chipset_pipeline_release/opensource/component_code/vendor/huawei/extra/build/build_script/kirin_kernel_release/kernel/include/linux/blkdev.h"
	.file 89 "/mnt/disk/jenkins/ci/workspace/chipset_pipeline_release/opensource/component_code/vendor/huawei/extra/build/build_script/kirin_kernel_release/kernel/include/linux/swap.h"
	.file 90 "/mnt/disk/jenkins/ci/workspace/chipset_pipeline_release/opensource/component_code/vendor/huawei/extra/build/build_script/kirin_kernel_release/kernel/include/linux/backing-dev-defs.h"
	.file 91 "/mnt/disk/jenkins/ci/workspace/chipset_pipeline_release/opensource/component_code/vendor/huawei/extra/build/build_script/kirin_kernel_release/kernel/include/linux/iocontext.h"
	.file 92 "/mnt/disk/jenkins/ci/workspace/chipset_pipeline_release/opensource/component_code/vendor/huawei/extra/build/build_script/kirin_kernel_release/kernel/include/linux/kobject_ns.h"
	.file 93 "/mnt/disk/jenkins/ci/workspace/chipset_pipeline_release/opensource/component_code/vendor/huawei/extra/build/build_script/kirin_kernel_release/kernel/include/linux/stat.h"
	.file 94 "/mnt/disk/jenkins/ci/workspace/chipset_pipeline_release/opensource/component_code/vendor/huawei/extra/build/build_script/kirin_kernel_release/kernel/include/linux/sysfs.h"
	.file 95 "/mnt/disk/jenkins/ci/workspace/chipset_pipeline_release/opensource/component_code/vendor/huawei/extra/build/build_script/kirin_kernel_release/kernel/include/linux/kobject.h"
	.file 96 "/mnt/disk/jenkins/ci/workspace/chipset_pipeline_release/opensource/component_code/vendor/huawei/extra/build/build_script/kirin_kernel_release/kernel/include/linux/kref.h"
	.file 97 "/mnt/disk/jenkins/ci/workspace/chipset_pipeline_release/opensource/component_code/vendor/huawei/extra/build/build_script/kirin_kernel_release/kernel/include/linux/klist.h"
	.file 98 "/mnt/disk/jenkins/ci/workspace/chipset_pipeline_release/opensource/component_code/vendor/huawei/extra/build/build_script/kirin_kernel_release/kernel/include/linux/list_bl.h"
	.file 99 "/mnt/disk/jenkins/ci/workspace/chipset_pipeline_release/opensource/component_code/vendor/huawei/extra/build/build_script/kirin_kernel_release/kernel/include/linux/lockref.h"
	.file 100 "/mnt/disk/jenkins/ci/workspace/chipset_pipeline_release/opensource/component_code/vendor/huawei/extra/build/build_script/kirin_kernel_release/kernel/include/linux/dcache.h"
	.file 101 "/mnt/disk/jenkins/ci/workspace/chipset_pipeline_release/opensource/component_code/vendor/huawei/extra/build/build_script/kirin_kernel_release/kernel/include/linux/path.h"
	.file 102 "/mnt/disk/jenkins/ci/workspace/chipset_pipeline_release/opensource/component_code/vendor/huawei/extra/build/build_script/kirin_kernel_release/kernel/include/linux/shrinker.h"
	.file 103 "/mnt/disk/jenkins/ci/workspace/chipset_pipeline_release/opensource/component_code/vendor/huawei/extra/build/build_script/kirin_kernel_release/kernel/include/linux/list_lru.h"
	.file 104 "/mnt/disk/jenkins/ci/workspace/chipset_pipeline_release/opensource/component_code/vendor/huawei/extra/build/build_script/kirin_kernel_release/kernel/include/linux/radix-tree.h"
	.file 105 "/mnt/disk/jenkins/ci/workspace/chipset_pipeline_release/opensource/component_code/vendor/huawei/extra/build/build_script/kirin_kernel_release/kernel/include/uapi/linux/fiemap.h"
	.file 106 "/mnt/disk/jenkins/ci/workspace/chipset_pipeline_release/opensource/component_code/vendor/huawei/extra/build/build_script/kirin_kernel_release/kernel/include/linux/migrate_mode.h"
	.file 107 "/mnt/disk/jenkins/ci/workspace/chipset_pipeline_release/opensource/component_code/vendor/huawei/extra/build/build_script/kirin_kernel_release/kernel/include/linux/bvec.h"
	.file 108 "/mnt/disk/jenkins/ci/workspace/chipset_pipeline_release/opensource/component_code/vendor/huawei/extra/build/build_script/kirin_kernel_release/kernel/include/linux/blk_types.h"
	.file 109 "/mnt/disk/jenkins/ci/workspace/chipset_pipeline_release/opensource/component_code/vendor/huawei/extra/build/build_script/kirin_kernel_release/kernel/include/linux/delayed_call.h"
	.file 110 "/mnt/disk/jenkins/ci/workspace/chipset_pipeline_release/opensource/component_code/vendor/huawei/extra/build/build_script/kirin_kernel_release/kernel/include/linux/percpu_counter.h"
	.file 111 "/mnt/disk/jenkins/ci/workspace/chipset_pipeline_release/opensource/component_code/vendor/huawei/extra/build/build_script/kirin_kernel_release/kernel/include/linux/quota.h"
	.file 112 "/mnt/disk/jenkins/ci/workspace/chipset_pipeline_release/opensource/component_code/vendor/huawei/extra/build/build_script/kirin_kernel_release/kernel/include/linux/projid.h"
	.file 113 "/mnt/disk/jenkins/ci/workspace/chipset_pipeline_release/opensource/component_code/vendor/huawei/extra/build/build_script/kirin_kernel_release/kernel/include/linux/module.h"
	.file 114 "/mnt/disk/jenkins/ci/workspace/chipset_pipeline_release/opensource/component_code/vendor/huawei/extra/build/build_script/kirin_kernel_release/kernel/include/linux/writeback.h"
	.file 115 "/mnt/disk/jenkins/ci/workspace/chipset_pipeline_release/opensource/component_code/vendor/huawei/extra/build/build_script/kirin_kernel_release/kernel/include/linux/genhd.h"
	.file 116 "/mnt/disk/jenkins/ci/workspace/chipset_pipeline_release/opensource/component_code/vendor/huawei/extra/build/build_script/kirin_kernel_release/kernel/include/linux/nfs_fs_i.h"
	.file 117 "/mnt/disk/jenkins/ci/workspace/chipset_pipeline_release/opensource/component_code/vendor/huawei/extra/build/build_script/kirin_kernel_release/kernel/include/linux/statfs.h"
	.file 118 "/mnt/disk/jenkins/ci/workspace/chipset_pipeline_release/opensource/component_code/vendor/huawei/extra/build/build_script/kirin_kernel_release/kernel/include/linux/pinctrl/devinfo.h"
	.file 119 "/mnt/disk/jenkins/ci/workspace/chipset_pipeline_release/opensource/component_code/vendor/huawei/extra/build/build_script/kirin_kernel_release/kernel/include/linux/pm.h"
	.file 120 "/mnt/disk/jenkins/ci/workspace/chipset_pipeline_release/opensource/component_code/vendor/huawei/extra/build/build_script/kirin_kernel_release/kernel/include/linux/device.h"
	.file 121 "/mnt/disk/jenkins/ci/workspace/chipset_pipeline_release/opensource/component_code/vendor/huawei/extra/build/build_script/kirin_kernel_release/kernel/include/linux/pm_wakeup.h"
	.file 122 "/mnt/disk/jenkins/ci/workspace/chipset_pipeline_release/opensource/component_code/vendor/huawei/extra/build/build_script/kirin_kernel_release/kernel/arch/arm64/include/asm/device.h"
	.file 123 "/mnt/disk/jenkins/ci/workspace/chipset_pipeline_release/opensource/component_code/vendor/huawei/extra/build/build_script/kirin_kernel_release/kernel/include/linux/tracepoint-defs.h"
	.file 124 "/mnt/disk/jenkins/ci/workspace/chipset_pipeline_release/opensource/component_code/vendor/huawei/extra/build/build_script/kirin_kernel_release/kernel/include/linux/vmstat.h"
	.file 125 "/mnt/disk/jenkins/ci/workspace/chipset_pipeline_release/opensource/component_code/vendor/huawei/extra/build/build_script/kirin_kernel_release/kernel/include/linux/flex_proportions.h"
	.file 126 "/mnt/disk/jenkins/ci/workspace/chipset_pipeline_release/opensource/component_code/vendor/huawei/extra/build/build_script/kirin_kernel_release/kernel/include/linux/mempool.h"
	.file 127 "/mnt/disk/jenkins/ci/workspace/chipset_pipeline_release/opensource/component_code/vendor/huawei/extra/build/build_script/kirin_kernel_release/kernel/include/linux/bsg.h"
	.file 128 "/mnt/disk/jenkins/ci/workspace/chipset_pipeline_release/opensource/component_code/vendor/huawei/extra/build/build_script/kirin_kernel_release/kernel/include/linux/wbt.h"
	.file 129 "/mnt/disk/jenkins/ci/workspace/chipset_pipeline_release/opensource/component_code/vendor/huawei/extra/build/build_script/kirin_kernel_release/kernel/block/blk-mq.h"
	.file 130 "/mnt/disk/jenkins/ci/workspace/chipset_pipeline_release/opensource/component_code/vendor/huawei/extra/build/build_script/kirin_kernel_release/kernel/include/linux/elevator.h"
	.file 131 "/mnt/disk/jenkins/ci/workspace/chipset_pipeline_release/opensource/component_code/vendor/huawei/extra/build/build_script/kirin_kernel_release/kernel/include/linux/blk-mq.h"
	.file 132 "/mnt/disk/jenkins/ci/workspace/chipset_pipeline_release/opensource/component_code/vendor/huawei/extra/build/build_script/kirin_kernel_release/kernel/block/hisi-blk.h"
	.file 133 "/mnt/disk/jenkins/ci/workspace/chipset_pipeline_release/opensource/component_code/vendor/huawei/extra/build/build_script/kirin_kernel_release/kernel/block/blk.h"
	.file 134 "/mnt/disk/jenkins/ci/workspace/chipset_pipeline_release/opensource/component_code/vendor/huawei/extra/build/build_script/kirin_kernel_release/kernel/include/linux/sbitmap.h"
	.file 135 "/mnt/disk/jenkins/ci/workspace/chipset_pipeline_release/opensource/component_code/vendor/huawei/extra/build/build_script/kirin_kernel_release/kernel/include/linux/hisi-bkops-core.h"
	.file 136 "/mnt/disk/jenkins/ci/workspace/chipset_pipeline_release/opensource/component_code/vendor/huawei/extra/build/build_script/kirin_kernel_release/kernel/include/uapi/linux/elf.h"
	.file 137 "/mnt/disk/jenkins/ci/workspace/chipset_pipeline_release/opensource/component_code/vendor/huawei/extra/build/build_script/kirin_kernel_release/kernel/include/linux/moduleparam.h"
	.file 138 "/mnt/disk/jenkins/ci/workspace/chipset_pipeline_release/opensource/component_code/vendor/huawei/extra/build/build_script/kirin_kernel_release/kernel/include/linux/rbtree_latch.h"
	.file 139 "/mnt/disk/jenkins/ci/workspace/chipset_pipeline_release/opensource/component_code/vendor/huawei/extra/build/build_script/kirin_kernel_release/kernel/arch/arm64/include/asm/module.h"
	.file 140 "/mnt/disk/jenkins/ci/workspace/chipset_pipeline_release/opensource/component_code/vendor/huawei/extra/build/build_script/kirin_kernel_release/kernel/include/linux/cgroup.h"
	.file 141 "/mnt/disk/jenkins/ci/workspace/chipset_pipeline_release/opensource/component_code/vendor/huawei/extra/build/build_script/kirin_kernel_release/kernel/include/linux/ns_common.h"
	.file 142 "/mnt/disk/jenkins/ci/workspace/chipset_pipeline_release/opensource/component_code/vendor/huawei/extra/build/build_script/kirin_kernel_release/kernel/include/linux/suspend.h"
	.file 143 "/mnt/disk/jenkins/ci/workspace/chipset_pipeline_release/opensource/component_code/vendor/huawei/extra/build/build_script/kirin_kernel_release/kernel/include/asm-generic/bitops/builtin-__fls.h"
	.file 144 "/mnt/disk/jenkins/ci/workspace/chipset_pipeline_release/opensource/component_code/vendor/huawei/extra/build/build_script/kirin_kernel_release/kernel/include/asm-generic/bitops/fls64.h"
	.file 145 "/mnt/disk/jenkins/ci/workspace/chipset_pipeline_release/opensource/component_code/vendor/huawei/extra/build/build_script/kirin_kernel_release/kernel/include/linux/log2.h"
	.file 146 "/mnt/disk/jenkins/ci/workspace/chipset_pipeline_release/opensource/component_code/vendor/huawei/extra/build/build_script/kirin_kernel_release/kernel/include/asm-generic/getorder.h"
	.file 147 "/mnt/disk/jenkins/ci/workspace/chipset_pipeline_release/opensource/component_code/vendor/huawei/extra/build/build_script/kirin_kernel_release/kernel/include/linux/kasan-checks.h"
	.file 148 "/mnt/disk/jenkins/ci/workspace/chipset_pipeline_release/opensource/component_code/vendor/huawei/extra/build/build_script/kirin_kernel_release/kernel/include/linux/thread_info.h"
	.file 149 "/mnt/disk/jenkins/ci/workspace/chipset_pipeline_release/opensource/component_code/vendor/huawei/extra/build/build_script/kirin_kernel_release/kernel/arch/arm64/include/asm/cachetype.h"
	.file 150 "/mnt/disk/jenkins/ci/workspace/chipset_pipeline_release/opensource/component_code/vendor/huawei/extra/build/build_script/kirin_kernel_release/kernel/include/linux/printk.h"
	.file 151 "/mnt/disk/jenkins/ci/workspace/chipset_pipeline_release/opensource/component_code/vendor/huawei/extra/build/build_script/kirin_kernel_release/kernel/include/linux/kernel.h"
	.file 152 "/mnt/disk/jenkins/ci/workspace/chipset_pipeline_release/opensource/component_code/vendor/huawei/extra/build/build_script/kirin_kernel_release/kernel/arch/arm64/include/asm/stack_pointer.h"
	.file 153 "/mnt/disk/jenkins/ci/workspace/chipset_pipeline_release/opensource/component_code/vendor/huawei/extra/build/build_script/kirin_kernel_release/kernel/arch/arm64/include/asm/hwcap.h"
	.file 154 "/mnt/disk/jenkins/ci/workspace/chipset_pipeline_release/opensource/component_code/vendor/huawei/extra/build/build_script/kirin_kernel_release/kernel/arch/arm64/include/asm/cpufeature.h"
	.file 155 "/mnt/disk/jenkins/ci/workspace/chipset_pipeline_release/opensource/component_code/vendor/huawei/extra/build/build_script/kirin_kernel_release/kernel/arch/arm64/include/asm/virt.h"
	.file 156 "/mnt/disk/jenkins/ci/workspace/chipset_pipeline_release/opensource/component_code/vendor/huawei/extra/build/build_script/kirin_kernel_release/kernel/include/linux/highuid.h"
	.file 157 "/mnt/disk/jenkins/ci/workspace/chipset_pipeline_release/opensource/component_code/vendor/huawei/extra/build/build_script/kirin_kernel_release/kernel/arch/arm64/include/asm/memory.h"
	.file 158 "/mnt/disk/jenkins/ci/workspace/chipset_pipeline_release/opensource/component_code/vendor/huawei/extra/build/build_script/kirin_kernel_release/kernel/include/asm-generic/percpu.h"
	.file 159 "/mnt/disk/jenkins/ci/workspace/chipset_pipeline_release/opensource/component_code/vendor/huawei/extra/build/build_script/kirin_kernel_release/kernel/include/linux/debug_locks.h"
	.file 160 "/mnt/disk/jenkins/ci/workspace/chipset_pipeline_release/opensource/component_code/vendor/huawei/extra/build/build_script/kirin_kernel_release/kernel/include/asm-generic/pgtable.h"
	.file 161 "/mnt/disk/jenkins/ci/workspace/chipset_pipeline_release/opensource/component_code/vendor/huawei/extra/build/build_script/kirin_kernel_release/kernel/arch/arm64/include/asm/irq.h"
	.file 162 "/mnt/disk/jenkins/ci/workspace/chipset_pipeline_release/opensource/component_code/vendor/huawei/extra/build/build_script/kirin_kernel_release/kernel/arch/arm64/include/asm/hardirq.h"
	.file 163 "/mnt/disk/jenkins/ci/workspace/chipset_pipeline_release/opensource/component_code/vendor/huawei/extra/build/build_script/kirin_kernel_release/kernel/include/linux/freezer.h"
	.file 164 "/mnt/disk/jenkins/ci/workspace/chipset_pipeline_release/opensource/component_code/vendor/huawei/extra/build/build_script/kirin_kernel_release/kernel/include/linux/time.h"
	.file 165 "/mnt/disk/jenkins/ci/workspace/chipset_pipeline_release/opensource/component_code/vendor/huawei/extra/build/build_script/kirin_kernel_release/kernel/arch/arm64/include/asm/bitops.h"
	.file 166 "/mnt/disk/jenkins/ci/workspace/chipset_pipeline_release/opensource/component_code/vendor/huawei/extra/build/build_script/kirin_kernel_release/kernel/include/linux/reboot.h"
	.section	.note.GNU-stack,"",%progbits
