	.cpu generic+fp+simd
	.file	"nf_app_dl_monitor.c"
	.text
.Ltext0:
	.cfi_sections	.debug_frame
	.align	2
	.type	dl_timer, %function
dl_timer:
.LFB3917:
	.file 1 "/mnt/disk/jenkins/ci/workspace/chipset_pipeline_release/opensource/component_code/vendor/huawei/extra/build/build_script/kirin_kernel_release/kernel/drivers/huawei_platform/net/hw_netfilter/nf_app_dl_monitor.c"
	.loc 1 313 0
	.cfi_startproc
.LVL0:
	stp	x29, x30, [sp, -64]!
	.cfi_def_cfa_offset 64
	.cfi_offset 29, -64
	.cfi_offset 30, -56
	add	x29, sp, 0
	.cfi_def_cfa_register 29
	stp	x21, x22, [sp,32]
	stp	x19, x20, [sp,16]
	str	x23, [sp,48]
	.cfi_offset 21, -32
	.cfi_offset 22, -24
	.cfi_offset 19, -48
	.cfi_offset 20, -40
	.cfi_offset 23, -16
	adrp	x21, .LANCHOR0
	.loc 1 317 0
	cbz	x0, .L11
.L2:
	.loc 1 330 0
	adrp	x1, jiffies
	add	x21, x21, :lo12:.LANCHOR0
	add	x3, x21, 40
	.loc 1 331 0
	mov	x0, x3
.LVL1:
	.loc 1 330 0
	ldr	x1, [x1,#:lo12:jiffies]
	add	x1, x1, 40960
	add	x1, x1, 4040
	str	x1, [x21,56]
	.loc 1 331 0
	bl	add_timer
.LVL2:
	.loc 1 332 0
	ldr	x23, [sp,48]
	.cfi_remember_state
	.cfi_restore 23
	ldp	x19, x20, [sp,16]
	.cfi_restore 20
	.cfi_restore 19
	ldp	x21, x22, [sp,32]
	.cfi_restore 22
	.cfi_restore 21
	ldp	x29, x30, [sp], 64
	.cfi_restore 30
	.cfi_restore 29
	.cfi_def_cfa 31, 0
	ret
.LVL3:
.L11:
	.cfi_restore_state
.LBB317:
.LBB318:
	.file 2 "/mnt/disk/jenkins/ci/workspace/chipset_pipeline_release/opensource/component_code/vendor/huawei/extra/build/build_script/kirin_kernel_release/kernel/include/linux/spinlock.h"
	.loc 2 307 0
	add	x22, x21, :lo12:.LANCHOR0
	mov	x0, x22
.LVL4:
.LBE318:
.LBE317:
.LBB320:
	.loc 1 319 0
	add	x22, x22, 24
.LBE320:
.LBB321:
.LBB319:
	.loc 2 307 0
	bl	_raw_spin_lock_bh
.LVL5:
.LBE319:
.LBE321:
.LBB322:
	.loc 1 319 0
	ldr	x20, [x22]
.LBE322:
	.loc 1 322 0
	adrp	x0, .LC0
	.loc 1 319 0 discriminator 1
	cmp	x20, x22
	.loc 1 322 0
	add	x23, x0, :lo12:.LC0
.LBB323:
	.loc 1 319 0
	ldr	x19, [x20]
.LBE323:
	.loc 1 319 0 is_stmt 0 discriminator 1
	bne	.L9
	b	.L6
.L7:
	.loc 1 319 0 discriminator 2
	mov	x19, x1
.L9:
	.loc 1 320 0 is_stmt 1
	bl	get_cur_time
.LVL6:
	ldr	x1, [x20,16]
	mov	x2, 54464
	movk	x2, 0x1, lsl 16
	sub	x0, x0, x1
	cmp	x0, x2
	bhi	.L12
.L4:
	.loc 1 319 0 discriminator 1
	cmp	x19, x22
.LBB324:
	.loc 1 319 0 is_stmt 0 discriminator 2
	ldr	x1, [x19]
	mov	x20, x19
.LBE324:
	.loc 1 319 0 discriminator 1
	bne	.L7
.L6:
.LBB325:
.LBB326:
	.loc 2 352 0 is_stmt 1
	add	x0, x21, :lo12:.LANCHOR0
	bl	_raw_spin_unlock_bh
.LVL7:
	b	.L2
.L12:
.LBE326:
.LBE325:
.LBB327:
.LBB328:
.LBB329:
.LBB330:
	.file 3 "/mnt/disk/jenkins/ci/workspace/chipset_pipeline_release/opensource/component_code/vendor/huawei/extra/build/build_script/kirin_kernel_release/kernel/include/linux/list.h"
	.loc 3 119 0
	ldr	x4, [x20]
.LBE330:
.LBE329:
	.loc 3 125 0
	mov	x1, 256
.LBB341:
.LBB338:
	.loc 3 119 0
	ldr	x2, [x20,8]
.LBE338:
.LBE341:
	.loc 3 125 0
	movk	x1, 0xdead, lsl 48
	.loc 3 126 0
	mov	x3, 512
.LBE328:
.LBE327:
	.loc 1 322 0
	mov	x0, x23
.LBB346:
.LBB344:
.LBB342:
.LBB339:
.LBB331:
.LBB332:
	.loc 3 104 0
	str	x2, [x4,8]
.LBE332:
.LBE331:
.LBE339:
.LBE342:
	.loc 3 126 0
	movk	x3, 0xdead, lsl 48
.LBB343:
.LBB340:
.LBB337:
.LBB336:
.LBB333:
.LBB334:
.LBB335:
	.file 4 "/mnt/disk/jenkins/ci/workspace/chipset_pipeline_release/opensource/component_code/vendor/huawei/extra/build/build_script/kirin_kernel_release/kernel/include/linux/compiler.h"
	.loc 4 276 0
	str	x4, [x2]
.LBE335:
.LBE334:
.LBE333:
.LBE336:
.LBE337:
.LBE340:
.LBE343:
	.loc 3 125 0
	str	x1, [x20]
.LBE344:
.LBE346:
	.loc 1 322 0
	ldr	x2, [x20,96]
	ldr	w1, [x20,80]
.LBB347:
.LBB345:
	.loc 3 126 0
	str	x3, [x20,8]
.LBE345:
.LBE347:
	.loc 1 322 0
	bl	printk
.LVL8:
.LBB348:
.LBB349:
	.loc 1 276 0
	ldr	x0, [x20,96]
	bl	kfree
.LVL9:
	.loc 1 277 0
	mov	x0, x20
	bl	kfree
.LVL10:
	b	.L4
.LBE349:
.LBE348:
	.cfi_endproc
.LFE3917:
	.size	dl_timer, .-dl_timer
	.align	2
	.type	clear_appdl_rule.part.2, %function
clear_appdl_rule.part.2:
.LFB3927:
	.loc 1 131 0
	.cfi_startproc
	stp	x29, x30, [sp, -64]!
	.cfi_def_cfa_offset 64
	.cfi_offset 29, -64
	.cfi_offset 30, -56
	.loc 1 141 0
	adrp	x0, .LC1
	.loc 1 131 0
	add	x29, sp, 0
	.cfi_def_cfa_register 29
	stp	x21, x22, [sp,32]
	.cfi_offset 21, -32
	.cfi_offset 22, -24
	adrp	x21, .LANCHOR1
	adrp	x22, .LANCHOR0
	add	x21, x21, :lo12:.LANCHOR1
	add	x22, x22, :lo12:.LANCHOR0
	add	x21, x21, 1880
	str	x23, [sp,48]
	.loc 1 141 0
	add	x0, x0, :lo12:.LC1
	add	x22, x22, 88
	.cfi_offset 23, -16
	add	x23, x21, 4096
	.loc 1 131 0
	stp	x19, x20, [sp,16]
	.cfi_offset 19, -48
	.cfi_offset 20, -40
	.loc 1 141 0
	bl	printk
.LVL11:
.L15:
.LBB350:
.LBB351:
	.loc 2 307 0
	mov	x0, x22
	bl	_raw_spin_lock_bh
.LVL12:
.LBE351:
.LBE350:
.LBB352:
	.loc 1 144 0
	ldr	x1, [x21]
.LBE352:
	.loc 1 144 0 is_stmt 0 discriminator 1
	cmp	x1, x21
.LBB353:
	.loc 1 144 0
	ldr	x19, [x1]
.LBE353:
	.loc 1 144 0 discriminator 1
	beq	.L18
.L19:
.LBB354:
.LBB355:
.LBB356:
.LBB357:
	.loc 3 119 0 is_stmt 1
	ldr	x0, [x1,8]
.LBE357:
.LBE356:
	.loc 3 125 0
	mov	x3, 256
.LBB367:
.LBB365:
.LBB358:
.LBB359:
	.loc 3 104 0
	str	x0, [x19,8]
.LBE359:
.LBE358:
.LBE365:
.LBE367:
	.loc 3 126 0
	mov	x2, 512
	.loc 3 125 0
	movk	x3, 0xdead, lsl 48
	.loc 3 126 0
	movk	x2, 0xdead, lsl 48
.LBB368:
.LBB366:
.LBB364:
.LBB363:
.LBB360:
.LBB361:
.LBB362:
	.loc 4 276 0
	str	x19, [x0]
.LBE362:
.LBE361:
.LBE360:
.LBE363:
.LBE364:
.LBE366:
.LBE368:
.LBE355:
.LBE354:
	.loc 1 146 0
	mov	x0, x1
.LBB370:
.LBB369:
	.loc 3 125 0
	str	x3, [x1]
	.loc 3 126 0
	str	x2, [x1,8]
.LBE369:
.LBE370:
	.loc 1 146 0
	bl	kfree
.LVL13:
	.loc 1 144 0 discriminator 1
	cmp	x19, x21
	mov	x1, x19
	.loc 1 144 0 is_stmt 0 discriminator 3
	ldr	x19, [x19]
	.loc 1 144 0 discriminator 1
	bne	.L19
.L18:
.LBB371:
.LBB372:
	.loc 2 352 0 is_stmt 1
	mov	x0, x22
	add	x21, x21, 16
	add	x22, x22, 24
	bl	_raw_spin_unlock_bh
.LVL14:
.LBE372:
.LBE371:
	.loc 1 142 0 discriminator 1
	cmp	x21, x23
	bne	.L15
	.loc 1 150 0
	ldp	x19, x20, [sp,16]
	.cfi_restore 20
	.cfi_restore 19
	ldp	x21, x22, [sp,32]
	.cfi_restore 22
	.cfi_restore 21
	ldr	x23, [sp,48]
	.cfi_restore 23
	ldp	x29, x30, [sp], 64
	.cfi_restore 30
	.cfi_restore 29
	.cfi_def_cfa 31, 0
	ret
	.cfi_endproc
.LFE3927:
	.size	clear_appdl_rule.part.2, .-clear_appdl_rule.part.2
	.align	2
	.global	add_appdl_uid
	.type	add_appdl_uid, %function
add_appdl_uid:
.LFB3905:
	.loc 1 38 0
	.cfi_startproc
.LVL15:
	stp	x29, x30, [sp, -96]!
	.cfi_def_cfa_offset 96
	.cfi_offset 29, -96
	.cfi_offset 30, -88
	add	x29, sp, 0
	.cfi_def_cfa_register 29
	stp	x19, x20, [sp,16]
	stp	x21, x22, [sp,32]
	stp	x23, x24, [sp,48]
	str	x25, [sp,64]
	.cfi_offset 19, -80
	.cfi_offset 20, -72
	.cfi_offset 21, -64
	.cfi_offset 22, -56
	.cfi_offset 23, -48
	.cfi_offset 24, -40
	.cfi_offset 25, -32
	.loc 1 38 0
	mov	w19, w0
	.loc 1 40 0
	bl	get_hash_id
.LVL16:
	.loc 1 42 0
	cmp	w0, 255
	.loc 1 40 0
	mov	w1, w0
.LVL17:
	.loc 1 42 0
	bhi	.L38
.LVL18:
.LBB373:
.LBB374:
	.loc 2 307 0
	uxtw	x22, w0
.LVL19:
	adrp	x0, .LANCHOR0
	lsl	x21, x22, 5
	add	x0, x0, :lo12:.LANCHOR0
	add	x0, x0, 88
	sub	x21, x21, x22, lsl 3
.LBE374:
.LBE373:
.LBB378:
	.loc 1 47 0
	adrp	x24, .LANCHOR1
.LBE378:
.LBB379:
.LBB375:
	.loc 2 307 0
	add	x21, x0, x21
.LBE375:
.LBE379:
.LBB380:
	.loc 1 47 0
	add	x23, x24, :lo12:.LANCHOR1
.LBE380:
.LBB381:
.LBB376:
	.loc 2 307 0
	mov	x0, x21
.LBE376:
.LBE381:
.LBB382:
	.loc 1 47 0
	lsl	x25, x22, 4
	add	x23, x23, 1880
.LBE382:
.LBB383:
.LBB377:
	.loc 2 307 0
	str	x1, [x29,88]
	bl	_raw_spin_lock_bh
.LVL20:
.LBE377:
.LBE383:
.LBB384:
	.loc 1 47 0
	add	x20, x23, x25
.LBE384:
	.loc 1 47 0 is_stmt 0 discriminator 1
	ldr	x1, [x29,88]
.LVL21:
.LBB385:
	.loc 1 47 0
	ldr	x0, [x23,x25]
.LVL22:
.LBE385:
	.loc 1 47 0 discriminator 1
	cmp	x0, x20
	bne	.L31
	b	.L27
.L30:
.LBB386:
	.loc 1 47 0 discriminator 2
	ldr	x0, [x0]
.LBE386:
	.loc 1 47 0 discriminator 1
	cmp	x0, x20
	beq	.L27
.L31:
	.loc 1 48 0 is_stmt 1
	ldr	w2, [x0,16]
	cmp	w2, w19
	bne	.L30
	.loc 1 49 0
	adrp	x0, .LC3
.LVL23:
	mov	w2, w19
	add	x0, x0, :lo12:.LC3
	bl	printk
.LVL24:
.LBB387:
.LBB388:
	.loc 2 352 0
	mov	x0, x21
	bl	_raw_spin_unlock_bh
.LVL25:
.LBE388:
.LBE387:
	.loc 1 61 0
	ldr	x25, [sp,64]
	.cfi_remember_state
	.cfi_restore 25
	ldp	x19, x20, [sp,16]
	.cfi_restore 20
	.cfi_restore 19
.LVL26:
	ldp	x21, x22, [sp,32]
	.cfi_restore 22
	.cfi_restore 21
	ldp	x23, x24, [sp,48]
	.cfi_restore 24
	.cfi_restore 23
	ldp	x29, x30, [sp], 96
	.cfi_restore 30
	.cfi_restore 29
	.cfi_def_cfa 31, 0
	ret
.LVL27:
.L27:
	.cfi_restore_state
	.loc 1 54 0
	adrp	x0, .LC4
.LVL28:
	mov	w2, w19
	add	x0, x0, :lo12:.LC4
	bl	printk
.LVL29:
.LBB389:
.LBB390:
	.file 5 "/mnt/disk/jenkins/ci/workspace/chipset_pipeline_release/opensource/component_code/vendor/huawei/extra/build/build_script/kirin_kernel_release/kernel/include/linux/slab.h"
	.loc 5 499 0
	adrp	x0, kmalloc_caches+48
	mov	w1, 32
	mov	x2, 24
	movk	w1, 0x208, lsl 16
	ldr	x0, [x0,#:lo12:kmalloc_caches+48]
	bl	kmem_cache_alloc_trace
.LVL30:
.LBE390:
.LBE389:
	.loc 1 56 0
	cbz	x0, .L32
.LBB391:
.LBB392:
	.loc 3 78 0
	add	x24, x24, :lo12:.LANCHOR1
.LBE392:
.LBE391:
	.loc 1 57 0
	str	w19, [x0,16]
.LVL31:
.LBB399:
.LBB398:
	.loc 3 78 0
	add	x22, x24, x22, lsl 4
.LVL32:
	ldr	x1, [x22,1880]
.LBB393:
.LBB394:
	.loc 3 62 0
	str	x0, [x1,8]
	.loc 3 63 0
	str	x1, [x0]
	.loc 3 64 0
	str	x20, [x0,8]
.LBB395:
.LBB396:
.LBB397:
	.loc 4 276 0
	str	x0, [x23,x25]
.L32:
.LBE397:
.LBE396:
.LBE395:
.LBE394:
.LBE393:
.LBE398:
.LBE399:
.LBB400:
.LBB401:
	.loc 2 352 0
	mov	x0, x21
	bl	_raw_spin_unlock_bh
.LVL33:
.LBE401:
.LBE400:
	.loc 1 61 0
	ldr	x25, [sp,64]
	.cfi_remember_state
	.cfi_restore 25
	ldp	x19, x20, [sp,16]
	.cfi_restore 19
	.cfi_restore 20
.LVL34:
	ldp	x21, x22, [sp,32]
	.cfi_restore 21
	.cfi_restore 22
	ldp	x23, x24, [sp,48]
	.cfi_restore 23
	.cfi_restore 24
	ldp	x29, x30, [sp], 96
	.cfi_restore 29
	.cfi_restore 30
	.cfi_def_cfa 31, 0
	ret
.LVL35:
.L38:
	.cfi_restore_state
	.loc 1 43 0
	adrp	x0, .LC2
	add	x0, x0, :lo12:.LC2
	bl	printk
.LVL36:
	.loc 1 61 0
	ldr	x25, [sp,64]
	.cfi_restore 25
	ldp	x19, x20, [sp,16]
	.cfi_restore 19
	.cfi_restore 20
.LVL37:
	ldp	x21, x22, [sp,32]
	.cfi_restore 21
	.cfi_restore 22
	ldp	x23, x24, [sp,48]
	.cfi_restore 23
	.cfi_restore 24
	ldp	x29, x30, [sp], 96
	.cfi_restore 29
	.cfi_restore 30
	.cfi_def_cfa 31, 0
	ret
	.cfi_endproc
.LFE3905:
	.size	add_appdl_uid, .-add_appdl_uid
	.align	2
	.global	clear_appdl_uid
	.type	clear_appdl_uid, %function
clear_appdl_uid:
.LFB3906:
	.loc 1 64 0
	.cfi_startproc
.LVL38:
	stp	x29, x30, [sp, -48]!
	.cfi_def_cfa_offset 48
	.cfi_offset 29, -48
	.cfi_offset 30, -40
	add	x29, sp, 0
	.cfi_def_cfa_register 29
	stp	x19, x20, [sp,16]
	str	x21, [sp,32]
	.cfi_offset 19, -32
	.cfi_offset 20, -24
	.cfi_offset 21, -16
	.loc 1 64 0
	mov	w20, w0
	.loc 1 66 0
	bl	get_hash_id
.LVL39:
	.loc 1 68 0
	cmp	w0, 255
	bhi	.L49
.LBB402:
.LBB403:
	.loc 2 307 0
	uxtw	x19, w0
.LVL40:
	adrp	x21, .LANCHOR0
	lsl	x0, x19, 5
	add	x21, x21, :lo12:.LANCHOR0
	sub	x0, x0, x19, lsl 3
	add	x21, x21, 88
	add	x21, x21, x0
.LBE403:
.LBE402:
.LBB405:
	.loc 1 73 0
	lsl	x19, x19, 4
.LVL41:
.LBE405:
.LBB406:
.LBB404:
	.loc 2 307 0
	mov	x0, x21
	bl	_raw_spin_lock_bh
.LVL42:
.LBE404:
.LBE406:
.LBB407:
	.loc 1 73 0
	adrp	x0, .LANCHOR1
	add	x0, x0, :lo12:.LANCHOR1
	add	x0, x0, 1880
	add	x2, x0, x19
	ldr	x19, [x0,x19]
.LVL43:
.LBE407:
	.loc 1 73 0 is_stmt 0 discriminator 1
	cmp	x19, x2
	beq	.L42
.L46:
	.loc 1 74 0 is_stmt 1
	ldr	w0, [x19,16]
	cmp	w0, w20
	beq	.L50
.LBB408:
	.loc 1 73 0 discriminator 2
	ldr	x19, [x19]
.LBE408:
	.loc 1 73 0 is_stmt 0 discriminator 1
	cmp	x19, x2
	bne	.L46
.L42:
.LBB409:
.LBB410:
	.loc 2 352 0 is_stmt 1
	mov	x0, x21
	bl	_raw_spin_unlock_bh
.LVL44:
.L39:
.LBE410:
.LBE409:
	.loc 1 83 0
	ldp	x19, x20, [sp,16]
	.cfi_remember_state
	.cfi_restore 20
	.cfi_restore 19
.LVL45:
	ldr	x21, [sp,32]
	.cfi_restore 21
	ldp	x29, x30, [sp], 48
	.cfi_restore 30
	.cfi_restore 29
	.cfi_def_cfa 31, 0
	ret
.LVL46:
.L50:
	.cfi_restore_state
	.loc 1 75 0
	adrp	x0, .LC6
	mov	w1, w20
	add	x0, x0, :lo12:.LC6
	bl	printk
.LVL47:
.LBB411:
.LBB412:
.LBB413:
.LBB414:
	.loc 3 119 0
	ldr	x3, [x19]
.LBE414:
.LBE413:
	.loc 3 125 0
	mov	x2, 256
.LBB422:
.LBB420:
	.loc 3 119 0
	ldr	x0, [x19,8]
.LBE420:
.LBE422:
	.loc 3 126 0
	mov	x1, 512
	.loc 3 125 0
	movk	x2, 0xdead, lsl 48
	.loc 3 126 0
	movk	x1, 0xdead, lsl 48
.LBB423:
.LBB421:
.LBB415:
.LBB416:
	.loc 3 104 0
	str	x0, [x3,8]
.LBB417:
.LBB418:
.LBB419:
	.loc 4 276 0
	str	x3, [x0]
.LBE419:
.LBE418:
.LBE417:
.LBE416:
.LBE415:
.LBE421:
.LBE423:
.LBE412:
.LBE411:
.LBB425:
.LBB426:
	.loc 2 352 0
	mov	x0, x21
.LBE426:
.LBE425:
.LBB428:
.LBB424:
	.loc 3 125 0
	str	x2, [x19]
	.loc 3 126 0
	str	x1, [x19,8]
.LBE424:
.LBE428:
.LBB429:
.LBB427:
	.loc 2 352 0
	bl	_raw_spin_unlock_bh
.LVL48:
.LBE427:
.LBE429:
	.loc 1 78 0
	mov	x0, x19
	bl	kfree
.LVL49:
	.loc 1 79 0
	b	.L39
.LVL50:
.L49:
	.loc 1 69 0
	mov	w1, w0
	adrp	x0, .LC5
.LVL51:
	add	x0, x0, :lo12:.LC5
	bl	printk
.LVL52:
	.loc 1 70 0
	b	.L39
	.cfi_endproc
.LFE3906:
	.size	clear_appdl_uid, .-clear_appdl_uid
	.align	2
	.global	add_appdl_rule
	.type	add_appdl_rule, %function
add_appdl_rule:
.LFB3907:
	.loc 1 86 0
	.cfi_startproc
.LVL53:
	stp	x29, x30, [sp, -32]!
	.cfi_def_cfa_offset 32
	.cfi_offset 29, -32
	.cfi_offset 30, -24
	uxtb	w1, w1
	add	x29, sp, 0
	.cfi_def_cfa_register 29
	stp	x19, x20, [sp,16]
	.cfi_offset 19, -16
	.cfi_offset 20, -8
	.loc 1 86 0
	mov	x20, x0
	.loc 1 92 0
	cbz	x0, .L51
	.loc 1 96 0
	cbnz	w1, .L66
.L53:
	.loc 1 98 0
	ldrb	w0, [x20]
	cbnz	w0, .L55
	b	.L51
.LVL54:
.L67:
	.loc 1 101 0
	bl	simple_strtoull
.LVL55:
	.loc 1 103 0
	add	x20, x19, 1
.LVL56:
	.loc 1 102 0
	bl	add_appdl_uid
.LVL57:
	.loc 1 98 0
	ldrb	w0, [x19]
	cbz	w0, .L51
.LVL58:
.L55:
	.loc 1 99 0
	mov	w1, 59
.LVL59:
	mov	x0, x20
	bl	strchr
.LVL60:
	mov	x19, x0
	.loc 1 101 0
	mov	x1, 0
	mov	x0, x20
	mov	w2, 10
	.loc 1 100 0
	cbnz	x19, .L67
.LVL61:
.L51:
	.loc 1 108 0
	ldp	x19, x20, [sp,16]
	.cfi_remember_state
	.cfi_restore 20
	.cfi_restore 19
.LVL62:
	ldp	x29, x30, [sp], 32
	.cfi_restore 30
	.cfi_restore 29
	.cfi_def_cfa 31, 0
	ret
.L66:
	.cfi_restore_state
.LBB430:
.LBB431:
	bl	clear_appdl_rule.part.2
.LVL63:
	b	.L53
.LBE431:
.LBE430:
	.cfi_endproc
.LFE3907:
	.size	add_appdl_rule, .-add_appdl_rule
	.align	2
	.global	clear_appdl_rule_string
	.type	clear_appdl_rule_string, %function
clear_appdl_rule_string:
.LFB3908:
	.loc 1 111 0
	.cfi_startproc
.LVL64:
	stp	x29, x30, [sp, -32]!
	.cfi_def_cfa_offset 32
	.cfi_offset 29, -32
	.cfi_offset 30, -24
	add	x29, sp, 0
	.cfi_def_cfa_register 29
	stp	x19, x20, [sp,16]
	.cfi_offset 19, -16
	.cfi_offset 20, -8
	.loc 1 111 0
	mov	x20, x0
	.loc 1 117 0
	cbz	x0, .L68
	mov	x19, x0
.LVL65:
	.loc 1 122 0
	mov	w1, 59
	mov	x0, x20
	.loc 1 121 0 discriminator 1
	ldrb	w2, [x19]
	cbz	w2, .L68
.L71:
	.loc 1 122 0
	bl	strchr
.LVL66:
	mov	x19, x0
	.loc 1 124 0
	mov	x1, 0
.LVL67:
	mov	x0, x20
	mov	w2, 10
	.loc 1 126 0
	add	x20, x19, 1
	.loc 1 123 0
	cbz	x19, .L68
	.loc 1 124 0
	bl	simple_strtoull
.LVL68:
	.loc 1 125 0
	bl	clear_appdl_uid
.LVL69:
	.loc 1 121 0 discriminator 1
	ldrb	w2, [x19]
	.loc 1 122 0
	mov	x0, x20
	mov	w1, 59
	.loc 1 121 0 discriminator 1
	cbnz	w2, .L71
.L68:
	.loc 1 129 0
	ldp	x19, x20, [sp,16]
	.cfi_restore 20
	.cfi_restore 19
.LVL70:
	ldp	x29, x30, [sp], 32
	.cfi_restore 30
	.cfi_restore 29
	.cfi_def_cfa 31, 0
	ret
	.cfi_endproc
.LFE3908:
	.size	clear_appdl_rule_string, .-clear_appdl_rule_string
	.align	2
	.global	clear_appdl_rule
	.type	clear_appdl_rule, %function
clear_appdl_rule:
.LFB3909:
	.loc 1 132 0
	.cfi_startproc
.LVL71:
	stp	x29, x30, [sp, -16]!
	.cfi_def_cfa_offset 16
	.cfi_offset 29, -16
	.cfi_offset 30, -8
	add	x29, sp, 0
	.cfi_def_cfa_register 29
	.loc 1 137 0
	cbnz	w0, .L79
	.loc 1 138 0
	mov	x0, x1
.LVL72:
	bl	clear_appdl_rule_string
.LVL73:
.L78:
	.loc 1 150 0
	ldp	x29, x30, [sp], 16
	.cfi_remember_state
	.cfi_restore 30
	.cfi_restore 29
	.cfi_def_cfa 31, 0
	ret
.LVL74:
.L79:
	.cfi_restore_state
	bl	clear_appdl_rule.part.2
.LVL75:
	b	.L78
	.cfi_endproc
.LFE3909:
	.size	clear_appdl_rule, .-clear_appdl_rule
	.align	2
	.global	output_appdl_rule
	.type	output_appdl_rule, %function
output_appdl_rule:
.LFB3910:
	.loc 1 153 0
	.cfi_startproc
	stp	x29, x30, [sp, -64]!
	.cfi_def_cfa_offset 64
	.cfi_offset 29, -64
	.cfi_offset 30, -56
	.loc 1 157 0
	adrp	x0, .LC7
	.loc 1 153 0
	add	x29, sp, 0
	.cfi_def_cfa_register 29
	.loc 1 157 0
	add	x0, x0, :lo12:.LC7
	.loc 1 153 0
	stp	x19, x20, [sp,16]
	.cfi_offset 19, -48
	.cfi_offset 20, -40
	adrp	x19, .LANCHOR1
	str	x23, [sp,48]
	stp	x21, x22, [sp,32]
	.cfi_offset 23, -16
	.cfi_offset 21, -32
	.cfi_offset 22, -24
	add	x19, x19, :lo12:.LANCHOR1
	.loc 1 157 0
	bl	printk
.LVL76:
	adrp	x20, .LANCHOR0
	add	x19, x19, 1880
	add	x20, x20, :lo12:.LANCHOR0
	.loc 1 161 0
	adrp	x0, .LC8
	add	x20, x20, 88
	add	x22, x19, 4096
	add	x23, x0, :lo12:.LC8
.LVL77:
.L83:
.LBB432:
.LBB433:
	.loc 2 307 0
	mov	x0, x20
	bl	_raw_spin_lock_bh
.LVL78:
.LBE433:
.LBE432:
.LBB434:
	.loc 1 160 0
	ldr	x21, [x19]
.LBE434:
	.loc 1 160 0 is_stmt 0 discriminator 1
	cmp	x21, x19
	bne	.L85
.L86:
.LBB435:
.LBB436:
	.loc 2 352 0 is_stmt 1
	mov	x0, x20
	add	x19, x19, 16
	add	x20, x20, 24
	bl	_raw_spin_unlock_bh
.LVL79:
.LBE436:
.LBE435:
	.loc 1 158 0 discriminator 1
	cmp	x19, x22
	bne	.L83
	.loc 1 166 0
	adrp	x0, .LC9
	add	x0, x0, :lo12:.LC9
	bl	printk
.LVL80:
	.loc 1 168 0
	ldr	x23, [sp,48]
	.cfi_remember_state
	.cfi_restore 23
	ldp	x19, x20, [sp,16]
	.cfi_restore 20
	.cfi_restore 19
	ldp	x21, x22, [sp,32]
	.cfi_restore 22
	.cfi_restore 21
.LVL81:
	ldp	x29, x30, [sp], 64
	.cfi_restore 30
	.cfi_restore 29
	.cfi_def_cfa 31, 0
	ret
.LVL82:
.L85:
	.cfi_restore_state
	.loc 1 161 0
	ldr	w1, [x21,16]
	mov	x0, x23
	bl	printk
.LVL83:
.LBB437:
	.loc 1 160 0 discriminator 3
	ldr	x21, [x21]
.LBE437:
	.loc 1 160 0 is_stmt 0 discriminator 1
	cmp	x21, x19
	beq	.L86
	b	.L85
	.cfi_endproc
.LFE3910:
	.size	output_appdl_rule, .-output_appdl_rule
	.align	2
	.global	match_appdl_uid
	.type	match_appdl_uid, %function
match_appdl_uid:
.LFB3911:
	.loc 1 171 0 is_stmt 1
	.cfi_startproc
.LVL84:
	stp	x29, x30, [sp, -48]!
	.cfi_def_cfa_offset 48
	.cfi_offset 29, -48
	.cfi_offset 30, -40
	add	x29, sp, 0
	.cfi_def_cfa_register 29
	stp	x19, x20, [sp,16]
	str	x21, [sp,32]
	.cfi_offset 19, -32
	.cfi_offset 20, -24
	.cfi_offset 21, -16
	.loc 1 171 0
	mov	w19, w0
	.loc 1 173 0
	bl	get_hash_id
.LVL85:
	.loc 1 175 0
	cmp	w0, 255
	bhi	.L101
.LBB438:
.LBB439:
	.loc 2 307 0
	uxtw	x20, w0
.LVL86:
	adrp	x21, .LANCHOR0
	lsl	x0, x20, 5
	add	x21, x21, :lo12:.LANCHOR0
	sub	x0, x0, x20, lsl 3
	add	x21, x21, 88
	add	x21, x21, x0
.LBE439:
.LBE438:
.LBB441:
	.loc 1 180 0
	lsl	x20, x20, 4
.LVL87:
.LBE441:
.LBB442:
.LBB440:
	.loc 2 307 0
	mov	x0, x21
	bl	_raw_spin_lock_bh
.LVL88:
.LBE440:
.LBE442:
.LBB443:
	.loc 1 180 0
	adrp	x0, .LANCHOR1
	add	x0, x0, :lo12:.LANCHOR1
	add	x0, x0, 1880
	add	x2, x0, x20
	ldr	x0, [x0,x20]
.LVL89:
.LBE443:
	.loc 1 180 0 is_stmt 0 discriminator 1
	cmp	x0, x2
	bne	.L98
	b	.L94
.L97:
.LBB444:
	.loc 1 180 0 discriminator 2
	ldr	x0, [x0]
.LBE444:
	.loc 1 180 0 discriminator 1
	cmp	x0, x2
	beq	.L94
.L98:
	.loc 1 181 0 is_stmt 1
	ldr	w1, [x0,16]
	cmp	w1, w19
	bne	.L97
.LBB445:
.LBB446:
	.loc 2 352 0
	mov	x0, x21
.LVL90:
	bl	_raw_spin_unlock_bh
.LVL91:
.LBE446:
.LBE445:
	.loc 1 188 0
	ldr	x21, [sp,32]
	.cfi_remember_state
	.cfi_restore 21
	.loc 1 183 0
	mov	w0, 1
	.loc 1 188 0
	ldp	x19, x20, [sp,16]
	.cfi_restore 19
	.cfi_restore 20
.LVL92:
	ldp	x29, x30, [sp], 48
	.cfi_restore 29
	.cfi_restore 30
	.cfi_def_cfa 31, 0
	ret
.LVL93:
.L94:
	.cfi_restore_state
.LBB447:
.LBB448:
	.loc 2 352 0
	mov	x0, x21
.LVL94:
	bl	_raw_spin_unlock_bh
.LVL95:
.LBE448:
.LBE447:
	.loc 1 187 0
	mov	w0, 0
.L93:
	.loc 1 188 0
	ldp	x19, x20, [sp,16]
	.cfi_remember_state
	.cfi_restore 20
	.cfi_restore 19
.LVL96:
	ldr	x21, [sp,32]
	.cfi_restore 21
	ldp	x29, x30, [sp], 48
	.cfi_restore 30
	.cfi_restore 29
	.cfi_def_cfa 31, 0
	ret
.LVL97:
.L101:
	.cfi_restore_state
	.loc 1 176 0
	mov	w1, w0
	adrp	x0, .LC10
.LVL98:
	add	x0, x0, :lo12:.LC10
	bl	printk
.LVL99:
	.loc 1 177 0
	mov	w0, 0
	b	.L93
	.cfi_endproc
.LFE3911:
	.size	match_appdl_uid, .-match_appdl_uid
	.align	2
	.global	match_appdl_url
	.type	match_appdl_url, %function
match_appdl_url:
.LFB3912:
	.loc 1 191 0
	.cfi_startproc
.LVL100:
	stp	x29, x30, [sp, -32]!
	.cfi_def_cfa_offset 32
	.cfi_offset 29, -32
	.cfi_offset 30, -24
	add	x29, sp, 0
	.cfi_def_cfa_register 29
	stp	x19, x20, [sp,16]
	.cfi_offset 19, -16
	.cfi_offset 20, -8
	.loc 1 193 0
	bl	get_url_path
.LVL101:
	mov	x19, x0
.LVL102:
	.loc 1 195 0
	cbz	x0, .L105
	.loc 1 196 0
	bl	strlen
.LVL103:
	mov	x2, x0
	.loc 1 196 0 is_stmt 0 discriminator 1
	adrp	x1, .LC11
	mov	x0, x19
	add	x1, x1, :lo12:.LC11
	.loc 1 192 0 is_stmt 1
	mov	w20, 0
.LVL104:
	.loc 1 196 0 discriminator 1
	bl	strfindpos
.LVL105:
	.loc 1 196 0 is_stmt 0
	cbnz	x0, .L108
.L104:
	.loc 1 200 0 is_stmt 1
	mov	x0, x19
	bl	kfree
.LVL106:
	.loc 1 203 0
	mov	w0, w20
	ldp	x19, x20, [sp,16]
	.cfi_remember_state
	.cfi_restore 20
	.cfi_restore 19
.LVL107:
	ldp	x29, x30, [sp], 32
	.cfi_restore 30
	.cfi_restore 29
	.cfi_def_cfa 31, 0
	ret
.LVL108:
.L105:
	.cfi_restore_state
	.loc 1 192 0
	mov	w20, 0
.LVL109:
	.loc 1 203 0
	mov	w0, w20
.LVL110:
	ldp	x19, x20, [sp,16]
	.cfi_remember_state
	.cfi_restore 19
	.cfi_restore 20
.LVL111:
	ldp	x29, x30, [sp], 32
	.cfi_restore 29
	.cfi_restore 30
	.cfi_def_cfa 31, 0
	ret
.LVL112:
.L108:
	.cfi_restore_state
	.loc 1 198 0
	adrp	x0, .LC12
	mov	x1, x19
	add	x0, x0, :lo12:.LC12
	.loc 1 197 0
	mov	w20, 1
	.loc 1 198 0
	bl	printk
.LVL113:
	b	.L104
	.cfi_endproc
.LFE3912:
	.size	match_appdl_url, .-match_appdl_url
	.align	2
	.global	get_report_msg
	.type	get_report_msg, %function
get_report_msg:
.LFB3913:
	.loc 1 209 0
	.cfi_startproc
.LVL114:
	stp	x29, x30, [sp, -96]!
	.cfi_def_cfa_offset 96
	.cfi_offset 29, -96
	.cfi_offset 30, -88
	add	x29, sp, 0
	.cfi_def_cfa_register 29
	stp	x19, x20, [sp,16]
	stp	x21, x22, [sp,32]
	stp	x23, x24, [sp,48]
	str	x25, [sp,64]
	.cfi_offset 19, -80
	.cfi_offset 20, -72
	.cfi_offset 21, -64
	.cfi_offset 22, -56
	.cfi_offset 23, -48
	.cfi_offset 24, -40
	.cfi_offset 25, -32
	.loc 1 216 0
	cbz	x2, .L121
	mov	w22, w0
	.loc 1 218 0
	mov	x0, x2
.LVL115:
	mov	w23, w1
	str	x2, [x29,88]
	bl	strlen
.LVL116:
	.loc 1 219 0
	add	w0, w0, 65
.LBB449:
.LBB450:
	.loc 5 504 0
	mov	w1, 32
.LBE450:
.LBE449:
	.loc 1 219 0
	sxtw	x20, w0
.LBB452:
.LBB451:
	.loc 5 504 0
	movk	w1, 0x208, lsl 16
	mov	x0, x20
	bl	__kmalloc
.LVL117:
	mov	x21, x0
.LBE451:
.LBE452:
	.loc 1 220 0
	cbz	x0, .L121
	.loc 1 222 0
	ldr	x3, [x29,88]
.LVL118:
	adrp	x2, .LC13
	mov	x1, x20
	add	x2, x2, :lo12:.LC13
	bl	snprintf
.LVL119:
	.loc 1 223 0
	mov	x0, x21
	bl	strlen
.LVL120:
	.loc 1 224 0
	cmp	w0, 3999
	.loc 1 223 0
	mov	w25, w0
	.loc 1 224 0
	bgt	.L113
	.loc 1 226 0
	lsl	w19, w0, 1
.LBB453:
.LBB454:
	.loc 5 504 0
	mov	w1, 32
.LBE454:
.LBE453:
	.loc 1 226 0
	add	w24, w19, 1
.LBB462:
.LBB458:
	.loc 5 504 0
	movk	w1, 0x208, lsl 16
	sxtw	x0, w24
	bl	__kmalloc
.LVL121:
	mov	x20, x0
.L116:
.LBE458:
.LBE462:
	.loc 1 228 0
	mov	x0, x21
	.loc 1 227 0
	cbz	x20, .L122
	.loc 1 232 0
	mov	w3, w24
	mov	w1, w25
	mov	x2, x20
	.loc 1 235 0
	add	w24, w19, 33
	.loc 1 232 0
	bl	byte_to_hex
.LVL122:
	.loc 1 233 0
	strb	wzr, [x20,w19,sxtw]
.LBB463:
.LBB464:
	.loc 5 504 0
	mov	w1, 32
	mov	x0, x24
	movk	w1, 0x208, lsl 16
	bl	__kmalloc
.LVL123:
	mov	x19, x0
.LBE464:
.LBE463:
	.loc 1 236 0
	cbnz	x0, .L115
	.loc 1 237 0
	mov	x0, x21
	bl	kfree
.LVL124:
	.loc 1 238 0
	mov	x0, x20
	bl	kfree
.LVL125:
.L121:
	.loc 1 239 0
	mov	x0, 0
.L120:
	.loc 1 248 0
	ldp	x19, x20, [sp,16]
	.cfi_remember_state
	.cfi_restore 20
	.cfi_restore 19
	ldp	x21, x22, [sp,32]
	.cfi_restore 22
	.cfi_restore 21
.LVL126:
	ldp	x23, x24, [sp,48]
	.cfi_restore 24
	.cfi_restore 23
	ldr	x25, [sp,64]
	.cfi_restore 25
	ldp	x29, x30, [sp], 96
	.cfi_restore 30
	.cfi_restore 29
	.cfi_def_cfa 31, 0
	ret
.LVL127:
.L113:
	.cfi_restore_state
.LBB465:
.LBB459:
.LBB455:
	.loc 5 499 0
	adrp	x0, kmalloc_caches+104
	mov	w1, 32
	movk	w1, 0x208, lsl 16
	mov	x2, 8001
.LBE455:
.LBE459:
.LBE465:
	.loc 1 226 0
	mov	w24, 8001
	mov	w19, 8000
.LBB466:
.LBB460:
.LBB456:
	.loc 5 499 0
	ldr	x0, [x0,#:lo12:kmalloc_caches+104]
.LBE456:
.LBE460:
.LBE466:
	.loc 1 225 0
	mov	w25, 4000
.LBB467:
.LBB461:
.LBB457:
	.loc 5 499 0
	bl	kmem_cache_alloc_trace
.LVL128:
	mov	x20, x0
	b	.L116
.L115:
.LBE457:
.LBE461:
.LBE467:
	.loc 1 241 0
	mov	w1, 0
	mov	x2, x24
	bl	memset
.LVL129:
	.loc 1 242 0
	adrp	x2, .LC15
	mov	w4, w23
	mov	x5, x20
	mov	x1, x24
	add	x2, x2, :lo12:.LC15
	mov	w3, w22
	mov	x0, x19
	bl	snprintf
.LVL130:
	.loc 1 243 0
	mov	x0, x19
	bl	strlen
.LVL131:
	.loc 1 244 0
	mov	w2, w0
	adrp	x0, .LC16
	mov	w1, w22
	mov	x3, x19
	add	x0, x0, :lo12:.LC16
	bl	printk
.LVL132:
	.loc 1 245 0
	mov	x0, x20
	bl	kfree
.LVL133:
	.loc 1 246 0
	mov	x0, x21
	bl	kfree
.LVL134:
	.loc 1 247 0
	mov	x0, x19
	b	.L120
.L122:
	.loc 1 228 0
	bl	kfree
.LVL135:
	.loc 1 229 0
	adrp	x0, .LC14
	add	x0, x0, :lo12:.LC14
	bl	printk
.LVL136:
	.loc 1 230 0
	mov	x0, 0
	b	.L120
	.cfi_endproc
.LFE3913:
	.size	get_report_msg, .-get_report_msg
	.align	2
	.global	new_dl_monitor
	.type	new_dl_monitor, %function
new_dl_monitor:
.LFB3914:
	.loc 1 251 0
	.cfi_startproc
.LVL137:
	stp	x29, x30, [sp, -64]!
	.cfi_def_cfa_offset 64
	.cfi_offset 29, -64
	.cfi_offset 30, -56
	add	x29, sp, 0
	.cfi_def_cfa_register 29
	stp	x23, x24, [sp,48]
	.cfi_offset 23, -16
	.cfi_offset 24, -8
	mov	w24, w0
	.loc 1 253 0
	mov	x0, x2
.LVL138:
	.loc 1 251 0
	stp	x19, x20, [sp,16]
	stp	x21, x22, [sp,32]
	.cfi_offset 19, -48
	.cfi_offset 20, -40
	.cfi_offset 21, -32
	.cfi_offset 22, -24
	.loc 1 251 0
	mov	x22, x2
	mov	w21, w1
	.loc 1 253 0
	bl	strlen
.LVL139:
	mov	x20, x0
.LBB468:
.LBB469:
	.loc 5 499 0
	adrp	x0, kmalloc_caches+56
	mov	w1, 32
	movk	w1, 0x208, lsl 16
	mov	x2, 112
	ldr	x0, [x0,#:lo12:kmalloc_caches+56]
	bl	kmem_cache_alloc_trace
.LVL140:
	mov	x19, x0
.LBE469:
.LBE468:
	.loc 1 256 0
	cbz	x0, .L126
	.loc 1 260 0
	add	w0, w20, 1
.LBB470:
.LBB471:
	.loc 5 504 0
	mov	w1, 32
.LBE471:
.LBE470:
	.loc 1 259 0
	mov	w2, 1
.LBB475:
.LBB472:
	.loc 5 504 0
	movk	w1, 0x208, lsl 16
	sxtw	x0, w0
.LBE472:
.LBE475:
	.loc 1 258 0
	str	w21, [x19,80]
	.loc 1 259 0
	str	w2, [x19,108]
.LBB476:
.LBB473:
	.loc 5 504 0
	bl	__kmalloc
.LVL141:
.LBE473:
.LBE476:
	.loc 1 260 0
	str	x0, [x19,96]
.LBB477:
.LBB474:
	.loc 5 504 0
	mov	x21, x0
.LVL142:
.LBE474:
.LBE477:
	.loc 1 261 0
	cbz	x0, .L127
	.loc 1 265 0
	sxtw	x23, w20
	mov	x1, x22
	mov	x2, x23
	bl	memcpy
.LVL143:
	.loc 1 266 0
	strb	wzr, [x21,x23]
	.loc 1 267 0
	str	w20, [x19,104]
	.loc 1 271 0
	mov	x0, x19
	.loc 1 268 0
	str	w24, [x19,76]
	.loc 1 269 0
	strb	wzr, [x19,72]
.LVL144:
.L124:
	.loc 1 272 0
	ldp	x19, x20, [sp,16]
	.cfi_remember_state
	.cfi_restore 20
	.cfi_restore 19
	ldp	x21, x22, [sp,32]
	.cfi_restore 22
	.cfi_restore 21
.LVL145:
	ldp	x23, x24, [sp,48]
	.cfi_restore 24
	.cfi_restore 23
.LVL146:
	ldp	x29, x30, [sp], 64
	.cfi_restore 30
	.cfi_restore 29
	.cfi_def_cfa 31, 0
	ret
.LVL147:
.L126:
	.cfi_restore_state
	.loc 1 257 0
	mov	x0, 0
	b	.L124
.LVL148:
.L127:
	.loc 1 262 0
	mov	x0, x19
	bl	kfree
.LVL149:
	.loc 1 263 0
	mov	x0, 0
	b	.L124
	.cfi_endproc
.LFE3914:
	.size	new_dl_monitor, .-new_dl_monitor
	.align	2
	.global	free_download_monitor
	.type	free_download_monitor, %function
free_download_monitor:
.LFB3915:
	.loc 1 275 0
	.cfi_startproc
.LVL150:
	stp	x29, x30, [sp, -32]!
	.cfi_def_cfa_offset 32
	.cfi_offset 29, -32
	.cfi_offset 30, -24
	add	x29, sp, 0
	.cfi_def_cfa_register 29
	str	x19, [sp,16]
	.cfi_offset 19, -16
	.loc 1 275 0
	mov	x19, x0
	.loc 1 276 0
	ldr	x0, [x0,96]
.LVL151:
	bl	kfree
.LVL152:
	.loc 1 277 0
	mov	x0, x19
	bl	kfree
.LVL153:
	.loc 1 278 0
	ldr	x19, [sp,16]
	.cfi_restore 19
.LVL154:
	ldp	x29, x30, [sp], 32
	.cfi_restore 30
	.cfi_restore 29
	.cfi_def_cfa 31, 0
	ret
	.cfi_endproc
.LFE3915:
	.size	free_download_monitor, .-free_download_monitor
	.align	2
	.global	get_select
	.type	get_select, %function
get_select:
.LFB3916:
	.loc 1 282 0
	.cfi_startproc
.LVL155:
	stp	x29, x30, [sp, -48]!
	.cfi_def_cfa_offset 48
	.cfi_offset 29, -48
	.cfi_offset 30, -40
	add	x29, sp, 0
	.cfi_def_cfa_register 29
	stp	x21, x22, [sp,32]
	.cfi_offset 21, -16
	.cfi_offset 22, -8
.LBB478:
.LBB479:
	.loc 2 307 0
	adrp	x22, .LANCHOR0
.LBE479:
.LBE478:
	.loc 1 282 0
	mov	x21, x0
.LBB482:
.LBB480:
	.loc 2 307 0
	add	x22, x22, :lo12:.LANCHOR0
	mov	x0, x22
.LVL156:
.LBE480:
.LBE482:
	.loc 1 282 0
	stp	x19, x20, [sp,16]
	.cfi_offset 19, -32
	.cfi_offset 20, -24
.LBB483:
.LBB481:
	.loc 2 307 0
	bl	_raw_spin_lock_bh
.LVL157:
.LBE481:
.LBE483:
.LBB484:
	.loc 1 288 0
	ldr	x1, [x22,24]
	add	x3, x22, 24
.LBE484:
	.loc 1 288 0 is_stmt 0 discriminator 1
	cmp	x1, x3
	beq	.L130
	mov	w20, 0
.LVL158:
	mov	x19, 0
	mov	x0, x22
.L131:
	.loc 1 289 0 is_stmt 1
	ldr	x2, [x1,88]
	cmp	x2, x21
	csel	x19, x1, x19, eq
.LBB485:
	.loc 1 288 0 discriminator 2
	ldr	x1, [x1]
	cmp	x2, x21
	csinc	w20, w20, wzr, ne
.LBE485:
	.loc 1 288 0 is_stmt 0 discriminator 1
	cmp	x1, x3
	bne	.L131
.LBB486:
.LBB487:
	.loc 2 352 0 is_stmt 1
	bl	_raw_spin_unlock_bh
.LVL159:
.LBE487:
.LBE486:
	.loc 1 295 0
	cmp	x19, xzr
	.loc 1 296 0
	mov	w0, 0
	.loc 1 295 0
	cset	w1, eq
	cmp	w1, w20
	bcc	.L139
.L137:
	.loc 1 310 0
	ldp	x19, x20, [sp,16]
	.cfi_remember_state
	.cfi_restore 20
	.cfi_restore 19
.LVL160:
	ldp	x21, x22, [sp,32]
	.cfi_restore 22
	.cfi_restore 21
.LVL161:
	ldp	x29, x30, [sp], 48
	.cfi_restore 30
	.cfi_restore 29
	.cfi_def_cfa 31, 0
	ret
.LVL162:
.L139:
	.cfi_restore_state
	.loc 1 297 0
	bl	get_cur_time
.LVL163:
	ldr	x1, [x19,16]
	sub	x1, x0, x1
	mov	x0, 12000
	cmp	x1, x0
	.loc 1 298 0
	ldr	w1, [x19,108]
	.loc 1 297 0
	bls	.L133
	.loc 1 297 0 is_stmt 0 discriminator 1
	cmp	w1, 1
	bne	.L134
	.loc 1 299 0 is_stmt 1
	mov	w0, 2
	str	w0, [x19,108]
	.loc 1 300 0
	b	.L137
.L133:
	.loc 1 302 0
	cmp	w1, 1
	beq	.L140
.L134:
	.loc 1 306 0
	ldr	w3, [x19,80]
	adrp	x0, .LC18
	add	x0, x0, :lo12:.LC18
	mov	x2, x21
	bl	printk
.LVL164:
	.loc 1 309 0
	ldr	w0, [x19,108]
.L141:
	.loc 1 310 0
	ldp	x19, x20, [sp,16]
	.cfi_remember_state
	.cfi_restore 19
	.cfi_restore 20
.LVL165:
	ldp	x21, x22, [sp,32]
	.cfi_restore 21
	.cfi_restore 22
.LVL166:
	ldp	x29, x30, [sp], 48
	.cfi_restore 29
	.cfi_restore 30
	.cfi_def_cfa 31, 0
	ret
.LVL167:
.L130:
	.cfi_restore_state
.LBB489:
.LBB488:
	.loc 2 352 0
	mov	x0, x22
	bl	_raw_spin_unlock_bh
.LVL168:
.LBE488:
.LBE489:
	.loc 1 296 0
	mov	w0, 0
	b	.L137
.LVL169:
.L140:
	.loc 1 303 0
	ldr	w2, [x19,80]
	adrp	x0, .LC17
	add	x0, x0, :lo12:.LC17
	mov	x1, x21
	bl	printk
.LVL170:
	.loc 1 309 0
	ldr	w0, [x19,108]
	b	.L141
	.cfi_endproc
.LFE3916:
	.size	get_select, .-get_select
	.align	2
	.global	get_download_monitor
	.type	get_download_monitor, %function
get_download_monitor:
.LFB3918:
	.loc 1 336 0
	.cfi_startproc
.LVL171:
	stp	x29, x30, [sp, -112]!
	.cfi_def_cfa_offset 112
	.cfi_offset 29, -112
	.cfi_offset 30, -104
	add	x29, sp, 0
	.cfi_def_cfa_register 29
	stp	x19, x20, [sp,16]
	.cfi_offset 19, -96
	.cfi_offset 20, -88
	mov	x19, x0
	.loc 1 341 0
	mov	x0, x2
.LVL172:
	.loc 1 336 0
	stp	x25, x26, [sp,64]
	.loc 1 341 0
	str	x2, [x29,104]
	.cfi_offset 25, -48
	.cfi_offset 26, -40
.LBB490:
.LBB491:
	.loc 2 307 0
	adrp	x25, .LANCHOR0
.LBE491:
.LBE490:
	.loc 1 336 0
	stp	x21, x22, [sp,32]
	stp	x23, x24, [sp,48]
	.cfi_offset 21, -80
	.cfi_offset 22, -72
	.cfi_offset 23, -64
	.cfi_offset 24, -56
	mov	w21, w1
	stp	x27, x28, [sp,80]
	.cfi_offset 27, -32
	.cfi_offset 28, -24
	.loc 1 341 0
	bl	strlen
.LVL173:
	mov	w24, w0
.LVL174:
.LBB493:
.LBB492:
	.loc 2 307 0
	add	x0, x25, :lo12:.LANCHOR0
	bl	_raw_spin_lock_bh
.LVL175:
.LBE492:
.LBE493:
	.loc 1 344 0
	adrp	x0, .LANCHOR2
	.loc 1 345 0
	mov	w1, 11520
	.loc 1 344 0
	add	x0, x0, :lo12:.LANCHOR2
	.loc 1 345 0
	movk	w1, 0x131, lsl 16
	ldr	x2, [x29,104]
.LVL176:
	.loc 1 344 0
	ldr	w26, [x0,1624]
.LVL177:
	add	w3, w26, 1
	.loc 1 345 0
	cmp	w3, w1
	bhi	.L143
	.loc 1 344 0
	str	w3, [x0,1624]
.L144:
	.loc 1 347 0
	mov	w0, w21
	mov	w1, w26
	bl	new_dl_monitor
.LVL178:
	mov	x23, x0
.LVL179:
	.loc 1 348 0
	cbz	x0, .L160
	.loc 1 352 0
	str	x19, [x0,88]
	.loc 1 353 0
	bl	get_cur_time
.LVL180:
	str	x0, [x23,16]
.LBB494:
.LBB495:
	.loc 3 78 0
	add	x1, x25, :lo12:.LANCHOR0
	add	x20, x1, 24
	ldr	x0, [x1,24]
.LBB496:
.LBB497:
	.loc 3 62 0
	str	x23, [x0,8]
	.loc 3 63 0
	str	x0, [x23]
.LBB498:
.LBB499:
.LBB500:
	.loc 4 276 0
	str	x23, [x1,24]
.LBE500:
.LBE499:
.LBE498:
	.loc 3 64 0
	str	x20, [x23,8]
.LBE497:
.LBE496:
.LBE495:
.LBE494:
.LBB501:
	.loc 1 355 0
	ldr	x19, [x1,24]
.LVL181:
.LBE501:
	.loc 1 355 0 is_stmt 0 discriminator 1
	cmp	x19, x20
	beq	.L147
	ldr	w22, [x23,76]
	.loc 1 359 0 is_stmt 1
	sxtw	x27, w24
	ldr	w28, [x23,80]
	b	.L151
.L148:
.LBB502:
	.loc 1 355 0 discriminator 2
	ldr	x19, [x19]
.LBE502:
	.loc 1 355 0 is_stmt 0 discriminator 1
	cmp	x19, x20
	beq	.L161
.L151:
	.loc 1 356 0 is_stmt 1
	cmp	w21, w22
	bne	.L148
	.loc 1 357 0
	ldr	w0, [x19,80]
	cmp	w0, w28
	beq	.L148
	.loc 1 358 0
	ldr	w0, [x19,104]
	cmp	w0, w24
	bne	.L148
	.loc 1 359 0
	ldr	x1, [x19,96]
	mov	x2, x27
	ldr	x0, [x23,96]
	bl	memcmp
.LVL182:
	cbnz	w0, .L148
	.loc 1 360 0
	mov	w0, 1
	strb	w0, [x23,72]
	.loc 1 363 0
	ldr	w0, [x19,108]
	.loc 1 362 0
	ldr	w26, [x19,80]
.LVL183:
	.loc 1 363 0
	str	w0, [x23,108]
	.loc 1 370 0
	cbz	x19, .L150
	.loc 1 371 0
	bl	get_cur_time
.LVL184:
	ldr	x1, [x19,16]
	sub	x1, x0, x1
	mov	x0, 12000
	cmp	x1, x0
	bls	.L147
	ldr	w28, [x23,80]
	.loc 1 372 0
	strb	wzr, [x23,72]
.LVL185:
.L154:
	.loc 1 377 0
	adrp	x0, .LC20
	mov	w1, w28
	add	x0, x0, :lo12:.LC20
	bl	printk
.LVL186:
	b	.L155
.L161:
	ldrb	w0, [x23,72]
	.loc 1 374 0
	cbz	w0, .L154
.L150:
	.loc 1 375 0
	adrp	x0, .LC19
	mov	w1, w28
	add	x0, x0, :lo12:.LC19
	mov	w2, w26
	bl	printk
.LVL187:
.L155:
.LBB503:
.LBB504:
	.loc 2 352 0
	add	x0, x25, :lo12:.LANCHOR0
	bl	_raw_spin_unlock_bh
.LVL188:
.LBE504:
.LBE503:
	.loc 1 379 0
	mov	x0, x23
.LVL189:
.L146:
	.loc 1 380 0
	ldp	x19, x20, [sp,16]
	.cfi_remember_state
	.cfi_restore 20
	.cfi_restore 19
.LVL190:
	ldp	x21, x22, [sp,32]
	.cfi_restore 22
	.cfi_restore 21
.LVL191:
	ldp	x23, x24, [sp,48]
	.cfi_restore 24
	.cfi_restore 23
.LVL192:
	ldp	x25, x26, [sp,64]
	.cfi_restore 26
	.cfi_restore 25
.LVL193:
	ldp	x27, x28, [sp,80]
	.cfi_restore 28
	.cfi_restore 27
	ldp	x29, x30, [sp], 112
	.cfi_restore 30
	.cfi_restore 29
	.cfi_def_cfa 31, 0
	ret
.LVL194:
.L143:
	.cfi_restore_state
	.loc 1 346 0
	mov	w1, 1000
	str	w1, [x0,1624]
	b	.L144
.LVL195:
.L147:
	ldrb	w0, [x23,72]
	ldr	w28, [x23,80]
	.loc 1 374 0
	cbnz	w0, .L150
	b	.L154
.LVL196:
.L160:
.LBB505:
.LBB506:
	.loc 2 352 0
	add	x0, x25, :lo12:.LANCHOR0
.LVL197:
	bl	_raw_spin_unlock_bh
.LVL198:
.LBE506:
.LBE505:
	.loc 1 350 0
	mov	x0, 0
	b	.L146
	.cfi_endproc
.LFE3918:
	.size	get_download_monitor, .-get_download_monitor
	.align	2
	.global	nofity_loop
	.type	nofity_loop, %function
nofity_loop:
.LFB3919:
	.loc 1 383 0
	.cfi_startproc
.LVL199:
	stp	x29, x30, [sp, -96]!
	.cfi_def_cfa_offset 96
	.cfi_offset 29, -96
	.cfi_offset 30, -88
	add	x29, sp, 0
	.cfi_def_cfa_register 29
	stp	x21, x22, [sp,32]
	.cfi_offset 21, -64
	.cfi_offset 22, -56
	mov	w21, w0
	.loc 1 385 0
	mov	x0, x2
.LVL200:
	.loc 1 383 0
	stp	x19, x20, [sp,16]
	stp	x23, x24, [sp,48]
	stp	x25, x26, [sp,64]
	str	x27, [sp,80]
	.cfi_offset 19, -80
	.cfi_offset 20, -72
	.cfi_offset 23, -48
	.cfi_offset 24, -40
	.cfi_offset 25, -32
	.cfi_offset 26, -24
	.cfi_offset 27, -16
	.loc 1 383 0
	mov	x22, x2
	mov	w23, w1
	mov	w24, w3
	.loc 1 385 0
	bl	strlen
.LVL201:
	mov	w26, w0
.LVL202:
.LBB507:
	.loc 1 387 0
	adrp	x0, .LANCHOR0
	add	x0, x0, :lo12:.LANCHOR0
	add	x20, x0, 24
	ldr	x19, [x0,24]
.LVL203:
.LBE507:
	.loc 1 387 0 is_stmt 0 discriminator 1
	cmp	x19, x20
	beq	.L162
	.loc 1 392 0 is_stmt 1
	adrp	x25, .LC21
	.loc 1 389 0
	sxtw	x27, w26
	.loc 1 392 0
	add	x25, x25, :lo12:.LC21
	b	.L167
.L164:
.LBB508:
	.loc 1 387 0 discriminator 2
	ldr	x19, [x19]
.LBE508:
	.loc 1 387 0 is_stmt 0 discriminator 1
	cmp	x19, x20
	beq	.L162
.L167:
	.loc 1 388 0 is_stmt 1
	ldr	w0, [x19,76]
	cmp	w0, w21
	bne	.L164
	.loc 1 388 0 is_stmt 0 discriminator 1
	ldr	w0, [x19,104]
	cmp	w0, w26
	bne	.L164
	.loc 1 389 0 is_stmt 1
	ldr	x0, [x19,96]
	mov	x1, x22
	mov	x2, x27
	bl	memcmp
.LVL204:
	.loc 1 388 0 discriminator 2
	cbnz	w0, .L164
	.loc 1 390 0
	ldr	w2, [x19,80]
	.loc 1 389 0
	cmp	w2, w23
	beq	.L164
	.loc 1 391 0
	str	w24, [x19,108]
	.loc 1 392 0
	mov	x0, x25
	mov	w1, w21
	mov	w3, w24
	bl	printk
.LVL205:
	b	.L164
.L162:
	.loc 1 398 0
	ldp	x19, x20, [sp,16]
	.cfi_restore 20
	.cfi_restore 19
.LVL206:
	ldp	x21, x22, [sp,32]
	.cfi_restore 22
	.cfi_restore 21
.LVL207:
	ldp	x23, x24, [sp,48]
	.cfi_restore 24
	.cfi_restore 23
.LVL208:
	ldp	x25, x26, [sp,64]
	.cfi_restore 26
	.cfi_restore 25
.LVL209:
	ldr	x27, [sp,80]
	.cfi_restore 27
	ldp	x29, x30, [sp], 96
	.cfi_restore 30
	.cfi_restore 29
	.cfi_def_cfa 31, 0
	ret
	.cfi_endproc
.LFE3919:
	.size	nofity_loop, .-nofity_loop
	.align	2
	.global	download_notify
	.type	download_notify, %function
download_notify:
.LFB3920:
	.loc 1 401 0
	.cfi_startproc
.LVL210:
	stp	x29, x30, [sp, -64]!
	.cfi_def_cfa_offset 64
	.cfi_offset 29, -64
	.cfi_offset 30, -56
	.loc 1 404 0
	cmp	w0, 999
	.loc 1 401 0
	add	x29, sp, 0
	.cfi_def_cfa_register 29
	stp	x19, x20, [sp,16]
	stp	x21, x22, [sp,32]
	str	x23, [sp,48]
	.cfi_offset 19, -48
	.cfi_offset 20, -40
	.cfi_offset 21, -32
	.cfi_offset 22, -24
	.cfi_offset 23, -16
	.loc 1 404 0
	bgt	.L181
.LVL211:
.L169:
	.loc 1 423 0
	ldp	x19, x20, [sp,16]
	.cfi_remember_state
	.cfi_restore 20
	.cfi_restore 19
.LVL212:
	ldp	x21, x22, [sp,32]
	.cfi_restore 22
	.cfi_restore 21
	ldr	x23, [sp,48]
	.cfi_restore 23
	ldp	x29, x30, [sp], 64
	.cfi_restore 30
	.cfi_restore 29
	.cfi_def_cfa 31, 0
	ret
.L181:
	.cfi_restore_state
.LBB509:
.LBB510:
	.loc 2 307 0
	adrp	x23, .LANCHOR0
	mov	w20, w0
	add	x21, x23, :lo12:.LANCHOR0
	mov	x22, x1
	mov	x0, x21
.LVL213:
	bl	_raw_spin_lock_bh
.LVL214:
.LBE510:
.LBE509:
.LBB511:
	.loc 1 407 0
	ldr	x19, [x21,24]
.LVL215:
	add	x0, x21, 24
.LBE511:
	.loc 1 407 0 is_stmt 0 discriminator 1
	cmp	x19, x0
	beq	.L171
	.loc 1 408 0 is_stmt 1
	ldr	w1, [x19,80]
	cmp	w20, w1
	beq	.L172
.L174:
.LBB512:
	.loc 1 407 0 discriminator 2
	ldr	x19, [x19]
.LBE512:
	.loc 1 407 0 is_stmt 0 discriminator 1
	cmp	x19, x0
	beq	.L171
	.loc 1 408 0 is_stmt 1
	ldr	w3, [x19,80]
	cmp	w3, w20
	bne	.L174
.L172:
	.loc 1 409 0
	adrp	x1, .LC22
	mov	x0, x22
	add	x1, x1, :lo12:.LC22
	mov	x2, 5
	bl	memcmp
.LVL216:
	cbz	w0, .L182
	.loc 1 413 0
	mov	w1, 3
	.loc 1 414 0
	adrp	x0, .LC24
	.loc 1 413 0
	str	w1, [x19,108]
	.loc 1 414 0
	add	x0, x0, :lo12:.LC24
	mov	w1, w20
	bl	printk
.LVL217:
.L176:
	.loc 1 416 0
	ldr	x2, [x19,96]
	mov	w1, w20
	ldr	w3, [x19,108]
	ldr	w0, [x19,76]
	bl	nofity_loop
.LVL218:
.LBB513:
.LBB514:
	.loc 2 352 0
	add	x0, x23, :lo12:.LANCHOR0
	bl	_raw_spin_unlock_bh
.LVL219:
.LBE514:
.LBE513:
	.loc 1 423 0
	ldr	x23, [sp,48]
	.cfi_remember_state
	.cfi_restore 23
	ldp	x19, x20, [sp,16]
	.cfi_restore 19
	.cfi_restore 20
.LVL220:
	ldp	x21, x22, [sp,32]
	.cfi_restore 21
	.cfi_restore 22
.LVL221:
	ldp	x29, x30, [sp], 64
	.cfi_restore 29
	.cfi_restore 30
	.cfi_def_cfa 31, 0
	ret
.LVL222:
.L182:
	.cfi_restore_state
	.loc 1 410 0
	mov	w1, 2
	.loc 1 411 0
	adrp	x0, .LC23
	.loc 1 410 0
	str	w1, [x19,108]
	.loc 1 411 0
	add	x0, x0, :lo12:.LC23
	mov	w1, w20
	bl	printk
.LVL223:
	b	.L176
.L171:
.LBB515:
.LBB516:
	.loc 2 352 0
	add	x0, x23, :lo12:.LANCHOR0
	bl	_raw_spin_unlock_bh
.LVL224:
.LBE516:
.LBE515:
	.loc 1 422 0
	adrp	x0, .LC25
	mov	w1, w20
	mov	x2, x22
	add	x0, x0, :lo12:.LC25
	bl	printk
.LVL225:
	b	.L169
	.cfi_endproc
.LFE3920:
	.size	download_notify, .-download_notify
	.align	2
	.global	free_node
	.type	free_node, %function
free_node:
.LFB3921:
	.loc 1 426 0
	.cfi_startproc
.LVL226:
	stp	x29, x30, [sp, -32]!
	.cfi_def_cfa_offset 32
	.cfi_offset 29, -32
	.cfi_offset 30, -24
	add	x29, sp, 0
	.cfi_def_cfa_register 29
	stp	x19, x20, [sp,16]
	.cfi_offset 19, -16
	.cfi_offset 20, -8
.LBB517:
.LBB518:
	.loc 2 307 0
	adrp	x20, .LANCHOR0
.LBE518:
.LBE517:
	.loc 1 426 0
	mov	x19, x0
.LBB520:
.LBB519:
	.loc 2 307 0
	add	x20, x20, :lo12:.LANCHOR0
	mov	x0, x20
.LVL227:
	bl	_raw_spin_lock_bh
.LVL228:
.LBE519:
.LBE520:
.LBB521:
.LBB522:
.LBB523:
.LBB524:
	.loc 3 119 0
	ldr	x3, [x19]
.LBE524:
.LBE523:
	.loc 3 125 0
	mov	x2, 256
.LBB532:
.LBB530:
	.loc 3 119 0
	ldr	x0, [x19,8]
.LBE530:
.LBE532:
	.loc 3 126 0
	mov	x1, 512
	.loc 3 125 0
	movk	x2, 0xdead, lsl 48
	.loc 3 126 0
	movk	x1, 0xdead, lsl 48
.LBB533:
.LBB531:
.LBB525:
.LBB526:
	.loc 3 104 0
	str	x0, [x3,8]
.LBB527:
.LBB528:
.LBB529:
	.loc 4 276 0
	str	x3, [x0]
.LBE529:
.LBE528:
.LBE527:
.LBE526:
.LBE525:
.LBE531:
.LBE533:
.LBE522:
.LBE521:
.LBB535:
.LBB536:
	.loc 2 352 0
	mov	x0, x20
.LBE536:
.LBE535:
.LBB538:
.LBB534:
	.loc 3 125 0
	str	x2, [x19]
	.loc 3 126 0
	str	x1, [x19,8]
.LBE534:
.LBE538:
.LBB539:
.LBB537:
	.loc 2 352 0
	bl	_raw_spin_unlock_bh
.LVL229:
.LBE537:
.LBE539:
.LBB540:
.LBB541:
	.loc 1 276 0
	ldr	x0, [x19,96]
	bl	kfree
.LVL230:
	.loc 1 277 0
	mov	x0, x19
	bl	kfree
.LVL231:
.LBE541:
.LBE540:
	.loc 1 431 0
	ldp	x19, x20, [sp,16]
	.cfi_restore 20
	.cfi_restore 19
.LVL232:
	ldp	x29, x30, [sp], 32
	.cfi_restore 30
	.cfi_restore 29
	.cfi_def_cfa 31, 0
	ret
	.cfi_endproc
.LFE3921:
	.size	free_node, .-free_node
	.align	2
	.global	wait_user_event
	.type	wait_user_event, %function
wait_user_event:
.LFB3922:
	.loc 1 434 0
	.cfi_startproc
.LVL233:
	stp	x29, x30, [sp, -112]!
	.cfi_def_cfa_offset 112
	.cfi_offset 29, -112
	.cfi_offset 30, -104
	add	x29, sp, 0
	.cfi_def_cfa_register 29
	stp	x23, x24, [sp,48]
	.cfi_offset 23, -64
	.cfi_offset 24, -56
	.loc 1 441 0
	adrp	x24, .LANCHOR2
	.loc 1 434 0
	str	x25, [sp,64]
	stp	x19, x20, [sp,16]
	.cfi_offset 25, -48
	.cfi_offset 19, -96
	.cfi_offset 20, -88
	.loc 1 441 0
	add	x19, x24, :lo12:.LANCHOR2
	.loc 1 434 0
	stp	x21, x22, [sp,32]
	.cfi_offset 21, -80
	.cfi_offset 22, -72
	.loc 1 434 0
	mov	x21, x0
	.loc 1 438 0
	bl	get_cur_time
.LVL234:
	.loc 1 441 0
	ldr	w1, [x19,1628]
	.loc 1 438 0
	mov	x22, x0
.LVL235:
	.loc 1 441 0
	cmp	w1, 1
	bls	.L185
	.loc 1 442 0
	adrp	x0, .LC26
	.loc 1 443 0
	mov	w19, 0
	.loc 1 442 0
	add	x0, x0, :lo12:.LC26
	bl	printk
.LVL236:
	.loc 1 474 0
	ldr	x25, [sp,64]
	.cfi_remember_state
	.cfi_restore 25
	mov	w0, w19
	ldp	x19, x20, [sp,16]
	.cfi_restore 20
	.cfi_restore 19
	ldp	x21, x22, [sp,32]
	.cfi_restore 22
	.cfi_restore 21
.LVL237:
	ldp	x23, x24, [sp,48]
	.cfi_restore 24
	.cfi_restore 23
	ldp	x29, x30, [sp], 112
	.cfi_restore 30
	.cfi_restore 29
	.cfi_def_cfa 31, 0
	ret
.LVL238:
.L185:
	.cfi_restore_state
.LBB542:
.LBB543:
	.loc 2 307 0
	add	x25, x19, 1632
.LBE543:
.LBE542:
	.loc 1 449 0
	mov	x23, 11999
.LBB546:
.LBB544:
	.loc 2 307 0
	mov	x0, x25
.LBE544:
.LBE546:
	.loc 1 436 0
	mov	w20, 0
.LVL239:
.LBB547:
.LBB545:
	.loc 2 307 0
	bl	_raw_spin_lock_bh
.LVL240:
.LBE545:
.LBE547:
	.loc 1 446 0
	ldr	w1, [x19,1628]
.LBB548:
.LBB549:
	.loc 2 352 0
	mov	x0, x25
.LBE549:
.LBE548:
	.loc 1 446 0
	add	w1, w1, 1
	str	w1, [x19,1628]
.LBB551:
.LBB550:
	.loc 2 352 0
	bl	_raw_spin_unlock_bh
.LVL241:
.LBE550:
.LBE551:
	.loc 1 448 0
	ldr	w1, [x21,80]
	adrp	x0, .LC27
	ldr	w2, [x19,1628]
	add	x0, x0, :lo12:.LC27
	bl	printk
.LVL242:
	.loc 1 449 0
	bl	get_cur_time
.LVL243:
	sub	x0, x0, x22
	cmp	x0, x23
	bhi	.L197
.L190:
	.loc 1 450 0
	ldr	w0, [x21,108]
	cmp	w0, 1
	bne	.L188
	.loc 1 454 0
	add	w20, w20, 1
	mov	x19, 10
.L189:
.LBB552:
	.loc 1 455 0 discriminator 6
	mov	x0, 35160
	movk	x0, 0x41, lsl 16
	bl	__const_udelay
.LVL244:
	.loc 1 455 0 is_stmt 0 discriminator 8
	subs	x19, x19, #1
	bne	.L189
.LBE552:
	.loc 1 449 0 is_stmt 1
	bl	get_cur_time
.LVL245:
	sub	x0, x0, x22
	cmp	x0, x23
	bls	.L190
.L197:
.LBB553:
.LBB554:
	.loc 2 307 0
	add	x24, x24, :lo12:.LANCHOR2
	add	x19, x24, 1632
	mov	x0, x19
	bl	_raw_spin_lock_bh
.LVL246:
.LBE554:
.LBE553:
	.loc 1 458 0
	ldr	w1, [x24,1628]
.LBB556:
.LBB557:
	.loc 2 352 0
	mov	x0, x19
.LBE557:
.LBE556:
	.loc 1 458 0
	sub	w1, w1, #1
	str	w1, [x24,1628]
.LBB561:
.LBB558:
	.loc 2 352 0
	bl	_raw_spin_unlock_bh
.LVL247:
.LBE558:
.LBE561:
	.loc 1 466 0
	ldr	w1, [x21,80]
	ldr	w3, [x24,1628]
	str	x1, [x29,96]
	str	x3, [x29,104]
	bl	get_cur_time
.LVL248:
	sub	w4, w0, w22
	.loc 1 466 0 is_stmt 0 discriminator 1
	ldr	x1, [x29,96]
	adrp	x0, .LC29
	ldr	x3, [x29,104]
	add	x0, x0, :lo12:.LC29
	mov	w2, w20
	bl	printk
.LVL249:
	.loc 1 469 0 is_stmt 1
	mov	w0, 2
	str	w0, [x21,108]
	mov	w19, w0
.L192:
	.loc 1 472 0
	mov	x0, x21
	bl	free_node
.LVL250:
	.loc 1 474 0
	ldr	x25, [sp,64]
	.cfi_remember_state
	.cfi_restore 25
	mov	w0, w19
	ldp	x19, x20, [sp,16]
	.cfi_restore 19
	.cfi_restore 20
.LVL251:
	ldp	x21, x22, [sp,32]
	.cfi_restore 21
	.cfi_restore 22
.LVL252:
	ldp	x23, x24, [sp,48]
	.cfi_restore 23
	.cfi_restore 24
	ldp	x29, x30, [sp], 112
	.cfi_restore 29
	.cfi_restore 30
	.cfi_def_cfa 31, 0
	ret
.LVL253:
.L188:
	.cfi_restore_state
.LBB562:
.LBB555:
	.loc 2 307 0
	add	x24, x24, :lo12:.LANCHOR2
	add	x19, x24, 1632
	mov	x0, x19
	bl	_raw_spin_lock_bh
.LVL254:
.LBE555:
.LBE562:
	.loc 1 458 0
	ldr	w1, [x24,1628]
.LBB563:
.LBB559:
	.loc 2 352 0
	mov	x0, x19
.LBE559:
.LBE563:
	.loc 1 458 0
	sub	w1, w1, #1
	str	w1, [x24,1628]
.LBB564:
.LBB560:
	.loc 2 352 0
	bl	_raw_spin_unlock_bh
.LVL255:
.LBE560:
.LBE564:
	.loc 1 462 0
	ldr	w1, [x21,80]
	ldr	w2, [x21,108]
	ldr	w3, [x24,1628]
	str	x1, [x29,88]
	str	x2, [x29,96]
	str	x3, [x29,104]
	bl	get_cur_time
.LVL256:
	.loc 1 462 0 is_stmt 0 discriminator 1
	ldr	x1, [x29,88]
	.loc 1 462 0
	sub	w4, w0, w22
	.loc 1 462 0 discriminator 1
	ldr	x2, [x29,96]
	adrp	x0, .LC28
	ldr	x3, [x29,104]
	add	x0, x0, :lo12:.LC28
	bl	printk
.LVL257:
	ldr	w19, [x21,108]
	b	.L192
	.cfi_endproc
.LFE3922:
	.size	wait_user_event, .-wait_user_event
	.align	2
	.global	init_appdl
	.type	init_appdl, %function
init_appdl:
.LFB3923:
	.loc 1 477 0 is_stmt 1
	.cfi_startproc
	stp	x29, x30, [sp, -80]!
	.cfi_def_cfa_offset 80
	.cfi_offset 29, -80
	.cfi_offset 30, -72
	.loc 1 480 0
	adrp	x0, .LANCHOR2
	mov	w1, 1000
	.loc 1 477 0
	add	x29, sp, 0
	.cfi_def_cfa_register 29
	stp	x19, x20, [sp,16]
	.loc 1 480 0
	add	x0, x0, :lo12:.LANCHOR2
	.cfi_offset 19, -64
	.cfi_offset 20, -56
	adrp	x19, .LANCHOR1
	.loc 1 477 0
	stp	x23, x24, [sp,48]
	add	x19, x19, :lo12:.LANCHOR1
	.cfi_offset 23, -32
	.cfi_offset 24, -24
	adrp	x24, .LANCHOR0
	stp	x21, x22, [sp,32]
	str	x25, [sp,64]
	.cfi_offset 21, -48
	.cfi_offset 22, -40
	.cfi_offset 25, -16
	add	x19, x19, 1880
	add	x20, x24, :lo12:.LANCHOR0
.LBB565:
	.loc 1 485 0 discriminator 1
	adrp	x22, .LC30
	mov	x25, x0
.LBE565:
	.loc 1 481 0
	str	wzr, [x0,1656]
	add	x20, x20, 88
	.loc 1 480 0
	str	w1, [x0,1624]
	add	x23, x19, 4096
	.loc 1 482 0
	str	wzr, [x0,1628]
.LBB566:
	.loc 1 485 0 discriminator 1
	add	x22, x22, :lo12:.LC30
	add	x21, x0, 1664
.L199:
	mov	x0, x20
.LBE566:
.LBB567:
.LBB568:
.LBB569:
.LBB570:
.LBB571:
	.loc 4 276 0
	str	x19, [x19]
.LBE571:
.LBE570:
.LBE569:
	.loc 3 28 0
	str	x19, [x19,8]
.LBE568:
.LBE567:
.LBB572:
	.loc 1 485 0 discriminator 1
	mov	x1, x22
	mov	x2, x21
	add	x19, x19, 16
	add	x20, x20, 24
	bl	__raw_spin_lock_init
.LVL258:
.LBE572:
	.loc 1 483 0 discriminator 1
	cmp	x19, x23
	bne	.L199
.LBB573:
.LBB574:
.LBB575:
	.loc 3 27 0
	add	x0, x24, :lo12:.LANCHOR0
.LBE575:
.LBE574:
.LBE573:
.LBB582:
	.loc 1 488 0 discriminator 1
	adrp	x1, .LC31
.LBE582:
.LBB583:
.LBB580:
.LBB578:
	.loc 3 27 0
	add	x3, x0, 24
.LBE578:
.LBE580:
.LBE583:
.LBB584:
	.loc 1 488 0 discriminator 1
	mov	x2, x21
	add	x1, x1, :lo12:.LC31
.LBE584:
	.loc 1 490 0
	add	x19, x0, 40
.LBB585:
.LBB581:
.LBB579:
.LBB576:
.LBB577:
	.loc 4 276 0
	str	x3, [x0,24]
.LBE577:
.LBE576:
.LBE579:
	.loc 3 28 0
	str	x3, [x3,8]
.LBE581:
.LBE585:
.LBB586:
	.loc 1 488 0 discriminator 1
	bl	__raw_spin_lock_init
.LVL259:
.LBE586:
.LBB587:
	.loc 1 489 0 discriminator 1
	adrp	x1, .LC32
	add	x0, x25, 1632
	mov	x2, x21
	add	x1, x1, :lo12:.LC32
	bl	__raw_spin_lock_init
.LVL260:
.LBE587:
	.loc 1 490 0
	mov	x0, x19
	mov	x3, 0
	mov	w1, 0
	mov	x2, 0
	bl	init_timer_key
.LVL261:
	.loc 1 491 0
	str	xzr, [x19,32]
	.loc 1 493 0
	adrp	x1, jiffies
	.loc 1 492 0
	adrp	x2, dl_timer
	.loc 1 494 0
	mov	x0, x19
	.loc 1 492 0
	add	x2, x2, :lo12:dl_timer
	str	x2, [x19,24]
	.loc 1 493 0
	ldr	x1, [x1,#:lo12:jiffies]
	add	x1, x1, 40960
	add	x1, x1, 4040
	str	x1, [x19,16]
	.loc 1 494 0
	bl	add_timer
.LVL262:
	.loc 1 495 0
	ldr	x25, [sp,64]
	.cfi_restore 25
	ldp	x19, x20, [sp,16]
	.cfi_restore 20
	.cfi_restore 19
	ldp	x21, x22, [sp,32]
	.cfi_restore 22
	.cfi_restore 21
	ldp	x23, x24, [sp,48]
	.cfi_restore 24
	.cfi_restore 23
	ldp	x29, x30, [sp], 80
	.cfi_restore 30
	.cfi_restore 29
	.cfi_def_cfa 31, 0
	ret
	.cfi_endproc
.LFE3923:
	.size	init_appdl, .-init_appdl
	.align	2
	.global	uninit_appdl
	.type	uninit_appdl, %function
uninit_appdl:
.LFB3924:
	.loc 1 498 0
	.cfi_startproc
	.loc 1 499 0
	ret
	.cfi_endproc
.LFE3924:
	.size	uninit_appdl, .-uninit_appdl
	.global	g_wcount
	.section	__hwlog_tag,"aw",%progbits
	.align	3
	.type	_hwtag_ARGO, %object
	.size	_hwtag_ARGO, 16
_hwtag_ARGO:
	.xword	.LC33
	.word	7
	.zero	4
	.section	.rodata.str1.8,"aMS",%progbits,1
	.align	3
.LC0:
	.string	"\0016hwad:dl_timer free dlid=%d url=%s\n"
	.zero	3
.LC1:
	.string	"\0016hwad:clear_appdl_rule\n"
	.zero	7
.LC2:
	.string	"\0016hwad:add_appdl_uid>=MAX_HASH  hid=%u\n"
.LC3:
	.string	"\0016hwad:id=%u uid=%u alreadyin\n"
	.zero	1
.LC4:
	.string	"\0016hwad:add_appdl_uid hid=%u uid=%u new\n"
.LC5:
	.string	"\0016hwad:clear_appdl_uid>=MAX_HASH id=%u\n"
.LC6:
	.string	"\0016hwad:clr_dl_uid uid=%u\n"
	.zero	6
.LC7:
	.string	"\0016hwad: output_appdl_rule start\n"
	.zero	7
.LC8:
	.string	"\0016hwad:output_appdl_rule uid=%d\n"
	.zero	7
.LC9:
	.string	"\0016hwad:output_appdl_rule end\n"
	.zero	2
.LC10:
	.string	"\0016hwad:match_appdl_uid>=MAX_HASH hid=%u\n"
	.zero	7
.LC11:
	.string	".apk"
	.zero	3
.LC12:
	.string	"\0016hwad:match dlurl true urlpath=%s\n"
	.zero	4
.LC13:
	.string	"%s"
	.zero	5
.LC14:
	.string	"\0016hwad:report_msg new urlhex failure\n"
	.zero	2
.LC15:
	.string	"%u %u %s"
	.zero	7
.LC16:
	.string	"\0016hwad:report_msg dlid=%u len=%d buf=%s\n"
	.zero	7
.LC17:
	.string	"\0016hwad:get_select DLST_WAIT %p dlid=%d\n"
.LC18:
	.string	"\0016hwad:get_select NF_%d %p dlid=%d\n"
	.zero	4
.LC19:
	.string	"\0016hwad:bwait=true dlid=%d oldid=%d\n"
	.zero	4
.LC20:
	.string	"\0016hwad:bwait=false dlid=%d\n"
	.zero	4
.LC21:
	.string	"\0016hwad:nofity_loop uid=%d dlid=%d act=%d\n"
	.zero	6
.LC22:
	.string	"allow"
	.zero	2
.LC23:
	.string	"\0016hwad:notify dlid=%d allow\n"
	.zero	3
.LC24:
	.string	"\0016hwad:notify dlid=%d reject\n"
	.zero	2
.LC25:
	.string	"\0016hwad:notify not found dlid=%d act=%s\n"
.LC26:
	.string	"\0016hwad:wait DLST_NOT wcnt=%d\n"
	.zero	2
.LC27:
	.string	"\0016hwad:wait dlid=%d wcnt=%d\n"
	.zero	3
.LC28:
	.string	"\0016hwad:wait event dlid=%d action=%d wcnt=%d time=%d\n"
	.zero	3
.LC29:
	.string	"\0016hwad:wait timeout dlid=%d cnt=%d wcnt=%d time=%d\n"
	.zero	4
.LC30:
	.string	"&(&g_appdllock[i])->rlock"
	.zero	6
.LC31:
	.string	"&(&g_wait_lock)->rlock"
	.zero	1
.LC32:
	.string	"&(&g_count_lock)->rlock"
.LC33:
	.string	"ARGO"
	.bss
	.align	3
.LANCHOR0 = . + 0
.LANCHOR1 = . + 4352
.LANCHOR2 = . + 8704
	.type	g_wait_lock, %object
	.size	g_wait_lock, 24
g_wait_lock:
	.zero	24
	.type	g_dl_wait, %object
	.size	g_dl_wait, 16
g_dl_wait:
	.zero	16
	.type	g_timer, %object
	.size	g_timer, 48
g_timer:
	.zero	48
	.type	g_appdllock, %object
	.size	g_appdllock, 6144
g_appdllock:
	.zero	6144
	.type	g_appdlhead, %object
	.size	g_appdlhead, 4096
g_appdlhead:
	.zero	4096
	.type	g_dlid, %object
	.size	g_dlid, 4
g_dlid:
	.zero	4
	.type	g_wcount, %object
	.size	g_wcount, 4
g_wcount:
	.zero	4
	.type	g_count_lock, %object
	.size	g_count_lock, 24
g_count_lock:
	.zero	24
	.type	g_waitcount, %object
	.size	g_waitcount, 4
g_waitcount:
	.zero	4
	.zero	4
	.type	__key.51848, %object
	.size	__key.51848, 0
__key.51848:
	.type	__key.51852, %object
	.size	__key.51852, 0
__key.51852:
	.type	__key.51853, %object
	.size	__key.51853, 0
__key.51853:
	.text
.Letext0:
	.file 6 "/mnt/disk/jenkins/ci/workspace/chipset_pipeline_release/opensource/component_code/vendor/huawei/extra/build/build_script/kirin_kernel_release/kernel/include/uapi/asm-generic/int-ll64.h"
	.file 7 "/mnt/disk/jenkins/ci/workspace/chipset_pipeline_release/opensource/component_code/vendor/huawei/extra/build/build_script/kirin_kernel_release/kernel/include/asm-generic/int-ll64.h"
	.file 8 "/mnt/disk/jenkins/ci/workspace/chipset_pipeline_release/opensource/component_code/vendor/huawei/extra/build/build_script/kirin_kernel_release/kernel/include/uapi/asm-generic/posix_types.h"
	.file 9 "/mnt/disk/jenkins/ci/workspace/chipset_pipeline_release/opensource/component_code/vendor/huawei/extra/build/build_script/kirin_kernel_release/kernel/include/uapi/linux/types.h"
	.file 10 "/mnt/disk/jenkins/ci/workspace/chipset_pipeline_release/opensource/component_code/vendor/huawei/extra/build/build_script/kirin_kernel_release/kernel/include/linux/types.h"
	.file 11 "/mnt/disk/jenkins/ci/workspace/chipset_pipeline_release/opensource/component_code/vendor/huawei/extra/build/build_script/kirin_kernel_release/kernel/include/linux/export.h"
	.file 12 "/mnt/disk/jenkins/ci/workspace/chipset_pipeline_release/opensource/component_code/vendor/huawei/extra/build/build_script/kirin_kernel_release/kernel/include/linux/capability.h"
	.file 13 "/mnt/disk/jenkins/ci/workspace/chipset_pipeline_release/opensource/component_code/vendor/huawei/extra/build/build_script/kirin_kernel_release/kernel/include/asm-generic/bug.h"
	.file 14 "/mnt/disk/jenkins/ci/workspace/chipset_pipeline_release/opensource/component_code/vendor/huawei/extra/build/build_script/kirin_kernel_release/kernel/include/linux/restart_block.h"
	.file 15 "/mnt/disk/jenkins/ci/workspace/chipset_pipeline_release/opensource/component_code/vendor/huawei/extra/build/build_script/kirin_kernel_release/kernel/include/uapi/linux/time.h"
	.file 16 "/mnt/disk/jenkins/ci/workspace/chipset_pipeline_release/opensource/component_code/vendor/huawei/extra/build/build_script/kirin_kernel_release/kernel/arch/arm64/include/asm/compat.h"
	.file 17 "/mnt/disk/jenkins/ci/workspace/chipset_pipeline_release/opensource/component_code/vendor/huawei/extra/build/build_script/kirin_kernel_release/kernel/include/uapi/asm-generic/poll.h"
	.file 18 "/mnt/disk/jenkins/ci/workspace/chipset_pipeline_release/opensource/component_code/vendor/huawei/extra/build/build_script/kirin_kernel_release/kernel/arch/arm64/include/asm/thread_info.h"
	.file 19 "/mnt/disk/jenkins/ci/workspace/chipset_pipeline_release/opensource/component_code/vendor/huawei/extra/build/build_script/kirin_kernel_release/kernel/arch/arm64/include/uapi/asm/ptrace.h"
	.file 20 "/mnt/disk/jenkins/ci/workspace/chipset_pipeline_release/opensource/component_code/vendor/huawei/extra/build/build_script/kirin_kernel_release/kernel/arch/arm64/include/asm/spinlock_types.h"
	.file 21 "/mnt/disk/jenkins/ci/workspace/chipset_pipeline_release/opensource/component_code/vendor/huawei/extra/build/build_script/kirin_kernel_release/kernel/include/linux/spinlock_types.h"
	.file 22 "/mnt/disk/jenkins/ci/workspace/chipset_pipeline_release/opensource/component_code/vendor/huawei/extra/build/build_script/kirin_kernel_release/kernel/include/linux/rwlock_types.h"
	.file 23 "/mnt/disk/jenkins/ci/workspace/chipset_pipeline_release/opensource/component_code/vendor/huawei/extra/build/build_script/kirin_kernel_release/kernel/arch/arm64/include/asm/fpsimd.h"
	.file 24 "/mnt/disk/jenkins/ci/workspace/chipset_pipeline_release/opensource/component_code/vendor/huawei/extra/build/build_script/kirin_kernel_release/kernel/include/linux/jump_label.h"
	.file 25 "/mnt/disk/jenkins/ci/workspace/chipset_pipeline_release/opensource/component_code/vendor/huawei/extra/build/build_script/kirin_kernel_release/kernel/include/asm-generic/atomic-long.h"
	.file 26 "/mnt/disk/jenkins/ci/workspace/chipset_pipeline_release/opensource/component_code/vendor/huawei/extra/build/build_script/kirin_kernel_release/kernel/arch/arm64/include/asm/processor.h"
	.file 27 "/mnt/disk/jenkins/ci/workspace/chipset_pipeline_release/opensource/component_code/vendor/huawei/extra/build/build_script/kirin_kernel_release/kernel/include/linux/seqlock.h"
	.file 28 "/mnt/disk/jenkins/ci/workspace/chipset_pipeline_release/opensource/component_code/vendor/huawei/extra/build/build_script/kirin_kernel_release/kernel/include/linux/time64.h"
	.file 29 "/mnt/disk/jenkins/ci/workspace/chipset_pipeline_release/opensource/component_code/vendor/huawei/extra/build/build_script/kirin_kernel_release/kernel/include/linux/plist.h"
	.file 30 "/mnt/disk/jenkins/ci/workspace/chipset_pipeline_release/opensource/component_code/vendor/huawei/extra/build/build_script/kirin_kernel_release/kernel/include/linux/cpumask.h"
	.file 31 "/mnt/disk/jenkins/ci/workspace/chipset_pipeline_release/opensource/component_code/vendor/huawei/extra/build/build_script/kirin_kernel_release/kernel/include/linux/wait.h"
	.file 32 "/mnt/disk/jenkins/ci/workspace/chipset_pipeline_release/opensource/component_code/vendor/huawei/extra/build/build_script/kirin_kernel_release/kernel/include/linux/completion.h"
	.file 33 "/mnt/disk/jenkins/ci/workspace/chipset_pipeline_release/opensource/component_code/vendor/huawei/extra/build/build_script/kirin_kernel_release/kernel/include/linux/ktime.h"
	.file 34 "/mnt/disk/jenkins/ci/workspace/chipset_pipeline_release/opensource/component_code/vendor/huawei/extra/build/build_script/kirin_kernel_release/kernel/include/linux/rbtree.h"
	.file 35 "/mnt/disk/jenkins/ci/workspace/chipset_pipeline_release/opensource/component_code/vendor/huawei/extra/build/build_script/kirin_kernel_release/kernel/include/linux/nodemask.h"
	.file 36 "/mnt/disk/jenkins/ci/workspace/chipset_pipeline_release/opensource/component_code/vendor/huawei/extra/build/build_script/kirin_kernel_release/kernel/include/linux/osq_lock.h"
	.file 37 "/mnt/disk/jenkins/ci/workspace/chipset_pipeline_release/opensource/component_code/vendor/huawei/extra/build/build_script/kirin_kernel_release/kernel/include/linux/rwsem.h"
	.file 38 "/mnt/disk/jenkins/ci/workspace/chipset_pipeline_release/opensource/component_code/vendor/huawei/extra/build/build_script/kirin_kernel_release/kernel/include/linux/sched.h"
	.file 39 "/mnt/disk/jenkins/ci/workspace/chipset_pipeline_release/opensource/component_code/vendor/huawei/extra/build/build_script/kirin_kernel_release/kernel/include/linux/mm_types.h"
	.file 40 "/mnt/disk/jenkins/ci/workspace/chipset_pipeline_release/opensource/component_code/vendor/huawei/extra/build/build_script/kirin_kernel_release/kernel/include/linux/lockdep.h"
	.file 41 "/mnt/disk/jenkins/ci/workspace/chipset_pipeline_release/opensource/component_code/vendor/huawei/extra/build/build_script/kirin_kernel_release/kernel/include/linux/uprobes.h"
	.file 42 "/mnt/disk/jenkins/ci/workspace/chipset_pipeline_release/opensource/component_code/vendor/huawei/extra/build/build_script/kirin_kernel_release/kernel/include/linux/timer.h"
	.file 43 "/mnt/disk/jenkins/ci/workspace/chipset_pipeline_release/opensource/component_code/vendor/huawei/extra/build/build_script/kirin_kernel_release/kernel/include/linux/uidgid.h"
	.file 44 "/mnt/disk/jenkins/ci/workspace/chipset_pipeline_release/opensource/component_code/vendor/huawei/extra/build/build_script/kirin_kernel_release/kernel/include/linux/sysctl.h"
	.file 45 "/mnt/disk/jenkins/ci/workspace/chipset_pipeline_release/opensource/component_code/vendor/huawei/extra/build/build_script/kirin_kernel_release/kernel/include/linux/workqueue.h"
	.file 46 "/mnt/disk/jenkins/ci/workspace/chipset_pipeline_release/opensource/component_code/vendor/huawei/extra/build/build_script/kirin_kernel_release/kernel/arch/arm64/include/asm/pgtable-types.h"
	.file 47 "/mnt/disk/jenkins/ci/workspace/chipset_pipeline_release/opensource/component_code/vendor/huawei/extra/build/build_script/kirin_kernel_release/kernel/arch/arm64/include/asm/page.h"
	.file 48 "/mnt/disk/jenkins/ci/workspace/chipset_pipeline_release/opensource/component_code/vendor/huawei/extra/build/build_script/kirin_kernel_release/kernel/include/linux/llist.h"
	.file 49 "/mnt/disk/jenkins/ci/workspace/chipset_pipeline_release/opensource/component_code/vendor/huawei/extra/build/build_script/kirin_kernel_release/kernel/arch/arm64/include/asm/smp.h"
	.file 50 "/mnt/disk/jenkins/ci/workspace/chipset_pipeline_release/opensource/component_code/vendor/huawei/extra/build/build_script/kirin_kernel_release/kernel/arch/arm64/include/asm/mmu.h"
	.file 51 "/mnt/disk/jenkins/ci/workspace/chipset_pipeline_release/opensource/component_code/vendor/huawei/extra/build/build_script/kirin_kernel_release/kernel/include/linux/fs.h"
	.file 52 "/mnt/disk/jenkins/ci/workspace/chipset_pipeline_release/opensource/component_code/vendor/huawei/extra/build/build_script/kirin_kernel_release/kernel/include/linux/mm.h"
	.file 53 "/mnt/disk/jenkins/ci/workspace/chipset_pipeline_release/opensource/component_code/vendor/huawei/extra/build/build_script/kirin_kernel_release/kernel/include/linux/user_namespace.h"
	.file 54 "/mnt/disk/jenkins/ci/workspace/chipset_pipeline_release/opensource/component_code/vendor/huawei/extra/build/build_script/kirin_kernel_release/kernel/include/asm-generic/cputime_jiffies.h"
	.file 55 "/mnt/disk/jenkins/ci/workspace/chipset_pipeline_release/opensource/component_code/vendor/huawei/extra/build/build_script/kirin_kernel_release/kernel/include/uapi/asm-generic/signal.h"
	.file 56 "/mnt/disk/jenkins/ci/workspace/chipset_pipeline_release/opensource/component_code/vendor/huawei/extra/build/build_script/kirin_kernel_release/kernel/include/uapi/asm-generic/signal-defs.h"
	.file 57 "/mnt/disk/jenkins/ci/workspace/chipset_pipeline_release/opensource/component_code/vendor/huawei/extra/build/build_script/kirin_kernel_release/kernel/include/uapi/asm-generic/siginfo.h"
	.file 58 "/mnt/disk/jenkins/ci/workspace/chipset_pipeline_release/opensource/component_code/vendor/huawei/extra/build/build_script/kirin_kernel_release/kernel/include/linux/signal.h"
	.file 59 "/mnt/disk/jenkins/ci/workspace/chipset_pipeline_release/opensource/component_code/vendor/huawei/extra/build/build_script/kirin_kernel_release/kernel/include/linux/pid.h"
	.file 60 "/mnt/disk/jenkins/ci/workspace/chipset_pipeline_release/opensource/component_code/vendor/huawei/extra/build/build_script/kirin_kernel_release/kernel/include/linux/mmzone.h"
	.file 61 "/mnt/disk/jenkins/ci/workspace/chipset_pipeline_release/opensource/component_code/vendor/huawei/extra/build/build_script/kirin_kernel_release/kernel/include/linux/mutex.h"
	.file 62 "/mnt/disk/jenkins/ci/workspace/chipset_pipeline_release/opensource/component_code/vendor/huawei/extra/build/build_script/kirin_kernel_release/kernel/include/linux/notifier.h"
	.file 63 "/mnt/disk/jenkins/ci/workspace/chipset_pipeline_release/opensource/component_code/vendor/huawei/extra/build/build_script/kirin_kernel_release/kernel/include/linux/seccomp.h"
	.file 64 "/mnt/disk/jenkins/ci/workspace/chipset_pipeline_release/opensource/component_code/vendor/huawei/extra/build/build_script/kirin_kernel_release/kernel/include/uapi/linux/resource.h"
	.file 65 "/mnt/disk/jenkins/ci/workspace/chipset_pipeline_release/opensource/component_code/vendor/huawei/extra/build/build_script/kirin_kernel_release/kernel/include/linux/timerqueue.h"
	.file 66 "/mnt/disk/jenkins/ci/workspace/chipset_pipeline_release/opensource/component_code/vendor/huawei/extra/build/build_script/kirin_kernel_release/kernel/include/linux/hrtimer.h"
	.file 67 "/mnt/disk/jenkins/ci/workspace/chipset_pipeline_release/opensource/component_code/vendor/huawei/extra/build/build_script/kirin_kernel_release/kernel/include/linux/task_io_accounting.h"
	.file 68 "/mnt/disk/jenkins/ci/workspace/chipset_pipeline_release/opensource/component_code/vendor/huawei/extra/build/build_script/kirin_kernel_release/kernel/include/linux/assoc_array.h"
	.file 69 "/mnt/disk/jenkins/ci/workspace/chipset_pipeline_release/opensource/component_code/vendor/huawei/extra/build/build_script/kirin_kernel_release/kernel/include/linux/key.h"
	.file 70 "/mnt/disk/jenkins/ci/workspace/chipset_pipeline_release/opensource/component_code/vendor/huawei/extra/build/build_script/kirin_kernel_release/kernel/include/linux/cred.h"
	.file 71 "/mnt/disk/jenkins/ci/workspace/chipset_pipeline_release/opensource/component_code/vendor/huawei/extra/build/build_script/kirin_kernel_release/kernel/include/linux/idr.h"
	.file 72 "/mnt/disk/jenkins/ci/workspace/chipset_pipeline_release/opensource/component_code/vendor/huawei/extra/build/build_script/kirin_kernel_release/kernel/include/linux/percpu-refcount.h"
	.file 73 "/mnt/disk/jenkins/ci/workspace/chipset_pipeline_release/opensource/component_code/vendor/huawei/extra/build/build_script/kirin_kernel_release/kernel/include/linux/rcu_sync.h"
	.file 74 "/mnt/disk/jenkins/ci/workspace/chipset_pipeline_release/opensource/component_code/vendor/huawei/extra/build/build_script/kirin_kernel_release/kernel/include/linux/percpu-rwsem.h"
	.file 75 "/mnt/disk/jenkins/ci/workspace/chipset_pipeline_release/opensource/component_code/vendor/huawei/extra/build/build_script/kirin_kernel_release/kernel/include/uapi/linux/bpf.h"
	.file 76 "/mnt/disk/jenkins/ci/workspace/chipset_pipeline_release/opensource/component_code/vendor/huawei/extra/build/build_script/kirin_kernel_release/kernel/include/linux/bpf-cgroup.h"
	.file 77 "/mnt/disk/jenkins/ci/workspace/chipset_pipeline_release/opensource/component_code/vendor/huawei/extra/build/build_script/kirin_kernel_release/kernel/include/linux/filter.h"
	.file 78 "/mnt/disk/jenkins/ci/workspace/chipset_pipeline_release/opensource/component_code/vendor/huawei/extra/build/build_script/kirin_kernel_release/kernel/include/linux/cgroup-defs.h"
	.file 79 "/mnt/disk/jenkins/ci/workspace/chipset_pipeline_release/opensource/component_code/vendor/huawei/extra/build/build_script/kirin_kernel_release/kernel/include/linux/kernfs.h"
	.file 80 "/mnt/disk/jenkins/ci/workspace/chipset_pipeline_release/opensource/component_code/vendor/huawei/extra/build/build_script/kirin_kernel_release/kernel/include/linux/seq_file.h"
	.file 81 "/mnt/disk/jenkins/ci/workspace/chipset_pipeline_release/opensource/component_code/vendor/huawei/extra/build/build_script/kirin_kernel_release/kernel/include/uapi/linux/taskstats.h"
	.file 82 "/mnt/disk/jenkins/ci/workspace/chipset_pipeline_release/opensource/component_code/vendor/huawei/extra/build/build_script/kirin_kernel_release/kernel/include/linux/nsproxy.h"
	.file 83 "/mnt/disk/jenkins/ci/workspace/chipset_pipeline_release/opensource/component_code/vendor/huawei/extra/build/build_script/kirin_kernel_release/kernel/include/linux/backing-dev-defs.h"
	.file 84 "/mnt/disk/jenkins/ci/workspace/chipset_pipeline_release/opensource/component_code/vendor/huawei/extra/build/build_script/kirin_kernel_release/kernel/include/linux/compat.h"
	.file 85 "/mnt/disk/jenkins/ci/workspace/chipset_pipeline_release/opensource/component_code/vendor/huawei/extra/build/build_script/kirin_kernel_release/kernel/include/linux/pipe_fs_i.h"
	.file 86 "/mnt/disk/jenkins/ci/workspace/chipset_pipeline_release/opensource/component_code/vendor/huawei/extra/build/build_script/kirin_kernel_release/kernel/include/linux/stat.h"
	.file 87 "/mnt/disk/jenkins/ci/workspace/chipset_pipeline_release/opensource/component_code/vendor/huawei/extra/build/build_script/kirin_kernel_release/kernel/include/uapi/linux/elf.h"
	.file 88 "/mnt/disk/jenkins/ci/workspace/chipset_pipeline_release/opensource/component_code/vendor/huawei/extra/build/build_script/kirin_kernel_release/kernel/include/linux/kobject_ns.h"
	.file 89 "/mnt/disk/jenkins/ci/workspace/chipset_pipeline_release/opensource/component_code/vendor/huawei/extra/build/build_script/kirin_kernel_release/kernel/include/net/sock.h"
	.file 90 "/mnt/disk/jenkins/ci/workspace/chipset_pipeline_release/opensource/component_code/vendor/huawei/extra/build/build_script/kirin_kernel_release/kernel/include/linux/sysfs.h"
	.file 91 "/mnt/disk/jenkins/ci/workspace/chipset_pipeline_release/opensource/component_code/vendor/huawei/extra/build/build_script/kirin_kernel_release/kernel/include/linux/kobject.h"
	.file 92 "/mnt/disk/jenkins/ci/workspace/chipset_pipeline_release/opensource/component_code/vendor/huawei/extra/build/build_script/kirin_kernel_release/kernel/include/linux/kref.h"
	.file 93 "/mnt/disk/jenkins/ci/workspace/chipset_pipeline_release/opensource/component_code/vendor/huawei/extra/build/build_script/kirin_kernel_release/kernel/include/linux/moduleparam.h"
	.file 94 "/mnt/disk/jenkins/ci/workspace/chipset_pipeline_release/opensource/component_code/vendor/huawei/extra/build/build_script/kirin_kernel_release/kernel/include/linux/module.h"
	.file 95 "/mnt/disk/jenkins/ci/workspace/chipset_pipeline_release/opensource/component_code/vendor/huawei/extra/build/build_script/kirin_kernel_release/kernel/include/linux/rbtree_latch.h"
	.file 96 "/mnt/disk/jenkins/ci/workspace/chipset_pipeline_release/opensource/component_code/vendor/huawei/extra/build/build_script/kirin_kernel_release/kernel/arch/arm64/include/asm/module.h"
	.file 97 "/mnt/disk/jenkins/ci/workspace/chipset_pipeline_release/opensource/component_code/vendor/huawei/extra/build/build_script/kirin_kernel_release/kernel/arch/arm64/include/asm/uaccess.h"
	.file 98 "/mnt/disk/jenkins/ci/workspace/chipset_pipeline_release/opensource/component_code/vendor/huawei/extra/build/build_script/kirin_kernel_release/kernel/include/linux/tracepoint-defs.h"
	.file 99 "/mnt/disk/jenkins/ci/workspace/chipset_pipeline_release/opensource/component_code/vendor/huawei/extra/build/build_script/kirin_kernel_release/kernel/include/linux/klist.h"
	.file 100 "/mnt/disk/jenkins/ci/workspace/chipset_pipeline_release/opensource/component_code/vendor/huawei/extra/build/build_script/kirin_kernel_release/kernel/include/linux/list_bl.h"
	.file 101 "/mnt/disk/jenkins/ci/workspace/chipset_pipeline_release/opensource/component_code/vendor/huawei/extra/build/build_script/kirin_kernel_release/kernel/include/linux/lockref.h"
	.file 102 "/mnt/disk/jenkins/ci/workspace/chipset_pipeline_release/opensource/component_code/vendor/huawei/extra/build/build_script/kirin_kernel_release/kernel/include/linux/dcache.h"
	.file 103 "/mnt/disk/jenkins/ci/workspace/chipset_pipeline_release/opensource/component_code/vendor/huawei/extra/build/build_script/kirin_kernel_release/kernel/include/linux/path.h"
	.file 104 "/mnt/disk/jenkins/ci/workspace/chipset_pipeline_release/opensource/component_code/vendor/huawei/extra/build/build_script/kirin_kernel_release/kernel/include/linux/shrinker.h"
	.file 105 "/mnt/disk/jenkins/ci/workspace/chipset_pipeline_release/opensource/component_code/vendor/huawei/extra/build/build_script/kirin_kernel_release/kernel/include/linux/list_lru.h"
	.file 106 "/mnt/disk/jenkins/ci/workspace/chipset_pipeline_release/opensource/component_code/vendor/huawei/extra/build/build_script/kirin_kernel_release/kernel/include/linux/radix-tree.h"
	.file 107 "/mnt/disk/jenkins/ci/workspace/chipset_pipeline_release/opensource/component_code/vendor/huawei/extra/build/build_script/kirin_kernel_release/kernel/include/uapi/linux/fiemap.h"
	.file 108 "/mnt/disk/jenkins/ci/workspace/chipset_pipeline_release/opensource/component_code/vendor/huawei/extra/build/build_script/kirin_kernel_release/kernel/include/linux/migrate_mode.h"
	.file 109 "/mnt/disk/jenkins/ci/workspace/chipset_pipeline_release/opensource/component_code/vendor/huawei/extra/build/build_script/kirin_kernel_release/kernel/include/linux/bvec.h"
	.file 110 "/mnt/disk/jenkins/ci/workspace/chipset_pipeline_release/opensource/component_code/vendor/huawei/extra/build/build_script/kirin_kernel_release/kernel/include/linux/delayed_call.h"
	.file 111 "/mnt/disk/jenkins/ci/workspace/chipset_pipeline_release/opensource/component_code/vendor/huawei/extra/build/build_script/kirin_kernel_release/kernel/include/linux/percpu_counter.h"
	.file 112 "/mnt/disk/jenkins/ci/workspace/chipset_pipeline_release/opensource/component_code/vendor/huawei/extra/build/build_script/kirin_kernel_release/kernel/include/linux/quota.h"
	.file 113 "/mnt/disk/jenkins/ci/workspace/chipset_pipeline_release/opensource/component_code/vendor/huawei/extra/build/build_script/kirin_kernel_release/kernel/include/linux/projid.h"
	.file 114 "/mnt/disk/jenkins/ci/workspace/chipset_pipeline_release/opensource/component_code/vendor/huawei/extra/build/build_script/kirin_kernel_release/kernel/include/linux/writeback.h"
	.file 115 "/mnt/disk/jenkins/ci/workspace/chipset_pipeline_release/opensource/component_code/vendor/huawei/extra/build/build_script/kirin_kernel_release/kernel/include/linux/uio.h"
	.file 116 "/mnt/disk/jenkins/ci/workspace/chipset_pipeline_release/opensource/component_code/vendor/huawei/extra/build/build_script/kirin_kernel_release/kernel/include/linux/nfs_fs_i.h"
	.file 117 "/mnt/disk/jenkins/ci/workspace/chipset_pipeline_release/opensource/component_code/vendor/huawei/extra/build/build_script/kirin_kernel_release/kernel/include/linux/poll.h"
	.file 118 "/mnt/disk/jenkins/ci/workspace/chipset_pipeline_release/opensource/component_code/vendor/huawei/extra/build/build_script/kirin_kernel_release/kernel/include/linux/pinctrl/devinfo.h"
	.file 119 "/mnt/disk/jenkins/ci/workspace/chipset_pipeline_release/opensource/component_code/vendor/huawei/extra/build/build_script/kirin_kernel_release/kernel/include/linux/pm.h"
	.file 120 "/mnt/disk/jenkins/ci/workspace/chipset_pipeline_release/opensource/component_code/vendor/huawei/extra/build/build_script/kirin_kernel_release/kernel/include/linux/device.h"
	.file 121 "/mnt/disk/jenkins/ci/workspace/chipset_pipeline_release/opensource/component_code/vendor/huawei/extra/build/build_script/kirin_kernel_release/kernel/include/linux/pm_wakeup.h"
	.file 122 "/mnt/disk/jenkins/ci/workspace/chipset_pipeline_release/opensource/component_code/vendor/huawei/extra/build/build_script/kirin_kernel_release/kernel/arch/arm64/include/asm/device.h"
	.file 123 "/mnt/disk/jenkins/ci/workspace/chipset_pipeline_release/opensource/component_code/vendor/huawei/extra/build/build_script/kirin_kernel_release/kernel/include/linux/dma-mapping.h"
	.file 124 "/mnt/disk/jenkins/ci/workspace/chipset_pipeline_release/opensource/component_code/vendor/huawei/extra/build/build_script/kirin_kernel_release/kernel/include/linux/mod_devicetable.h"
	.file 125 "/mnt/disk/jenkins/ci/workspace/chipset_pipeline_release/opensource/component_code/vendor/huawei/extra/build/build_script/kirin_kernel_release/kernel/include/linux/of.h"
	.file 126 "/mnt/disk/jenkins/ci/workspace/chipset_pipeline_release/opensource/component_code/vendor/huawei/extra/build/build_script/kirin_kernel_release/kernel/include/linux/fwnode.h"
	.file 127 "/mnt/disk/jenkins/ci/workspace/chipset_pipeline_release/opensource/component_code/vendor/huawei/extra/build/build_script/kirin_kernel_release/kernel/include/uapi/linux/uio.h"
	.file 128 "/mnt/disk/jenkins/ci/workspace/chipset_pipeline_release/opensource/component_code/vendor/huawei/extra/build/build_script/kirin_kernel_release/kernel/include/linux/vm_event_item.h"
	.file 129 "/mnt/disk/jenkins/ci/workspace/chipset_pipeline_release/opensource/component_code/vendor/huawei/extra/build/build_script/kirin_kernel_release/kernel/include/linux/vmstat.h"
	.file 130 "/mnt/disk/jenkins/ci/workspace/chipset_pipeline_release/opensource/component_code/vendor/huawei/extra/build/build_script/kirin_kernel_release/kernel/include/linux/scatterlist.h"
	.file 131 "/mnt/disk/jenkins/ci/workspace/chipset_pipeline_release/opensource/component_code/vendor/huawei/extra/build/build_script/kirin_kernel_release/kernel/include/linux/dmaengine.h"
	.file 132 "/mnt/disk/jenkins/ci/workspace/chipset_pipeline_release/opensource/component_code/vendor/huawei/extra/build/build_script/kirin_kernel_release/kernel/include/linux/dynamic_queue_limits.h"
	.file 133 "/mnt/disk/jenkins/ci/workspace/chipset_pipeline_release/opensource/component_code/vendor/huawei/extra/build/build_script/kirin_kernel_release/kernel/include/uapi/linux/socket.h"
	.file 134 "/mnt/disk/jenkins/ci/workspace/chipset_pipeline_release/opensource/component_code/vendor/huawei/extra/build/build_script/kirin_kernel_release/kernel/include/linux/socket.h"
	.file 135 "/mnt/disk/jenkins/ci/workspace/chipset_pipeline_release/opensource/component_code/vendor/huawei/extra/build/build_script/kirin_kernel_release/kernel/include/uapi/linux/hdlc/ioctl.h"
	.file 136 "/mnt/disk/jenkins/ci/workspace/chipset_pipeline_release/opensource/component_code/vendor/huawei/extra/build/build_script/kirin_kernel_release/kernel/include/uapi/linux/if.h"
	.file 137 "/mnt/disk/jenkins/ci/workspace/chipset_pipeline_release/opensource/component_code/vendor/huawei/extra/build/build_script/kirin_kernel_release/kernel/include/linux/stddef.h"
	.file 138 "/mnt/disk/jenkins/ci/workspace/chipset_pipeline_release/opensource/component_code/vendor/huawei/extra/build/build_script/kirin_kernel_release/kernel/include/uapi/linux/net.h"
	.file 139 "/mnt/disk/jenkins/ci/workspace/chipset_pipeline_release/opensource/component_code/vendor/huawei/extra/build/build_script/kirin_kernel_release/kernel/include/linux/net.h"
	.file 140 "/mnt/disk/jenkins/ci/workspace/chipset_pipeline_release/opensource/component_code/vendor/huawei/extra/build/build_script/kirin_kernel_release/kernel/include/linux/skbuff.h"
	.file 141 "/mnt/disk/jenkins/ci/workspace/chipset_pipeline_release/opensource/component_code/vendor/huawei/extra/build/build_script/kirin_kernel_release/kernel/include/net/net_namespace.h"
	.file 142 "/mnt/disk/jenkins/ci/workspace/chipset_pipeline_release/opensource/component_code/vendor/huawei/extra/build/build_script/kirin_kernel_release/kernel/include/linux/dma-direction.h"
	.file 143 "/mnt/disk/jenkins/ci/workspace/chipset_pipeline_release/opensource/component_code/vendor/huawei/extra/build/build_script/kirin_kernel_release/kernel/include/linux/netdev_features.h"
	.file 144 "/mnt/disk/jenkins/ci/workspace/chipset_pipeline_release/opensource/component_code/vendor/huawei/extra/build/build_script/kirin_kernel_release/kernel/include/uapi/linux/in6.h"
	.file 145 "/mnt/disk/jenkins/ci/workspace/chipset_pipeline_release/opensource/component_code/vendor/huawei/extra/build/build_script/kirin_kernel_release/kernel/include/uapi/linux/if_ether.h"
	.file 146 "/mnt/disk/jenkins/ci/workspace/chipset_pipeline_release/opensource/component_code/vendor/huawei/extra/build/build_script/kirin_kernel_release/kernel/include/net/flow_dissector.h"
	.file 147 "/mnt/disk/jenkins/ci/workspace/chipset_pipeline_release/opensource/component_code/vendor/huawei/extra/build/build_script/kirin_kernel_release/kernel/include/net/flow.h"
	.file 148 "/mnt/disk/jenkins/ci/workspace/chipset_pipeline_release/opensource/component_code/vendor/huawei/extra/build/build_script/kirin_kernel_release/kernel/include/linux/netdevice.h"
	.file 149 "/mnt/disk/jenkins/ci/workspace/chipset_pipeline_release/opensource/component_code/vendor/huawei/extra/build/build_script/kirin_kernel_release/kernel/include/uapi/linux/ethtool.h"
	.file 150 "/mnt/disk/jenkins/ci/workspace/chipset_pipeline_release/opensource/component_code/vendor/huawei/extra/build/build_script/kirin_kernel_release/kernel/include/linux/ethtool.h"
	.file 151 "/mnt/disk/jenkins/ci/workspace/chipset_pipeline_release/opensource/component_code/vendor/huawei/extra/build/build_script/kirin_kernel_release/kernel/include/net/netns/core.h"
	.file 152 "/mnt/disk/jenkins/ci/workspace/chipset_pipeline_release/opensource/component_code/vendor/huawei/extra/build/build_script/kirin_kernel_release/kernel/include/uapi/linux/snmp.h"
	.file 153 "/mnt/disk/jenkins/ci/workspace/chipset_pipeline_release/opensource/component_code/vendor/huawei/extra/build/build_script/kirin_kernel_release/kernel/include/linux/u64_stats_sync.h"
	.file 154 "/mnt/disk/jenkins/ci/workspace/chipset_pipeline_release/opensource/component_code/vendor/huawei/extra/build/build_script/kirin_kernel_release/kernel/include/net/snmp.h"
	.file 155 "/mnt/disk/jenkins/ci/workspace/chipset_pipeline_release/opensource/component_code/vendor/huawei/extra/build/build_script/kirin_kernel_release/kernel/include/net/netns/mib.h"
	.file 156 "/mnt/disk/jenkins/ci/workspace/chipset_pipeline_release/opensource/component_code/vendor/huawei/extra/build/build_script/kirin_kernel_release/kernel/include/net/netns/unix.h"
	.file 157 "/mnt/disk/jenkins/ci/workspace/chipset_pipeline_release/opensource/component_code/vendor/huawei/extra/build/build_script/kirin_kernel_release/kernel/include/net/netns/packet.h"
	.file 158 "/mnt/disk/jenkins/ci/workspace/chipset_pipeline_release/opensource/component_code/vendor/huawei/extra/build/build_script/kirin_kernel_release/kernel/include/net/inet_frag.h"
	.file 159 "/mnt/disk/jenkins/ci/workspace/chipset_pipeline_release/opensource/component_code/vendor/huawei/extra/build/build_script/kirin_kernel_release/kernel/include/net/netns/ipv4.h"
	.file 160 "/mnt/disk/jenkins/ci/workspace/chipset_pipeline_release/opensource/component_code/vendor/huawei/extra/build/build_script/kirin_kernel_release/kernel/include/net/fib_rules.h"
	.file 161 "/mnt/disk/jenkins/ci/workspace/chipset_pipeline_release/opensource/component_code/vendor/huawei/extra/build/build_script/kirin_kernel_release/kernel/include/net/dst_ops.h"
	.file 162 "/mnt/disk/jenkins/ci/workspace/chipset_pipeline_release/opensource/component_code/vendor/huawei/extra/build/build_script/kirin_kernel_release/kernel/include/net/dst.h"
	.file 163 "/mnt/disk/jenkins/ci/workspace/chipset_pipeline_release/opensource/component_code/vendor/huawei/extra/build/build_script/kirin_kernel_release/kernel/include/net/neighbour.h"
	.file 164 "/mnt/disk/jenkins/ci/workspace/chipset_pipeline_release/opensource/component_code/vendor/huawei/extra/build/build_script/kirin_kernel_release/kernel/include/net/netns/ipv6.h"
	.file 165 "/mnt/disk/jenkins/ci/workspace/chipset_pipeline_release/opensource/component_code/vendor/huawei/extra/build/build_script/kirin_kernel_release/kernel/include/net/netns/mptcp.h"
	.file 166 "/mnt/disk/jenkins/ci/workspace/chipset_pipeline_release/opensource/component_code/vendor/huawei/extra/build/build_script/kirin_kernel_release/kernel/include/uapi/linux/netfilter.h"
	.file 167 "/mnt/disk/jenkins/ci/workspace/chipset_pipeline_release/opensource/component_code/vendor/huawei/extra/build/build_script/kirin_kernel_release/kernel/include/net/netns/netfilter.h"
	.file 168 "/mnt/disk/jenkins/ci/workspace/chipset_pipeline_release/opensource/component_code/vendor/huawei/extra/build/build_script/kirin_kernel_release/kernel/include/linux/netfilter.h"
	.file 169 "/mnt/disk/jenkins/ci/workspace/chipset_pipeline_release/opensource/component_code/vendor/huawei/extra/build/build_script/kirin_kernel_release/kernel/include/net/netns/x_tables.h"
	.file 170 "/mnt/disk/jenkins/ci/workspace/chipset_pipeline_release/opensource/component_code/vendor/huawei/extra/build/build_script/kirin_kernel_release/kernel/include/linux/list_nulls.h"
	.file 171 "/mnt/disk/jenkins/ci/workspace/chipset_pipeline_release/opensource/component_code/vendor/huawei/extra/build/build_script/kirin_kernel_release/kernel/include/uapi/linux/netfilter/nf_conntrack_tcp.h"
	.file 172 "/mnt/disk/jenkins/ci/workspace/chipset_pipeline_release/opensource/component_code/vendor/huawei/extra/build/build_script/kirin_kernel_release/kernel/include/net/netns/conntrack.h"
	.file 173 "/mnt/disk/jenkins/ci/workspace/chipset_pipeline_release/opensource/component_code/vendor/huawei/extra/build/build_script/kirin_kernel_release/kernel/include/net/netns/nftables.h"
	.file 174 "/mnt/disk/jenkins/ci/workspace/chipset_pipeline_release/opensource/component_code/vendor/huawei/extra/build/build_script/kirin_kernel_release/kernel/include/uapi/linux/xfrm.h"
	.file 175 "/mnt/disk/jenkins/ci/workspace/chipset_pipeline_release/opensource/component_code/vendor/huawei/extra/build/build_script/kirin_kernel_release/kernel/include/linux/interrupt.h"
	.file 176 "/mnt/disk/jenkins/ci/workspace/chipset_pipeline_release/opensource/component_code/vendor/huawei/extra/build/build_script/kirin_kernel_release/kernel/include/net/flowcache.h"
	.file 177 "/mnt/disk/jenkins/ci/workspace/chipset_pipeline_release/opensource/component_code/vendor/huawei/extra/build/build_script/kirin_kernel_release/kernel/include/net/netns/xfrm.h"
	.file 178 "/mnt/disk/jenkins/ci/workspace/chipset_pipeline_release/opensource/component_code/vendor/huawei/extra/build/build_script/kirin_kernel_release/kernel/include/linux/ns_common.h"
	.file 179 "/mnt/disk/jenkins/ci/workspace/chipset_pipeline_release/opensource/component_code/vendor/huawei/extra/build/build_script/kirin_kernel_release/kernel/include/linux/cgroup.h"
	.file 180 "/mnt/disk/jenkins/ci/workspace/chipset_pipeline_release/opensource/component_code/vendor/huawei/extra/build/build_script/kirin_kernel_release/kernel/include/linux/mdio.h"
	.file 181 "/mnt/disk/jenkins/ci/workspace/chipset_pipeline_release/opensource/component_code/vendor/huawei/extra/build/build_script/kirin_kernel_release/kernel/include/linux/phy.h"
	.file 182 "/mnt/disk/jenkins/ci/workspace/chipset_pipeline_release/opensource/component_code/vendor/huawei/extra/build/build_script/kirin_kernel_release/kernel/include/uapi/linux/netlink.h"
	.file 183 "/mnt/disk/jenkins/ci/workspace/chipset_pipeline_release/opensource/component_code/vendor/huawei/extra/build/build_script/kirin_kernel_release/kernel/include/linux/netlink.h"
	.file 184 "/mnt/disk/jenkins/ci/workspace/chipset_pipeline_release/opensource/component_code/vendor/huawei/extra/build/build_script/kirin_kernel_release/kernel/include/uapi/linux/neighbour.h"
	.file 185 "/mnt/disk/jenkins/ci/workspace/chipset_pipeline_release/opensource/component_code/vendor/huawei/extra/build/build_script/kirin_kernel_release/kernel/include/uapi/linux/if_link.h"
	.file 186 "/mnt/disk/jenkins/ci/workspace/chipset_pipeline_release/opensource/component_code/vendor/huawei/extra/build/build_script/kirin_kernel_release/kernel/include/linux/if_link.h"
	.file 187 "/mnt/disk/jenkins/ci/workspace/chipset_pipeline_release/opensource/component_code/vendor/huawei/extra/build/build_script/kirin_kernel_release/kernel/include/uapi/linux/pkt_sched.h"
	.file 188 "/mnt/disk/jenkins/ci/workspace/chipset_pipeline_release/opensource/component_code/vendor/huawei/extra/build/build_script/kirin_kernel_release/kernel/include/net/sch_generic.h"
	.file 189 "/mnt/disk/jenkins/ci/workspace/chipset_pipeline_release/opensource/component_code/vendor/huawei/extra/build/build_script/kirin_kernel_release/kernel/include/net/rtnetlink.h"
	.file 190 "/mnt/disk/jenkins/ci/workspace/chipset_pipeline_release/opensource/component_code/vendor/huawei/extra/build/build_script/kirin_kernel_release/kernel/include/linux/flex_proportions.h"
	.file 191 "/mnt/disk/jenkins/ci/workspace/chipset_pipeline_release/opensource/component_code/vendor/huawei/extra/build/build_script/kirin_kernel_release/kernel/include/uapi/linux/gen_stats.h"
	.file 192 "/mnt/disk/jenkins/ci/workspace/chipset_pipeline_release/opensource/component_code/vendor/huawei/extra/build/build_script/kirin_kernel_release/kernel/include/uapi/linux/rtnetlink.h"
	.file 193 "/mnt/disk/jenkins/ci/workspace/chipset_pipeline_release/opensource/component_code/vendor/huawei/extra/build/build_script/kirin_kernel_release/kernel/include/net/gen_stats.h"
	.file 194 "/mnt/disk/jenkins/ci/workspace/chipset_pipeline_release/opensource/component_code/vendor/huawei/extra/build/build_script/kirin_kernel_release/kernel/include/net/netlink.h"
	.file 195 "/mnt/disk/jenkins/ci/workspace/chipset_pipeline_release/opensource/component_code/vendor/huawei/extra/build/build_script/kirin_kernel_release/kernel/include/uapi/linux/filter.h"
	.file 196 "/mnt/disk/jenkins/ci/workspace/chipset_pipeline_release/opensource/component_code/vendor/huawei/extra/build/build_script/kirin_kernel_release/kernel/include/huawei_platform/emcom/smartcare/network_measurement/nm_types.h"
	.file 197 "/mnt/disk/jenkins/ci/workspace/chipset_pipeline_release/opensource/component_code/vendor/huawei/extra/build/build_script/kirin_kernel_release/kernel/include/net/inet_timewait_sock.h"
	.file 198 "/mnt/disk/jenkins/ci/workspace/chipset_pipeline_release/opensource/component_code/vendor/huawei/extra/build/build_script/kirin_kernel_release/kernel/include/net/request_sock.h"
	.file 199 "/mnt/disk/jenkins/ci/workspace/chipset_pipeline_release/opensource/component_code/vendor/huawei/extra/build/build_script/kirin_kernel_release/kernel/include/net/timewait_sock.h"
	.file 200 "/mnt/disk/jenkins/ci/workspace/chipset_pipeline_release/opensource/component_code/vendor/huawei/extra/build/build_script/kirin_kernel_release/kernel/include/uapi/linux/fib_rules.h"
	.file 201 "/mnt/disk/jenkins/ci/workspace/chipset_pipeline_release/opensource/component_code/vendor/huawei/extra/build/build_script/kirin_kernel_release/kernel/include/huawei_platform/log/hw_log.h"
	.file 202 "/mnt/disk/jenkins/ci/workspace/chipset_pipeline_release/opensource/component_code/vendor/huawei/extra/build/build_script/kirin_kernel_release/kernel/drivers/huawei_platform/net/hw_netfilter/nf_app_dl_monitor.h"
	.file 203 "/mnt/disk/jenkins/ci/workspace/chipset_pipeline_release/opensource/component_code/vendor/huawei/extra/build/build_script/kirin_kernel_release/kernel/include/asm-generic/bitops/builtin-__fls.h"
	.file 204 "/mnt/disk/jenkins/ci/workspace/chipset_pipeline_release/opensource/component_code/vendor/huawei/extra/build/build_script/kirin_kernel_release/kernel/include/asm-generic/bitops/fls64.h"
	.file 205 "/mnt/disk/jenkins/ci/workspace/chipset_pipeline_release/opensource/component_code/vendor/huawei/extra/build/build_script/kirin_kernel_release/kernel/include/linux/log2.h"
	.file 206 "/mnt/disk/jenkins/ci/workspace/chipset_pipeline_release/opensource/component_code/vendor/huawei/extra/build/build_script/kirin_kernel_release/kernel/include/asm-generic/getorder.h"
	.file 207 "/mnt/disk/jenkins/ci/workspace/chipset_pipeline_release/opensource/component_code/vendor/huawei/extra/build/build_script/kirin_kernel_release/kernel/include/huawei_platform/emcom/argo/tcp_argo.h"
	.file 208 "/mnt/disk/jenkins/ci/workspace/chipset_pipeline_release/opensource/component_code/vendor/huawei/extra/build/build_script/kirin_kernel_release/kernel/arch/arm64/include/asm/cachetype.h"
	.file 209 "/mnt/disk/jenkins/ci/workspace/chipset_pipeline_release/opensource/component_code/vendor/huawei/extra/build/build_script/kirin_kernel_release/kernel/include/linux/printk.h"
	.file 210 "/mnt/disk/jenkins/ci/workspace/chipset_pipeline_release/opensource/component_code/vendor/huawei/extra/build/build_script/kirin_kernel_release/kernel/include/linux/kernel.h"
	.file 211 "/mnt/disk/jenkins/ci/workspace/chipset_pipeline_release/opensource/component_code/vendor/huawei/extra/build/build_script/kirin_kernel_release/kernel/arch/arm64/include/asm/stack_pointer.h"
	.file 212 "/mnt/disk/jenkins/ci/workspace/chipset_pipeline_release/opensource/component_code/vendor/huawei/extra/build/build_script/kirin_kernel_release/kernel/arch/arm64/include/asm/hwcap.h"
	.file 213 "/mnt/disk/jenkins/ci/workspace/chipset_pipeline_release/opensource/component_code/vendor/huawei/extra/build/build_script/kirin_kernel_release/kernel/arch/arm64/include/asm/cpufeature.h"
	.file 214 "/mnt/disk/jenkins/ci/workspace/chipset_pipeline_release/opensource/component_code/vendor/huawei/extra/build/build_script/kirin_kernel_release/kernel/arch/arm64/include/asm/virt.h"
	.file 215 "/mnt/disk/jenkins/ci/workspace/chipset_pipeline_release/opensource/component_code/vendor/huawei/extra/build/build_script/kirin_kernel_release/kernel/include/linux/jiffies.h"
	.file 216 "/mnt/disk/jenkins/ci/workspace/chipset_pipeline_release/opensource/component_code/vendor/huawei/extra/build/build_script/kirin_kernel_release/kernel/include/linux/highuid.h"
	.file 217 "/mnt/disk/jenkins/ci/workspace/chipset_pipeline_release/opensource/component_code/vendor/huawei/extra/build/build_script/kirin_kernel_release/kernel/arch/arm64/include/asm/memory.h"
	.file 218 "/mnt/disk/jenkins/ci/workspace/chipset_pipeline_release/opensource/component_code/vendor/huawei/extra/build/build_script/kirin_kernel_release/kernel/include/asm-generic/percpu.h"
	.file 219 "/mnt/disk/jenkins/ci/workspace/chipset_pipeline_release/opensource/component_code/vendor/huawei/extra/build/build_script/kirin_kernel_release/kernel/include/asm-generic/pgtable.h"
	.file 220 "/mnt/disk/jenkins/ci/workspace/chipset_pipeline_release/opensource/component_code/vendor/huawei/extra/build/build_script/kirin_kernel_release/kernel/include/linux/debug_locks.h"
	.file 221 "/mnt/disk/jenkins/ci/workspace/chipset_pipeline_release/opensource/component_code/vendor/huawei/extra/build/build_script/kirin_kernel_release/kernel/arch/arm64/include/../../arm/include/asm/xen/hypervisor.h"
	.file 222 "/mnt/disk/jenkins/ci/workspace/chipset_pipeline_release/opensource/component_code/vendor/huawei/extra/build/build_script/kirin_kernel_release/kernel/arch/arm64/include/asm/dma-mapping.h"
	.file 223 "/mnt/disk/jenkins/ci/workspace/chipset_pipeline_release/opensource/component_code/vendor/huawei/extra/build/build_script/kirin_kernel_release/kernel/arch/arm64/include/asm/irq.h"
	.file 224 "/mnt/disk/jenkins/ci/workspace/chipset_pipeline_release/opensource/component_code/vendor/huawei/extra/build/build_script/kirin_kernel_release/kernel/arch/arm64/include/asm/hardirq.h"
	.file 225 "/mnt/disk/jenkins/ci/workspace/chipset_pipeline_release/opensource/component_code/vendor/huawei/extra/build/build_script/kirin_kernel_release/kernel/include/net/inet_connection_sock.h"
	.file 226 "/mnt/disk/jenkins/ci/workspace/chipset_pipeline_release/opensource/component_code/vendor/huawei/extra/build/build_script/kirin_kernel_release/kernel/include/linux/ctype.h"
	.file 227 "/mnt/disk/jenkins/ci/workspace/chipset_pipeline_release/opensource/component_code/vendor/huawei/extra/build/build_script/kirin_kernel_release/kernel/include/linux/spinlock_api_smp.h"
	.file 228 "/mnt/disk/jenkins/ci/workspace/chipset_pipeline_release/opensource/component_code/vendor/huawei/extra/build/build_script/kirin_kernel_release/kernel/drivers/huawei_platform/net/hw_netfilter/nf_hw_common.h"
	.file 229 "/mnt/disk/jenkins/ci/workspace/chipset_pipeline_release/opensource/component_code/vendor/huawei/extra/build/build_script/kirin_kernel_release/kernel/arch/arm64/include/asm/string.h"
	.file 230 "/mnt/disk/jenkins/ci/workspace/chipset_pipeline_release/opensource/component_code/vendor/huawei/extra/build/build_script/kirin_kernel_release/kernel/include/asm-generic/delay.h"
	.file 231 "<built-in>"
	.section	.note.GNU-stack,"",%progbits
