	.cpu generic+fp+simd
	.file	"public.c"
	.text
.Ltext0:
	.cfi_sections	.debug_frame
	.align	2
	.global	IsDprintTypeEnable
	.type	IsDprintTypeEnable, %function
IsDprintTypeEnable:
.LFB2650:
	.file 1 "/mnt/disk/jenkins/ci/workspace/chipset_pipeline_release/opensource/component_code/vendor/huawei/extra/build/build_script/kirin_kernel_release/kernel/drivers/vcodec/hi_vcodec/vdec/vfmw/vfmw_v4.0/firmware/common/public.c"
	.loc 1 356 0
	.cfi_startproc
.LVL0:
	.loc 1 357 0
	cmp	w0, 32
	beq	.L3
	.loc 1 357 0 is_stmt 0 discriminator 1
	mov	w1, 1
	lsl	w0, w1, w0
.LVL1:
	adrp	x1, .LANCHOR0
	ldr	w1, [x1,#:lo12:.LANCHOR0]
	tst	w0, w1
	cset	w0, ne
	.loc 1 363 0 is_stmt 1
	ret
.LVL2:
.L3:
	.loc 1 362 0
	mov	w0, 1
.LVL3:
	.loc 1 363 0
	ret
	.cfi_endproc
.LFE2650:
	.size	IsDprintTypeEnable, .-IsDprintTypeEnable
	.align	2
	.global	vfmw_dprint_nothing
	.type	vfmw_dprint_nothing, %function
vfmw_dprint_nothing:
.LFB2651:
	.loc 1 366 0
	.cfi_startproc
	.loc 1 368 0
	ret
	.cfi_endproc
.LFE2651:
	.size	vfmw_dprint_nothing, .-vfmw_dprint_nothing
	.align	2
	.global	dprint_linux_kernel
	.type	dprint_linux_kernel, %function
dprint_linux_kernel:
.LFB2652:
	.loc 1 372 0
	.cfi_startproc
.LVL4:
	stp	x29, x30, [sp, -176]!
	.cfi_def_cfa_offset 176
	.cfi_offset 29, -176
	.cfi_offset 30, -168
	.loc 1 377 0
	cmp	w0, 32
	.loc 1 372 0
	add	x29, sp, 0
	.cfi_def_cfa_register 29
	stp	x19, x20, [sp,16]
	.cfi_offset 19, -160
	.cfi_offset 20, -152
	adrp	x20, __stack_chk_guard
	str	x21, [sp,32]
	.cfi_offset 21, -144
	.loc 1 372 0
	str	x2, [x29,128]
	mov	x2, x1
	str	x3, [x29,136]
	ldr	x1, [x20,#:lo12:__stack_chk_guard]
.LVL5:
	str	x1, [x29,120]
	.loc 1 377 0 discriminator 1
	adrp	x1, .LANCHOR0
	.loc 1 372 0
	str	x4, [x29,144]
	str	x5, [x29,152]
	str	x6, [x29,160]
	str	x7, [x29,168]
	.loc 1 377 0
	beq	.L7
	.loc 1 377 0 is_stmt 0 discriminator 1
	mov	w3, 1
	lsl	w0, w3, w0
.LVL6:
	ldr	w3, [x1,#:lo12:.LANCHOR0]
	tst	w0, w3
	beq	.L9
.LVL7:
.L7:
	.loc 1 382 0 is_stmt 1
	add	x0, x29, 176
.LVL8:
	add	x4, x29, 88
	str	x0, [x29,88]
	.loc 1 383 0
	add	x19, x1, :lo12:.LANCHOR0
	.loc 1 382 0
	str	x0, [x29,96]
	add	x0, x29, 128
	str	wzr, [x29,116]
	.loc 1 383 0
	add	x21, x19, 8
	.loc 1 382 0
	str	x0, [x29,104]
	mov	w0, -48
	str	w0, [x29,112]
	.loc 1 383 0
	mov	x1, 1024
	mov	x0, x21
	add	x3, x29, 48
	ldp	x6, x7, [x4]
	ldp	x4, x5, [x4,16]
	stp	x4, x5, [x29,64]
	stp	x6, x7, [x29,48]
	bl	vsnprintf
.LVL9:
	mov	w1, w0
.LVL10:
	.loc 1 386 0
	sub	w0, w0, #1
	cmp	w0, 1021
	bhi	.L9
	.loc 1 392 0
	adrp	x0, .LANCHOR1
	ldr	w0, [x0,#:lo12:.LANCHOR1]
	cmp	w0, 1
	beq	.L18
	.loc 1 404 0
	cmp	w0, 3
	bne	.L9
	.loc 1 406 0
	ldr	x2, [x19,1032]
	cbz	x2, .L9
	.loc 1 408 0
	mov	x0, x21
	bl	OSAL_FileWrite
.LVL11:
.L8:
	.loc 1 417 0
	ldr	x2, [x29,120]
.LVL12:
	ldr	x1, [x20,#:lo12:__stack_chk_guard]
.LVL13:
	cmp	x2, x1
	bne	.L19
	ldp	x19, x20, [sp,16]
	.cfi_remember_state
	.cfi_restore 20
	.cfi_restore 19
	ldr	x21, [sp,32]
	.cfi_restore 21
	ldp	x29, x30, [sp], 176
	.cfi_restore 30
	.cfi_restore 29
	.cfi_def_cfa 31, 0
	ret
.LVL14:
.L9:
	.cfi_restore_state
	.loc 1 379 0
	mov	w0, -1
	b	.L8
.LVL15:
.L18:
	.loc 1 395 0
	adrp	x2, g_vfmw_osal_fun_ptr+64
	adrp	x0, .LC0
	mov	x1, x21
.LVL16:
	add	x0, x0, :lo12:.LC0
	ldr	x2, [x2,#:lo12:g_vfmw_osal_fun_ptr+64]
	blr	x2
.LVL17:
	b	.L8
.L19:
	.loc 1 417 0
	bl	__stack_chk_fail
.LVL18:
	.cfi_endproc
.LFE2652:
	.size	dprint_linux_kernel, .-dprint_linux_kernel
	.align	2
	.global	CHECK_REC_POS_ENABLE
	.type	CHECK_REC_POS_ENABLE, %function
CHECK_REC_POS_ENABLE:
.LFB2653:
	.loc 1 421 0
	.cfi_startproc
.LVL19:
	.loc 1 432 0
	mov	w0, 0
.LVL20:
	ret
	.cfi_endproc
.LFE2653:
	.size	CHECK_REC_POS_ENABLE, .-CHECK_REC_POS_ENABLE
	.align	2
	.global	qsort
	.type	qsort, %function
qsort:
.LFB2656:
	.loc 1 586 0
	.cfi_startproc
.LVL21:
	sub	sp, sp, #1008
	.cfi_def_cfa_offset 1008
	.loc 1 612 0
	cmp	x1, 1
	.loc 1 586 0
	stp	x29, x30, [sp, -96]!
	.cfi_def_cfa_offset 1104
	.cfi_offset 29, -1104
	.cfi_offset 30, -1096
	add	x29, sp, 0
	.cfi_def_cfa_register 29
	stp	x23, x24, [sp,48]
	.cfi_offset 23, -1056
	.cfi_offset 24, -1048
	mov	x24, x0
	adrp	x0, __stack_chk_guard
.LVL22:
	stp	x21, x22, [sp,32]
	stp	x19, x20, [sp,16]
	ldr	x0, [x0,#:lo12:__stack_chk_guard]
	.cfi_offset 21, -1072
	.cfi_offset 22, -1064
	.cfi_offset 19, -1088
	.cfi_offset 20, -1080
	mov	x21, x2
	stp	x25, x26, [sp,64]
	stp	x27, x28, [sp,80]
	.cfi_offset 25, -1040
	.cfi_offset 26, -1032
	.cfi_offset 27, -1024
	.cfi_offset 28, -1016
	.loc 1 586 0
	str	x0, [x29,1096]
	mov	x22, x3
	.loc 1 612 0
	bls	.L21
	cbz	x2, .L21
	.loc 1 618 0
	sub	x1, x1, #1
.LVL23:
	.loc 1 615 0
	mov	w25, 0
.LVL24:
	.loc 1 933 0
	add	x27, x29, 104
	neg	x23, x2
	.loc 1 618 0
	madd	x20, x1, x2, x24
.L23:
	.loc 1 627 0
	sub	x3, x20, x24
	udiv	x3, x3, x21
	add	x3, x3, 1
.LVL25:
	.loc 1 632 0
	cmp	x3, 8
	bhi	.L24
.LVL26:
.L131:
.LBB24:
.LBB25:
	.loc 1 506 0
	cmp	x24, x20
	bcs	.L25
	add	x19, x24, x21
.LVL27:
.L29:
	.loc 1 514 0 discriminator 1
	cmp	x19, x20
	mov	x26, x24
	bhi	.L26
	mov	x28, x19
.L28:
	.loc 1 517 0
	mov	x0, x28
.LVL28:
	mov	x1, x26
.LVL29:
	blr	x22
.LVL30:
	cmp	w0, wzr
	csel	x26, x26, x28, le
	.loc 1 514 0 discriminator 2
	add	x28, x28, x21
.LVL31:
	.loc 1 514 0 is_stmt 0 discriminator 1
	cmp	x28, x20
	bls	.L28
.LVL32:
.L26:
.LBB26:
.LBB27:
	.loc 1 559 0 is_stmt 1
	cmp	x20, x26
	mov	x0, 0
	beq	.L31
.L97:
	.loc 1 565 0
	ldrb	w2, [x20,x0]
	.loc 1 564 0
	ldrb	w1, [x26,x0]
	.loc 1 565 0
	strb	w2, [x26,x0]
	.loc 1 566 0
	strb	w1, [x20,x0]
	add	x0, x0, 1
	.loc 1 562 0
	cmp	x0, x21
	bne	.L97
.L31:
.LBE27:
.LBE26:
	.loc 1 535 0
	add	x20, x20, x23
.LVL33:
	.loc 1 506 0
	cmp	x24, x20
	bcc	.L29
.L25:
.LBE25:
.LBE24:
	.loc 1 930 0
	sub	w25, w25, #1
	.loc 1 931 0
	cmn	w25, #1
	beq	.L21
	.loc 1 934 0
	add	x0, x29, 600
	.loc 1 933 0
	ldr	x24, [x27,w25,sxtw 3]
	.loc 1 934 0
	ldr	x20, [x0,w25,sxtw 3]
	.loc 1 627 0
	sub	x3, x20, x24
.LVL34:
	udiv	x3, x3, x21
	add	x3, x3, 1
.LVL35:
	.loc 1 632 0
	cmp	x3, 8
	bls	.L131
.L24:
	.loc 1 673 0
	lsr	x3, x3, 1
.LVL36:
	.loc 1 678 0
	mov	x0, x24
	.loc 1 673 0
	madd	x28, x3, x21, x24
.LVL37:
	.loc 1 678 0
	mov	x1, x28
.LVL38:
	blr	x22
.LVL39:
.LBB28:
.LBB29:
	.loc 1 559 0
	cmp	w0, wzr
	ble	.L32
.LVL40:
	cmp	x24, x28
	beq	.L32
	.loc 1 562 0
	sub	x19, x21, #1
.LVL41:
	mov	x0, 0
.LVL42:
.L33:
	.loc 1 565 0
	ldrb	w2, [x28,x0]
	.loc 1 564 0
	ldrb	w1, [x24,x0]
	.loc 1 565 0
	strb	w2, [x24,x0]
	.loc 1 566 0
	strb	w1, [x28,x0]
	add	x0, x0, 1
	.loc 1 562 0
	cmp	x0, x21
	bne	.L33
.LBE29:
.LBE28:
	.loc 1 682 0
	mov	x0, x24
	mov	x1, x20
.LVL43:
	blr	x22
.LVL44:
.LBB32:
.LBB33:
	.loc 1 559 0
	cmp	w0, wzr
	ble	.L35
	cmp	x24, x20
	beq	.L35
.L63:
	add	x19, x19, 1
.LBE33:
.LBE32:
.LBB36:
.LBB30:
	.loc 1 562 0
	mov	x0, 0
.LVL45:
.L36:
.LBE30:
.LBE36:
.LBB37:
.LBB34:
	.loc 1 565 0
	ldrb	w2, [x20,x0]
	.loc 1 564 0
	ldrb	w1, [x24,x0]
	.loc 1 565 0
	strb	w2, [x24,x0]
	.loc 1 566 0
	strb	w1, [x20,x0]
	add	x0, x0, 1
	.loc 1 562 0
	cmp	x0, x19
	bne	.L36
.LVL46:
.LBE34:
.LBE37:
	.loc 1 686 0
	mov	x0, x28
	mov	x1, x20
.LVL47:
	blr	x22
.LVL48:
.LBB38:
.LBB39:
	.loc 1 559 0
	cmp	w0, wzr
	ble	.L40
	cmp	x20, x28
	beq	.L40
.L65:
.LBE39:
.LBE38:
.LBB42:
.LBB31:
	.loc 1 562 0
	mov	x0, 0
.LVL49:
.L39:
.LBE31:
.LBE42:
.LBB43:
.LBB40:
	.loc 1 565 0
	ldrb	w2, [x20,x0]
	.loc 1 564 0
	ldrb	w1, [x28,x0]
	.loc 1 565 0
	strb	w2, [x28,x0]
	.loc 1 566 0
	strb	w1, [x20,x0]
	add	x0, x0, 1
	.loc 1 562 0
	cmp	x0, x19
	bne	.L39
.LVL50:
.L40:
.LBE40:
.LBE43:
	.loc 1 804 0
	mov	x19, x20
.LVL51:
	mov	x26, x24
.LVL52:
.L38:
	.loc 1 722 0
	cmp	x28, x26
	bls	.L44
	b	.L42
.L132:
	.loc 1 728 0 discriminator 1
	mov	x0, x26
	mov	x1, x28
.LVL53:
	blr	x22
.LVL54:
	cmp	w0, wzr
	bgt	.L48
.LVL55:
.L42:
	.loc 1 726 0
	add	x26, x26, x21
.LVL56:
	.loc 1 728 0 discriminator 2
	cmp	x28, x26
	bhi	.L132
	.loc 1 736 0
	add	x26, x26, x21
	.loc 1 738 0 discriminator 2
	cmp	x20, x26
	bcc	.L48
.L133:
	.loc 1 738 0 is_stmt 0 discriminator 1
	mov	x0, x26
.LVL57:
	mov	x1, x28
.LVL58:
	blr	x22
.LVL59:
	cmp	w0, wzr
	bgt	.L48
.LVL60:
.L44:
	.loc 1 736 0 is_stmt 1
	add	x26, x26, x21
	.loc 1 738 0 discriminator 2
	cmp	x20, x26
	bcs	.L133
	.loc 1 758 0
	add	x19, x19, x23
.LVL61:
	.loc 1 760 0 discriminator 2
	cmp	x28, x19
	bcs	.L49
.L45:
	.loc 1 760 0 is_stmt 0 discriminator 1
	mov	x0, x19
	mov	x1, x28
.LVL62:
	blr	x22
.LVL63:
	cmp	w0, wzr
	ble	.L49
.LVL64:
.L48:
	.loc 1 758 0 is_stmt 1
	add	x19, x19, x23
	.loc 1 760 0 discriminator 2
	cmp	x28, x19
	bcc	.L45
.L49:
.LVL65:
	.loc 1 769 0
	cmp	x26, x19
	bhi	.L134
.LBB44:
.LBB45:
	.loc 1 559 0
	mov	x0, 0
	beq	.L52
.L98:
	.loc 1 565 0
	ldrb	w4, [x19,x0]
	.loc 1 564 0
	ldrb	w1, [x26,x0]
.LVL66:
	.loc 1 565 0
	strb	w4, [x26,x0]
	.loc 1 566 0
	strb	w1, [x19,x0]
	add	x0, x0, 1
	.loc 1 562 0
	cmp	x0, x21
	bne	.L98
.LVL67:
.L52:
.LBE45:
.LBE44:
	.loc 1 804 0
	cmp	x28, x19
	csel	x28, x28, x26, ne
	b	.L38
.LVL68:
.L134:
	.loc 1 836 0
	add	x19, x19, x21
	.loc 1 837 0
	cmp	x19, x28
	bls	.L57
	b	.L54
.L136:
	.loc 1 843 0 discriminator 1
	mov	x0, x19
	mov	x1, x28
.LVL69:
	blr	x22
.LVL70:
	cbnz	w0, .L135
.LVL71:
.L54:
	.loc 1 841 0
	add	x19, x19, x23
	.loc 1 843 0 discriminator 2
	cmp	x19, x28
	bhi	.L136
	b	.L57
.LVL72:
.L138:
	.loc 1 851 0 discriminator 1
	mov	x0, x19
	mov	x1, x28
.LVL73:
	blr	x22
.LVL74:
	cbnz	w0, .L137
.LVL75:
.L57:
	.loc 1 849 0
	add	x19, x19, x23
	.loc 1 851 0 discriminator 2
	cmp	x24, x19
	bcc	.L138
	.loc 1 893 0
	sub	x0, x20, x26
	sub	x1, x19, x24
.LVL76:
	cmp	x0, x1
	ble	.L60
.LVL77:
	.loc 1 910 0
	cmp	x20, x26
	bls	.L25
.L69:
	.loc 1 913 0
	add	x0, x29, 600
	.loc 1 912 0
	str	x26, [x27,w25,sxtw 3]
	.loc 1 913 0
	str	x20, [x0,w25,sxtw 3]
	.loc 1 914 0
	add	w25, w25, 1
.L62:
.LVL78:
	.loc 1 917 0
	cmp	x24, x19
	bcs	.L25
	mov	x20, x19
	b	.L23
.LVL79:
.L32:
	.loc 1 682 0
	mov	x0, x24
	mov	x1, x20
	blr	x22
.LVL80:
.LBB46:
.LBB35:
	.loc 1 559 0
	cmp	w0, wzr
	ble	.L35
	cmp	x24, x20
	beq	.L35
	.loc 1 562 0
	sub	x19, x21, #1
.LVL81:
	b	.L63
.LVL82:
.L135:
.LBE35:
.LBE46:
	.loc 1 893 0
	sub	x0, x19, x24
	sub	x1, x20, x26
	cmp	x0, x1
	blt	.L59
.LVL83:
	.loc 1 895 0
	cmp	x24, x19
	bcs	.L60
.L67:
	.loc 1 898 0
	add	x0, x29, 600
	.loc 1 897 0
	str	x24, [x27,w25,sxtw 3]
	.loc 1 898 0
	str	x19, [x0,w25,sxtw 3]
	.loc 1 899 0
	add	w25, w25, 1
.L60:
.LVL84:
	.loc 1 902 0
	cmp	x20, x26
	bls	.L25
	mov	x24, x26
.LVL85:
	b	.L23
.L137:
.LVL86:
	.loc 1 893 0
	sub	x0, x20, x26
	sub	x1, x19, x24
	cmp	x0, x1
	ble	.L67
	.loc 1 910 0
	cmp	x20, x26
	bhi	.L69
	mov	x20, x19
	b	.L23
.LVL87:
.L35:
	.loc 1 686 0
	mov	x0, x28
	mov	x1, x20
	blr	x22
.LVL88:
.LBB47:
.LBB41:
	.loc 1 559 0
	cmp	w0, wzr
	ble	.L40
	cmp	x20, x28
	mov	x19, x21
	bne	.L65
	b	.L40
.LVL89:
.L59:
.LBE41:
.LBE47:
	.loc 1 910 0
	cmp	x20, x26
	bls	.L62
	b	.L69
.LVL90:
.L21:
	.loc 1 939 0
	adrp	x0, __stack_chk_guard
	ldr	x1, [x29,1096]
.LVL91:
	ldr	x0, [x0,#:lo12:__stack_chk_guard]
	cmp	x1, x0
	bne	.L139
	ldp	x19, x20, [sp,16]
	.cfi_remember_state
	.cfi_restore 20
	.cfi_restore 19
	ldp	x21, x22, [sp,32]
	.cfi_restore 22
	.cfi_restore 21
.LVL92:
	ldp	x23, x24, [sp,48]
	.cfi_restore 24
	.cfi_restore 23
.LVL93:
	ldp	x25, x26, [sp,64]
	.cfi_restore 26
	.cfi_restore 25
.LVL94:
	ldp	x27, x28, [sp,80]
	.cfi_restore 28
	.cfi_restore 27
.LVL95:
	ldp	x29, x30, [sp], 96
	.cfi_restore 30
	.cfi_restore 29
	.cfi_def_cfa 31, 1008
	add	sp, sp, 1008
	.cfi_def_cfa_offset 912
	ret
.LVL96:
.L139:
	.cfi_restore_state
	bl	__stack_chk_fail
.LVL97:
	.cfi_endproc
.LFE2656:
	.size	qsort, .-qsort
	.global	g_TraceImgPeriod
	.global	g_TraceFramePeriod
	.global	g_TraceBsPeriod
	.global	g_TraceCtrl
	.global	g_TmpMsg
	.global	g_pMemPrint
	.global	g_PrintDevice
	.global	g_PrintEnable
	.global	g_fpLog
	.global	TracerPhyAddr
	.global	s_pstTracer
	.data
	.align	2
.LANCHOR1 = . + 0
	.type	g_PrintDevice, %object
	.size	g_PrintDevice, 4
g_PrintDevice:
	.word	1
	.type	g_TraceImgPeriod, %object
	.size	g_TraceImgPeriod, 4
g_TraceImgPeriod:
	.word	500
	.type	g_TraceBsPeriod, %object
	.size	g_TraceBsPeriod, 4
g_TraceBsPeriod:
	.word	200
	.type	g_TraceCtrl, %object
	.size	g_TraceCtrl, 4
g_TraceCtrl:
	.word	-1
	.section	.rodata.str1.8,"aMS",%progbits,1
	.align	3
.LC0:
	.string	"\0011%s"
	.bss
	.align	3
.LANCHOR0 = . + 0
	.type	g_PrintEnable, %object
	.size	g_PrintEnable, 4
g_PrintEnable:
	.zero	4
	.zero	4
	.type	g_TmpMsg, %object
	.size	g_TmpMsg, 1024
g_TmpMsg:
	.zero	1024
	.type	g_fpLog, %object
	.size	g_fpLog, 8
g_fpLog:
	.zero	8
	.type	g_TraceFramePeriod, %object
	.size	g_TraceFramePeriod, 4
g_TraceFramePeriod:
	.zero	4
	.zero	4
	.type	g_pMemPrint, %object
	.size	g_pMemPrint, 8
g_pMemPrint:
	.zero	8
	.type	TracerPhyAddr, %object
	.size	TracerPhyAddr, 4
TracerPhyAddr:
	.zero	4
	.zero	4
	.type	s_pstTracer, %object
	.size	s_pstTracer, 8
s_pstTracer:
	.zero	8
	.text
.Letext0:
	.file 2 "/mnt/disk/jenkins/ci/workspace/chipset_pipeline_release/opensource/component_code/prebuilts/gcc/linux-x86/aarch64/aarch64-linux-android-4.9/lib/gcc/aarch64-linux-android/4.9.x/include/stdarg.h"
	.file 3 "/mnt/disk/jenkins/ci/workspace/chipset_pipeline_release/opensource/component_code/vendor/huawei/extra/build/build_script/kirin_kernel_release/kernel/drivers/vcodec/hi_vcodec/vdec/include/hi_type.h"
	.file 4 "/mnt/disk/jenkins/ci/workspace/chipset_pipeline_release/opensource/component_code/vendor/huawei/extra/build/build_script/kirin_kernel_release/kernel/drivers/vcodec/hi_vcodec/vdec/vfmw/vfmw_v4.0/vfmw.h"
	.file 5 "/mnt/disk/jenkins/ci/workspace/chipset_pipeline_release/opensource/component_code/vendor/huawei/extra/build/build_script/kirin_kernel_release/kernel/include/uapi/asm-generic/int-ll64.h"
	.file 6 "/mnt/disk/jenkins/ci/workspace/chipset_pipeline_release/opensource/component_code/vendor/huawei/extra/build/build_script/kirin_kernel_release/kernel/include/asm-generic/int-ll64.h"
	.file 7 "/mnt/disk/jenkins/ci/workspace/chipset_pipeline_release/opensource/component_code/vendor/huawei/extra/build/build_script/kirin_kernel_release/kernel/include/uapi/asm-generic/posix_types.h"
	.file 8 "<built-in>"
	.file 9 "/mnt/disk/jenkins/ci/workspace/chipset_pipeline_release/opensource/component_code/vendor/huawei/extra/build/build_script/kirin_kernel_release/kernel/include/linux/export.h"
	.file 10 "/mnt/disk/jenkins/ci/workspace/chipset_pipeline_release/opensource/component_code/vendor/huawei/extra/build/build_script/kirin_kernel_release/kernel/include/linux/types.h"
	.file 11 "/mnt/disk/jenkins/ci/workspace/chipset_pipeline_release/opensource/component_code/vendor/huawei/extra/build/build_script/kirin_kernel_release/kernel/include/asm-generic/bug.h"
	.file 12 "/mnt/disk/jenkins/ci/workspace/chipset_pipeline_release/opensource/component_code/vendor/huawei/extra/build/build_script/kirin_kernel_release/kernel/include/linux/restart_block.h"
	.file 13 "/mnt/disk/jenkins/ci/workspace/chipset_pipeline_release/opensource/component_code/vendor/huawei/extra/build/build_script/kirin_kernel_release/kernel/include/uapi/linux/time.h"
	.file 14 "/mnt/disk/jenkins/ci/workspace/chipset_pipeline_release/opensource/component_code/vendor/huawei/extra/build/build_script/kirin_kernel_release/kernel/arch/arm64/include/asm/compat.h"
	.file 15 "/mnt/disk/jenkins/ci/workspace/chipset_pipeline_release/opensource/component_code/vendor/huawei/extra/build/build_script/kirin_kernel_release/kernel/include/uapi/asm-generic/poll.h"
	.file 16 "/mnt/disk/jenkins/ci/workspace/chipset_pipeline_release/opensource/component_code/vendor/huawei/extra/build/build_script/kirin_kernel_release/kernel/arch/arm64/include/asm/thread_info.h"
	.file 17 "/mnt/disk/jenkins/ci/workspace/chipset_pipeline_release/opensource/component_code/vendor/huawei/extra/build/build_script/kirin_kernel_release/kernel/arch/arm64/include/uapi/asm/ptrace.h"
	.file 18 "/mnt/disk/jenkins/ci/workspace/chipset_pipeline_release/opensource/component_code/vendor/huawei/extra/build/build_script/kirin_kernel_release/kernel/arch/arm64/include/asm/ptrace.h"
	.file 19 "/mnt/disk/jenkins/ci/workspace/chipset_pipeline_release/opensource/component_code/vendor/huawei/extra/build/build_script/kirin_kernel_release/kernel/arch/arm64/include/asm/spinlock_types.h"
	.file 20 "/mnt/disk/jenkins/ci/workspace/chipset_pipeline_release/opensource/component_code/vendor/huawei/extra/build/build_script/kirin_kernel_release/kernel/include/linux/spinlock_types.h"
	.file 21 "/mnt/disk/jenkins/ci/workspace/chipset_pipeline_release/opensource/component_code/vendor/huawei/extra/build/build_script/kirin_kernel_release/kernel/include/linux/rwlock_types.h"
	.file 22 "/mnt/disk/jenkins/ci/workspace/chipset_pipeline_release/opensource/component_code/vendor/huawei/extra/build/build_script/kirin_kernel_release/kernel/arch/arm64/include/asm/fpsimd.h"
	.file 23 "/mnt/disk/jenkins/ci/workspace/chipset_pipeline_release/opensource/component_code/vendor/huawei/extra/build/build_script/kirin_kernel_release/kernel/include/linux/jump_label.h"
	.file 24 "/mnt/disk/jenkins/ci/workspace/chipset_pipeline_release/opensource/component_code/vendor/huawei/extra/build/build_script/kirin_kernel_release/kernel/include/asm-generic/atomic-long.h"
	.file 25 "/mnt/disk/jenkins/ci/workspace/chipset_pipeline_release/opensource/component_code/vendor/huawei/extra/build/build_script/kirin_kernel_release/kernel/arch/arm64/include/asm/hw_breakpoint.h"
	.file 26 "/mnt/disk/jenkins/ci/workspace/chipset_pipeline_release/opensource/component_code/vendor/huawei/extra/build/build_script/kirin_kernel_release/kernel/arch/arm64/include/asm/processor.h"
	.file 27 "/mnt/disk/jenkins/ci/workspace/chipset_pipeline_release/opensource/component_code/vendor/huawei/extra/build/build_script/kirin_kernel_release/kernel/include/linux/perf_event.h"
	.file 28 "/mnt/disk/jenkins/ci/workspace/chipset_pipeline_release/opensource/component_code/vendor/huawei/extra/build/build_script/kirin_kernel_release/kernel/include/linux/wait.h"
	.file 29 "/mnt/disk/jenkins/ci/workspace/chipset_pipeline_release/opensource/component_code/vendor/huawei/extra/build/build_script/kirin_kernel_release/kernel/include/linux/seqlock.h"
	.file 30 "/mnt/disk/jenkins/ci/workspace/chipset_pipeline_release/opensource/component_code/vendor/huawei/extra/build/build_script/kirin_kernel_release/kernel/include/linux/nodemask.h"
	.file 31 "/mnt/disk/jenkins/ci/workspace/chipset_pipeline_release/opensource/component_code/vendor/huawei/extra/build/build_script/kirin_kernel_release/kernel/include/linux/cpumask.h"
	.file 32 "/mnt/disk/jenkins/ci/workspace/chipset_pipeline_release/opensource/component_code/vendor/huawei/extra/build/build_script/kirin_kernel_release/kernel/include/linux/completion.h"
	.file 33 "/mnt/disk/jenkins/ci/workspace/chipset_pipeline_release/opensource/component_code/vendor/huawei/extra/build/build_script/kirin_kernel_release/kernel/include/linux/time64.h"
	.file 34 "/mnt/disk/jenkins/ci/workspace/chipset_pipeline_release/opensource/component_code/vendor/huawei/extra/build/build_script/kirin_kernel_release/kernel/include/linux/ktime.h"
	.file 35 "/mnt/disk/jenkins/ci/workspace/chipset_pipeline_release/opensource/component_code/vendor/huawei/extra/build/build_script/kirin_kernel_release/kernel/include/linux/rbtree.h"
	.file 36 "/mnt/disk/jenkins/ci/workspace/chipset_pipeline_release/opensource/component_code/vendor/huawei/extra/build/build_script/kirin_kernel_release/kernel/include/linux/osq_lock.h"
	.file 37 "/mnt/disk/jenkins/ci/workspace/chipset_pipeline_release/opensource/component_code/vendor/huawei/extra/build/build_script/kirin_kernel_release/kernel/include/linux/rwsem.h"
	.file 38 "/mnt/disk/jenkins/ci/workspace/chipset_pipeline_release/opensource/component_code/vendor/huawei/extra/build/build_script/kirin_kernel_release/kernel/include/linux/sched.h"
	.file 39 "/mnt/disk/jenkins/ci/workspace/chipset_pipeline_release/opensource/component_code/vendor/huawei/extra/build/build_script/kirin_kernel_release/kernel/include/linux/mm_types.h"
	.file 40 "/mnt/disk/jenkins/ci/workspace/chipset_pipeline_release/opensource/component_code/vendor/huawei/extra/build/build_script/kirin_kernel_release/kernel/include/linux/lockdep.h"
	.file 41 "/mnt/disk/jenkins/ci/workspace/chipset_pipeline_release/opensource/component_code/vendor/huawei/extra/build/build_script/kirin_kernel_release/kernel/include/linux/uprobes.h"
	.file 42 "/mnt/disk/jenkins/ci/workspace/chipset_pipeline_release/opensource/component_code/vendor/huawei/extra/build/build_script/kirin_kernel_release/kernel/include/linux/timer.h"
	.file 43 "/mnt/disk/jenkins/ci/workspace/chipset_pipeline_release/opensource/component_code/vendor/huawei/extra/build/build_script/kirin_kernel_release/kernel/include/linux/uidgid.h"
	.file 44 "/mnt/disk/jenkins/ci/workspace/chipset_pipeline_release/opensource/component_code/vendor/huawei/extra/build/build_script/kirin_kernel_release/kernel/include/linux/sysctl.h"
	.file 45 "/mnt/disk/jenkins/ci/workspace/chipset_pipeline_release/opensource/component_code/vendor/huawei/extra/build/build_script/kirin_kernel_release/kernel/include/linux/workqueue.h"
	.file 46 "/mnt/disk/jenkins/ci/workspace/chipset_pipeline_release/opensource/component_code/vendor/huawei/extra/build/build_script/kirin_kernel_release/kernel/arch/arm64/include/asm/pgtable-types.h"
	.file 47 "/mnt/disk/jenkins/ci/workspace/chipset_pipeline_release/opensource/component_code/vendor/huawei/extra/build/build_script/kirin_kernel_release/kernel/arch/arm64/include/asm/page.h"
	.file 48 "/mnt/disk/jenkins/ci/workspace/chipset_pipeline_release/opensource/component_code/vendor/huawei/extra/build/build_script/kirin_kernel_release/kernel/include/linux/llist.h"
	.file 49 "/mnt/disk/jenkins/ci/workspace/chipset_pipeline_release/opensource/component_code/vendor/huawei/extra/build/build_script/kirin_kernel_release/kernel/arch/arm64/include/asm/smp.h"
	.file 50 "/mnt/disk/jenkins/ci/workspace/chipset_pipeline_release/opensource/component_code/vendor/huawei/extra/build/build_script/kirin_kernel_release/kernel/arch/arm64/include/asm/mmu.h"
	.file 51 "/mnt/disk/jenkins/ci/workspace/chipset_pipeline_release/opensource/component_code/vendor/huawei/extra/build/build_script/kirin_kernel_release/kernel/include/linux/fs.h"
	.file 52 "/mnt/disk/jenkins/ci/workspace/chipset_pipeline_release/opensource/component_code/vendor/huawei/extra/build/build_script/kirin_kernel_release/kernel/include/linux/mm.h"
	.file 53 "/mnt/disk/jenkins/ci/workspace/chipset_pipeline_release/opensource/component_code/vendor/huawei/extra/build/build_script/kirin_kernel_release/kernel/include/linux/user_namespace.h"
	.file 54 "/mnt/disk/jenkins/ci/workspace/chipset_pipeline_release/opensource/component_code/vendor/huawei/extra/build/build_script/kirin_kernel_release/kernel/include/linux/mmzone.h"
	.file 55 "/mnt/disk/jenkins/ci/workspace/chipset_pipeline_release/opensource/component_code/vendor/huawei/extra/build/build_script/kirin_kernel_release/kernel/include/linux/mutex.h"
	.file 56 "/mnt/disk/jenkins/ci/workspace/chipset_pipeline_release/opensource/component_code/vendor/huawei/extra/build/build_script/kirin_kernel_release/kernel/include/linux/percpu-refcount.h"
	.file 57 "/mnt/disk/jenkins/ci/workspace/chipset_pipeline_release/opensource/component_code/vendor/huawei/extra/build/build_script/kirin_kernel_release/kernel/include/linux/shrinker.h"
	.file 58 "/mnt/disk/jenkins/ci/workspace/chipset_pipeline_release/opensource/component_code/vendor/huawei/extra/build/build_script/kirin_kernel_release/kernel/include/uapi/linux/resource.h"
	.file 59 "/mnt/disk/jenkins/ci/workspace/chipset_pipeline_release/opensource/component_code/vendor/huawei/extra/build/build_script/kirin_kernel_release/kernel/include/linux/tracepoint-defs.h"
	.file 60 "/mnt/disk/jenkins/ci/workspace/chipset_pipeline_release/opensource/component_code/vendor/huawei/extra/build/build_script/kirin_kernel_release/kernel/include/linux/vmstat.h"
	.file 61 "/mnt/disk/jenkins/ci/workspace/chipset_pipeline_release/opensource/component_code/vendor/huawei/extra/build/build_script/kirin_kernel_release/kernel/include/linux/capability.h"
	.file 62 "/mnt/disk/jenkins/ci/workspace/chipset_pipeline_release/opensource/component_code/vendor/huawei/extra/build/build_script/kirin_kernel_release/kernel/include/linux/plist.h"
	.file 63 "/mnt/disk/jenkins/ci/workspace/chipset_pipeline_release/opensource/component_code/vendor/huawei/extra/build/build_script/kirin_kernel_release/kernel/include/asm-generic/cputime_jiffies.h"
	.file 64 "/mnt/disk/jenkins/ci/workspace/chipset_pipeline_release/opensource/component_code/vendor/huawei/extra/build/build_script/kirin_kernel_release/kernel/include/uapi/asm-generic/signal.h"
	.file 65 "/mnt/disk/jenkins/ci/workspace/chipset_pipeline_release/opensource/component_code/vendor/huawei/extra/build/build_script/kirin_kernel_release/kernel/include/uapi/asm-generic/signal-defs.h"
	.file 66 "/mnt/disk/jenkins/ci/workspace/chipset_pipeline_release/opensource/component_code/vendor/huawei/extra/build/build_script/kirin_kernel_release/kernel/include/uapi/asm-generic/siginfo.h"
	.file 67 "/mnt/disk/jenkins/ci/workspace/chipset_pipeline_release/opensource/component_code/vendor/huawei/extra/build/build_script/kirin_kernel_release/kernel/include/linux/signal.h"
	.file 68 "/mnt/disk/jenkins/ci/workspace/chipset_pipeline_release/opensource/component_code/vendor/huawei/extra/build/build_script/kirin_kernel_release/kernel/include/linux/pid.h"
	.file 69 "/mnt/disk/jenkins/ci/workspace/chipset_pipeline_release/opensource/component_code/vendor/huawei/extra/build/build_script/kirin_kernel_release/kernel/include/linux/pid_namespace.h"
	.file 70 "/mnt/disk/jenkins/ci/workspace/chipset_pipeline_release/opensource/component_code/vendor/huawei/extra/build/build_script/kirin_kernel_release/kernel/include/linux/seccomp.h"
	.file 71 "/mnt/disk/jenkins/ci/workspace/chipset_pipeline_release/opensource/component_code/vendor/huawei/extra/build/build_script/kirin_kernel_release/kernel/include/linux/timerqueue.h"
	.file 72 "/mnt/disk/jenkins/ci/workspace/chipset_pipeline_release/opensource/component_code/vendor/huawei/extra/build/build_script/kirin_kernel_release/kernel/include/linux/hrtimer.h"
	.file 73 "/mnt/disk/jenkins/ci/workspace/chipset_pipeline_release/opensource/component_code/vendor/huawei/extra/build/build_script/kirin_kernel_release/kernel/include/linux/task_io_accounting.h"
	.file 74 "/mnt/disk/jenkins/ci/workspace/chipset_pipeline_release/opensource/component_code/vendor/huawei/extra/build/build_script/kirin_kernel_release/kernel/include/linux/assoc_array.h"
	.file 75 "/mnt/disk/jenkins/ci/workspace/chipset_pipeline_release/opensource/component_code/vendor/huawei/extra/build/build_script/kirin_kernel_release/kernel/include/linux/key.h"
	.file 76 "/mnt/disk/jenkins/ci/workspace/chipset_pipeline_release/opensource/component_code/vendor/huawei/extra/build/build_script/kirin_kernel_release/kernel/include/linux/cred.h"
	.file 77 "/mnt/disk/jenkins/ci/workspace/chipset_pipeline_release/opensource/component_code/vendor/huawei/extra/build/build_script/kirin_kernel_release/kernel/include/linux/idr.h"
	.file 78 "/mnt/disk/jenkins/ci/workspace/chipset_pipeline_release/opensource/component_code/vendor/huawei/extra/build/build_script/kirin_kernel_release/kernel/include/linux/rcu_sync.h"
	.file 79 "/mnt/disk/jenkins/ci/workspace/chipset_pipeline_release/opensource/component_code/vendor/huawei/extra/build/build_script/kirin_kernel_release/kernel/include/linux/percpu-rwsem.h"
	.file 80 "/mnt/disk/jenkins/ci/workspace/chipset_pipeline_release/opensource/component_code/vendor/huawei/extra/build/build_script/kirin_kernel_release/kernel/include/linux/bpf-cgroup.h"
	.file 81 "/mnt/disk/jenkins/ci/workspace/chipset_pipeline_release/opensource/component_code/vendor/huawei/extra/build/build_script/kirin_kernel_release/kernel/include/linux/cgroup-defs.h"
	.file 82 "/mnt/disk/jenkins/ci/workspace/chipset_pipeline_release/opensource/component_code/vendor/huawei/extra/build/build_script/kirin_kernel_release/kernel/include/linux/kernfs.h"
	.file 83 "/mnt/disk/jenkins/ci/workspace/chipset_pipeline_release/opensource/component_code/vendor/huawei/extra/build/build_script/kirin_kernel_release/kernel/include/linux/seq_file.h"
	.file 84 "/mnt/disk/jenkins/ci/workspace/chipset_pipeline_release/opensource/component_code/vendor/huawei/extra/build/build_script/kirin_kernel_release/kernel/include/uapi/linux/taskstats.h"
	.file 85 "/mnt/disk/jenkins/ci/workspace/chipset_pipeline_release/opensource/component_code/vendor/huawei/extra/build/build_script/kirin_kernel_release/kernel/include/linux/nsproxy.h"
	.file 86 "/mnt/disk/jenkins/ci/workspace/chipset_pipeline_release/opensource/component_code/vendor/huawei/extra/build/build_script/kirin_kernel_release/kernel/include/linux/compat.h"
	.file 87 "/mnt/disk/jenkins/ci/workspace/chipset_pipeline_release/opensource/component_code/vendor/huawei/extra/build/build_script/kirin_kernel_release/kernel/include/linux/stat.h"
	.file 88 "/mnt/disk/jenkins/ci/workspace/chipset_pipeline_release/opensource/component_code/vendor/huawei/extra/build/build_script/kirin_kernel_release/kernel/include/uapi/linux/elf.h"
	.file 89 "/mnt/disk/jenkins/ci/workspace/chipset_pipeline_release/opensource/component_code/vendor/huawei/extra/build/build_script/kirin_kernel_release/kernel/include/linux/kobject_ns.h"
	.file 90 "/mnt/disk/jenkins/ci/workspace/chipset_pipeline_release/opensource/component_code/vendor/huawei/extra/build/build_script/kirin_kernel_release/kernel/include/linux/sysfs.h"
	.file 91 "/mnt/disk/jenkins/ci/workspace/chipset_pipeline_release/opensource/component_code/vendor/huawei/extra/build/build_script/kirin_kernel_release/kernel/include/linux/kobject.h"
	.file 92 "/mnt/disk/jenkins/ci/workspace/chipset_pipeline_release/opensource/component_code/vendor/huawei/extra/build/build_script/kirin_kernel_release/kernel/include/linux/kref.h"
	.file 93 "/mnt/disk/jenkins/ci/workspace/chipset_pipeline_release/opensource/component_code/vendor/huawei/extra/build/build_script/kirin_kernel_release/kernel/include/linux/moduleparam.h"
	.file 94 "/mnt/disk/jenkins/ci/workspace/chipset_pipeline_release/opensource/component_code/vendor/huawei/extra/build/build_script/kirin_kernel_release/kernel/include/linux/module.h"
	.file 95 "/mnt/disk/jenkins/ci/workspace/chipset_pipeline_release/opensource/component_code/vendor/huawei/extra/build/build_script/kirin_kernel_release/kernel/include/linux/rbtree_latch.h"
	.file 96 "/mnt/disk/jenkins/ci/workspace/chipset_pipeline_release/opensource/component_code/vendor/huawei/extra/build/build_script/kirin_kernel_release/kernel/arch/arm64/include/asm/module.h"
	.file 97 "/mnt/disk/jenkins/ci/workspace/chipset_pipeline_release/opensource/component_code/vendor/huawei/extra/build/build_script/kirin_kernel_release/kernel/arch/arm64/include/asm/uaccess.h"
	.file 98 "/mnt/disk/jenkins/ci/workspace/chipset_pipeline_release/opensource/component_code/vendor/huawei/extra/build/build_script/kirin_kernel_release/kernel/include/linux/trace_events.h"
	.file 99 "/mnt/disk/jenkins/ci/workspace/chipset_pipeline_release/opensource/component_code/vendor/huawei/extra/build/build_script/kirin_kernel_release/kernel/include/linux/tracepoint.h"
	.file 100 "/mnt/disk/jenkins/ci/workspace/chipset_pipeline_release/opensource/component_code/vendor/huawei/extra/build/build_script/kirin_kernel_release/kernel/include/linux/percpu_counter.h"
	.file 101 "/mnt/disk/jenkins/ci/workspace/chipset_pipeline_release/opensource/component_code/vendor/huawei/extra/build/build_script/kirin_kernel_release/kernel/include/linux/quota.h"
	.file 102 "/mnt/disk/jenkins/ci/workspace/chipset_pipeline_release/opensource/component_code/vendor/huawei/extra/build/build_script/kirin_kernel_release/kernel/include/linux/projid.h"
	.file 103 "/mnt/disk/jenkins/ci/workspace/chipset_pipeline_release/opensource/component_code/vendor/huawei/extra/build/build_script/kirin_kernel_release/kernel/include/linux/path.h"
	.file 104 "/mnt/disk/jenkins/ci/workspace/chipset_pipeline_release/opensource/component_code/vendor/huawei/extra/build/build_script/kirin_kernel_release/kernel/include/linux/list_bl.h"
	.file 105 "/mnt/disk/jenkins/ci/workspace/chipset_pipeline_release/opensource/component_code/vendor/huawei/extra/build/build_script/kirin_kernel_release/kernel/include/linux/lockref.h"
	.file 106 "/mnt/disk/jenkins/ci/workspace/chipset_pipeline_release/opensource/component_code/vendor/huawei/extra/build/build_script/kirin_kernel_release/kernel/include/linux/dcache.h"
	.file 107 "/mnt/disk/jenkins/ci/workspace/chipset_pipeline_release/opensource/component_code/vendor/huawei/extra/build/build_script/kirin_kernel_release/kernel/include/linux/list_lru.h"
	.file 108 "/mnt/disk/jenkins/ci/workspace/chipset_pipeline_release/opensource/component_code/vendor/huawei/extra/build/build_script/kirin_kernel_release/kernel/include/linux/radix-tree.h"
	.file 109 "/mnt/disk/jenkins/ci/workspace/chipset_pipeline_release/opensource/component_code/vendor/huawei/extra/build/build_script/kirin_kernel_release/kernel/include/uapi/linux/fiemap.h"
	.file 110 "/mnt/disk/jenkins/ci/workspace/chipset_pipeline_release/opensource/component_code/vendor/huawei/extra/build/build_script/kirin_kernel_release/kernel/include/linux/migrate_mode.h"
	.file 111 "/mnt/disk/jenkins/ci/workspace/chipset_pipeline_release/opensource/component_code/vendor/huawei/extra/build/build_script/kirin_kernel_release/kernel/include/linux/bvec.h"
	.file 112 "/mnt/disk/jenkins/ci/workspace/chipset_pipeline_release/opensource/component_code/vendor/huawei/extra/build/build_script/kirin_kernel_release/kernel/include/linux/delayed_call.h"
	.file 113 "/mnt/disk/jenkins/ci/workspace/chipset_pipeline_release/opensource/component_code/vendor/huawei/extra/build/build_script/kirin_kernel_release/kernel/include/linux/uio.h"
	.file 114 "/mnt/disk/jenkins/ci/workspace/chipset_pipeline_release/opensource/component_code/vendor/huawei/extra/build/build_script/kirin_kernel_release/kernel/include/linux/nfs_fs_i.h"
	.file 115 "/mnt/disk/jenkins/ci/workspace/chipset_pipeline_release/opensource/component_code/vendor/huawei/extra/build/build_script/kirin_kernel_release/kernel/include/linux/poll.h"
	.file 116 "/mnt/disk/jenkins/ci/workspace/chipset_pipeline_release/opensource/component_code/vendor/huawei/extra/build/build_script/kirin_kernel_release/kernel/include/linux/seq_buf.h"
	.file 117 "/mnt/disk/jenkins/ci/workspace/chipset_pipeline_release/opensource/component_code/vendor/huawei/extra/build/build_script/kirin_kernel_release/kernel/include/linux/trace_seq.h"
	.file 118 "/mnt/disk/jenkins/ci/workspace/chipset_pipeline_release/opensource/component_code/vendor/huawei/extra/build/build_script/kirin_kernel_release/kernel/include/uapi/linux/perf_event.h"
	.file 119 "/mnt/disk/jenkins/ci/workspace/chipset_pipeline_release/opensource/component_code/vendor/huawei/extra/build/build_script/kirin_kernel_release/kernel/include/asm-generic/local.h"
	.file 120 "/mnt/disk/jenkins/ci/workspace/chipset_pipeline_release/opensource/component_code/vendor/huawei/extra/build/build_script/kirin_kernel_release/kernel/include/asm-generic/local64.h"
	.file 121 "/mnt/disk/jenkins/ci/workspace/chipset_pipeline_release/opensource/component_code/vendor/huawei/extra/build/build_script/kirin_kernel_release/kernel/include/linux/cgroup.h"
	.file 122 "/mnt/disk/jenkins/ci/workspace/chipset_pipeline_release/opensource/component_code/vendor/huawei/extra/build/build_script/kirin_kernel_release/kernel/include/linux/ns_common.h"
	.file 123 "/mnt/disk/jenkins/ci/workspace/chipset_pipeline_release/opensource/component_code/vendor/huawei/extra/build/build_script/kirin_kernel_release/kernel/include/uapi/linux/uio.h"
	.file 124 "/mnt/disk/jenkins/ci/workspace/chipset_pipeline_release/opensource/component_code/vendor/huawei/extra/build/build_script/kirin_kernel_release/kernel/include/linux/ftrace.h"
	.file 125 "/mnt/disk/jenkins/ci/workspace/chipset_pipeline_release/opensource/component_code/vendor/huawei/extra/build/build_script/kirin_kernel_release/kernel/include/linux/klist.h"
	.file 126 "/mnt/disk/jenkins/ci/workspace/chipset_pipeline_release/opensource/component_code/vendor/huawei/extra/build/build_script/kirin_kernel_release/kernel/include/linux/pinctrl/devinfo.h"
	.file 127 "/mnt/disk/jenkins/ci/workspace/chipset_pipeline_release/opensource/component_code/vendor/huawei/extra/build/build_script/kirin_kernel_release/kernel/include/linux/pm.h"
	.file 128 "/mnt/disk/jenkins/ci/workspace/chipset_pipeline_release/opensource/component_code/vendor/huawei/extra/build/build_script/kirin_kernel_release/kernel/include/linux/device.h"
	.file 129 "/mnt/disk/jenkins/ci/workspace/chipset_pipeline_release/opensource/component_code/vendor/huawei/extra/build/build_script/kirin_kernel_release/kernel/include/linux/pm_wakeup.h"
	.file 130 "/mnt/disk/jenkins/ci/workspace/chipset_pipeline_release/opensource/component_code/vendor/huawei/extra/build/build_script/kirin_kernel_release/kernel/arch/arm64/include/asm/device.h"
	.file 131 "/mnt/disk/jenkins/ci/workspace/chipset_pipeline_release/opensource/component_code/vendor/huawei/extra/build/build_script/kirin_kernel_release/kernel/include/linux/irq_work.h"
	.file 132 "/mnt/disk/jenkins/ci/workspace/chipset_pipeline_release/opensource/component_code/vendor/huawei/extra/build/build_script/kirin_kernel_release/kernel/include/linux/perf_regs.h"
	.file 133 "/mnt/disk/jenkins/ci/workspace/chipset_pipeline_release/opensource/component_code/vendor/huawei/extra/build/build_script/kirin_kernel_release/kernel/include/linux/interrupt.h"
	.file 134 "/mnt/disk/jenkins/ci/workspace/chipset_pipeline_release/opensource/component_code/vendor/huawei/extra/build/build_script/kirin_kernel_release/kernel/drivers/vcodec/hi_vcodec/vdec/vfmw/vfmw_v4.0/firmware/osal/vfmw_osal_ext.h"
	.file 135 "/mnt/disk/jenkins/ci/workspace/chipset_pipeline_release/opensource/component_code/vendor/huawei/extra/build/build_script/kirin_kernel_release/kernel/drivers/vcodec/hi_vcodec/vdec/vfmw/vfmw_v4.0/firmware/osal/linux_kernel/linux_kernel_osal.h"
	.file 136 "/mnt/disk/jenkins/ci/workspace/chipset_pipeline_release/opensource/component_code/vendor/huawei/extra/build/build_script/kirin_kernel_release/kernel/drivers/vcodec/hi_vcodec/vdec/vfmw/vfmw_v4.0/firmware/common/public.h"
	.file 137 "/mnt/disk/jenkins/ci/workspace/chipset_pipeline_release/opensource/component_code/vendor/huawei/extra/build/build_script/kirin_kernel_release/kernel/arch/arm64/include/asm/cachetype.h"
	.file 138 "/mnt/disk/jenkins/ci/workspace/chipset_pipeline_release/opensource/component_code/vendor/huawei/extra/build/build_script/kirin_kernel_release/kernel/include/linux/printk.h"
	.file 139 "/mnt/disk/jenkins/ci/workspace/chipset_pipeline_release/opensource/component_code/vendor/huawei/extra/build/build_script/kirin_kernel_release/kernel/include/linux/kernel.h"
	.file 140 "/mnt/disk/jenkins/ci/workspace/chipset_pipeline_release/opensource/component_code/vendor/huawei/extra/build/build_script/kirin_kernel_release/kernel/arch/arm64/include/asm/stack_pointer.h"
	.file 141 "/mnt/disk/jenkins/ci/workspace/chipset_pipeline_release/opensource/component_code/vendor/huawei/extra/build/build_script/kirin_kernel_release/kernel/arch/arm64/include/asm/hwcap.h"
	.file 142 "/mnt/disk/jenkins/ci/workspace/chipset_pipeline_release/opensource/component_code/vendor/huawei/extra/build/build_script/kirin_kernel_release/kernel/arch/arm64/include/asm/cpufeature.h"
	.file 143 "/mnt/disk/jenkins/ci/workspace/chipset_pipeline_release/opensource/component_code/vendor/huawei/extra/build/build_script/kirin_kernel_release/kernel/arch/arm64/include/asm/virt.h"
	.file 144 "/mnt/disk/jenkins/ci/workspace/chipset_pipeline_release/opensource/component_code/vendor/huawei/extra/build/build_script/kirin_kernel_release/kernel/include/linux/jiffies.h"
	.file 145 "/mnt/disk/jenkins/ci/workspace/chipset_pipeline_release/opensource/component_code/vendor/huawei/extra/build/build_script/kirin_kernel_release/kernel/include/linux/highuid.h"
	.file 146 "/mnt/disk/jenkins/ci/workspace/chipset_pipeline_release/opensource/component_code/vendor/huawei/extra/build/build_script/kirin_kernel_release/kernel/arch/arm64/include/asm/memory.h"
	.file 147 "/mnt/disk/jenkins/ci/workspace/chipset_pipeline_release/opensource/component_code/vendor/huawei/extra/build/build_script/kirin_kernel_release/kernel/include/asm-generic/percpu.h"
	.file 148 "/mnt/disk/jenkins/ci/workspace/chipset_pipeline_release/opensource/component_code/vendor/huawei/extra/build/build_script/kirin_kernel_release/kernel/include/linux/debug_locks.h"
	.file 149 "/mnt/disk/jenkins/ci/workspace/chipset_pipeline_release/opensource/component_code/vendor/huawei/extra/build/build_script/kirin_kernel_release/kernel/include/asm-generic/pgtable.h"
	.file 150 "/mnt/disk/jenkins/ci/workspace/chipset_pipeline_release/opensource/component_code/vendor/huawei/extra/build/build_script/kirin_kernel_release/kernel/arch/arm64/include/asm/irq.h"
	.file 151 "/mnt/disk/jenkins/ci/workspace/chipset_pipeline_release/opensource/component_code/vendor/huawei/extra/build/build_script/kirin_kernel_release/kernel/arch/arm64/include/asm/hardirq.h"
	.file 152 "/mnt/disk/jenkins/ci/workspace/chipset_pipeline_release/opensource/component_code/vendor/huawei/extra/build/build_script/kirin_kernel_release/kernel/include/linux/slab.h"
	.section	.note.GNU-stack,"",%progbits
