	.cpu generic+fp+simd
	.file	"real8.c"
	.text
.Ltext0:
	.cfi_sections	.debug_frame
	.align	2
	.global	Real8_CB_GetBits
	.type	Real8_CB_GetBits, %function
Real8_CB_GetBits:
.LFB2650:
	.file 1 "/mnt/disk/jenkins/ci/workspace/chipset_pipeline_release/opensource/component_code/vendor/huawei/extra/build/build_script/kirin_kernel_release/kernel/drivers/vcodec/hi_vcodec/vdec/vfmw/vfmw_v4.0/firmware/common/syntax/real8.c"
	.loc 1 159 0
	.cfi_startproc
.LVL0:
	stp	x29, x30, [sp, -48]!
	.cfi_def_cfa_offset 48
	.cfi_offset 29, -48
	.cfi_offset 30, -40
	add	x29, sp, 0
	.cfi_def_cfa_register 29
	stp	x19, x20, [sp,16]
	str	x21, [sp,32]
	.cfi_offset 19, -32
	.cfi_offset 20, -24
	.cfi_offset 21, -16
	.loc 1 159 0
	mov	w20, w1
	mov	x21, x0
	.loc 1 164 0
	bl	BsShow
.LVL1:
	.loc 1 165 0
	mov	w1, w20
	.loc 1 164 0
	mov	w19, w0
	.loc 1 165 0
	mov	x0, x21
	bl	BsSkip
.LVL2:
	.loc 1 168 0
	ldr	x21, [sp,32]
	.cfi_restore 21
.LVL3:
	mov	w0, w19
	ldp	x19, x20, [sp,16]
	.cfi_restore 20
	.cfi_restore 19
.LVL4:
	ldp	x29, x30, [sp], 48
	.cfi_restore 30
	.cfi_restore 29
	.cfi_def_cfa 31, 0
	ret
	.cfi_endproc
.LFE2650:
	.size	Real8_CB_GetBits, .-Real8_CB_GetBits
	.align	2
	.global	Real8_CB_Get1Bit
	.type	Real8_CB_Get1Bit, %function
Real8_CB_Get1Bit:
.LFB2651:
	.loc 1 172 0
	.cfi_startproc
.LVL5:
	stp	x29, x30, [sp, -32]!
	.cfi_def_cfa_offset 32
	.cfi_offset 29, -32
	.cfi_offset 30, -24
	.loc 1 175 0
	mov	w1, 1
	.loc 1 172 0
	add	x29, sp, 0
	.cfi_def_cfa_register 29
	stp	x19, x20, [sp,16]
	.cfi_offset 19, -16
	.cfi_offset 20, -8
	.loc 1 172 0
	mov	x20, x0
	.loc 1 175 0
	bl	BsShow
.LVL6:
	.loc 1 176 0
	mov	w1, 1
	.loc 1 175 0
	mov	w19, w0
	.loc 1 176 0
	mov	x0, x20
	bl	BsSkip
.LVL7:
	.loc 1 179 0
	mov	w0, w19
	ldp	x19, x20, [sp,16]
	.cfi_restore 20
	.cfi_restore 19
.LVL8:
	ldp	x29, x30, [sp], 32
	.cfi_restore 30
	.cfi_restore 29
	.cfi_def_cfa 31, 0
	ret
	.cfi_endproc
.LFE2651:
	.size	Real8_CB_Get1Bit, .-Real8_CB_Get1Bit
	.align	2
	.global	Real8_CB_GetVLCBits
	.type	Real8_CB_GetVLCBits, %function
Real8_CB_GetVLCBits:
.LFB2652:
	.loc 1 467 0
	.cfi_startproc
.LVL9:
	stp	x29, x30, [sp, -64]!
	.cfi_def_cfa_offset 64
	.cfi_offset 29, -64
	.cfi_offset 30, -56
	add	x29, sp, 0
	.cfi_def_cfa_register 29
	stp	x19, x20, [sp,16]
	stp	x21, x22, [sp,32]
	str	x23, [sp,48]
	.cfi_offset 19, -48
	.cfi_offset 20, -40
	.cfi_offset 21, -32
	.cfi_offset 22, -24
	.cfi_offset 23, -16
	.loc 1 467 0
	mov	x21, x0
	mov	x23, x1
	.loc 1 468 0
	mov	w20, 0
.LVL10:
	mov	w19, 0
.LVL11:
	adrp	x22, .LANCHOR0
.L4:
	.loc 1 475 0
	mov	w1, 8
	mov	x0, x21
	bl	BsShow
.LVL12:
	.loc 1 477 0
	add	x1, x22, :lo12:.LANCHOR0
	ldrb	w2, [x1,w0,uxtw]
	.loc 1 483 0
	mov	x0, x21
	.loc 1 478 0
	lsr	w1, w2, 4
.LVL13:
	.loc 1 480 0
	lsr	w4, w2, 5
	and	w3, w2, 15
	.loc 1 481 0
	add	w20, w20, w1
	.loc 1 480 0
	lsl	w19, w19, w4
.LVL14:
	orr	w19, w19, w3
.LVL15:
	.loc 1 483 0
	bl	BsSkip
.LVL16:
	.loc 1 485 0 discriminator 1
	tbz	x20, 0, .L4
	.loc 1 487 0
	str	w19, [x23]
	.loc 1 490 0
	mov	w0, w20
	ldp	x19, x20, [sp,16]
	.cfi_restore 20
	.cfi_restore 19
.LVL17:
	ldp	x21, x22, [sp,32]
	.cfi_restore 22
	.cfi_restore 21
.LVL18:
	ldr	x23, [sp,48]
	.cfi_restore 23
.LVL19:
	ldp	x29, x30, [sp], 64
	.cfi_restore 30
	.cfi_restore 29
	.cfi_def_cfa 31, 0
	ret
	.cfi_endproc
.LFE2652:
	.size	Real8_CB_GetVLCBits, .-Real8_CB_GetVLCBits
	.align	2
	.global	Real8_GetImageBuffer
	.type	Real8_GetImageBuffer, %function
Real8_GetImageBuffer:
.LFB2653:
	.loc 1 502 0
	.cfi_startproc
.LVL20:
	stp	x29, x30, [sp, -48]!
	.cfi_def_cfa_offset 48
	.cfi_offset 29, -48
	.cfi_offset 30, -40
	.loc 1 510 0
	mov	w1, 1
	.loc 1 502 0
	add	x29, sp, 0
	.cfi_def_cfa_register 29
	stp	x21, x22, [sp,32]
	.cfi_offset 21, -16
	.cfi_offset 22, -8
	mov	x21, x0
	.loc 1 510 0
	add	x22, x0, 49152
	.loc 1 502 0
	stp	x19, x20, [sp,16]
	.cfi_offset 19, -32
	.cfi_offset 20, -24
	.loc 1 510 0
	add	x19, x21, 8192
	add	x19, x19, 3168
	ldr	w0, [x22,3352]
.LVL21:
	add	x20, x19, 20480
	bl	FSP_NewLogicFs
.LVL22:
	mov	w1, w0
	str	w0, [x20,16]
	.loc 1 511 0
	tbnz	w1, #31, .L15
.LBB83:
	.loc 1 524 0
	ldr	w0, [x22,3352]
	bl	FSP_GetLogicFs
.LVL23:
	mov	x19, x0
.LVL24:
	.loc 1 525 0
	cbz	x0, .L16
	.loc 1 531 0
	ldr	w2, [x20,16]
	adrp	x1, .LC2
	mov	w0, 18
	add	x1, x1, :lo12:.LC2
	bl	dprint_linux_kernel
.LVL25:
	.loc 1 532 0
	ldr	x0, [x19,296]
	cbz	x0, .L14
	.loc 1 532 0 is_stmt 0 discriminator 1
	ldr	x1, [x19,304]
	cbz	x1, .L14
	.loc 1 532 0 discriminator 2
	ldr	x4, [x19,312]
	cbz	x4, .L14
	.loc 1 534 0 is_stmt 1
	ldr	w2, [x0,12]
	mov	w0, 18
	ldr	w3, [x1,12]
	adrp	x1, .LC3
	ldr	w4, [x4,12]
	add	x1, x1, :lo12:.LC3
	bl	dprint_linux_kernel
.LVL26:
.LBE83:
	.loc 1 542 0
	mov	w0, 1
.L10:
	.loc 1 543 0
	ldp	x19, x20, [sp,16]
	.cfi_remember_state
	.cfi_restore 20
	.cfi_restore 19
.LVL27:
	ldp	x21, x22, [sp,32]
	.cfi_restore 22
	.cfi_restore 21
.LVL28:
	ldp	x29, x30, [sp], 48
	.cfi_restore 30
	.cfi_restore 29
	.cfi_def_cfa 31, 0
	ret
.LVL29:
.L14:
	.cfi_restore_state
	.loc 1 542 0
	mov	w0, 1
	.loc 1 543 0
	ldp	x19, x20, [sp,16]
	.cfi_remember_state
	.cfi_restore 19
	.cfi_restore 20
.LVL30:
	ldp	x21, x22, [sp,32]
	.cfi_restore 21
	.cfi_restore 22
.LVL31:
	ldp	x29, x30, [sp], 48
	.cfi_restore 29
	.cfi_restore 30
	.cfi_def_cfa 31, 0
	ret
.LVL32:
.L15:
	.cfi_restore_state
	.loc 1 514 0
	adrp	x1, .LC0
	mov	w0, 0
	add	x1, x1, :lo12:.LC0
	bl	dprint_linux_kernel
.LVL33:
	.loc 1 515 0
	ldr	w0, [x22,3352]
	mov	w2, 1
	ldr	w1, [x20,12]
	bl	FSP_ClearLogicFs
.LVL34:
	.loc 1 515 0 is_stmt 0 discriminator 1
	ldr	w1, [x20,8]
	mov	w2, 1
	ldr	w0, [x22,3352]
	bl	FSP_ClearLogicFs
.LVL35:
	.loc 1 515 0
	str	wzr, [x20,8]
	str	wzr, [x20,12]
	.loc 1 515 0 discriminator 2
	ldr	w0, [x22,3352]
	bl	FSP_GetNullLogicFs
.LVL36:
	.loc 1 515 0
	str	w0, [x20,12]
	str	w0, [x20,8]
	.loc 1 517 0 is_stmt 1
	add	x1, x21, 28672
	.loc 1 516 0
	strb	wzr, [x19,23]
	.loc 1 517 0
	add	x1, x1, 3232
	ldr	w0, [x22,3352]
	bl	FSP_ClearNotInVoQueue
.LVL37:
	.loc 1 519 0
	mov	w0, 0
	.loc 1 543 0
	ldp	x19, x20, [sp,16]
	.cfi_remember_state
	.cfi_restore 19
	.cfi_restore 20
	ldp	x21, x22, [sp,32]
	.cfi_restore 21
	.cfi_restore 22
.LVL38:
	ldp	x29, x30, [sp], 48
	.cfi_restore 29
	.cfi_restore 30
	.cfi_def_cfa 31, 0
	ret
.LVL39:
.L16:
	.cfi_restore_state
.LBB84:
	.loc 1 527 0
	adrp	x1, .LC1
	mov	w0, 22
.LVL40:
	add	x1, x1, :lo12:.LC1
	mov	w2, 527
	bl	dprint_linux_kernel
.LVL41:
	.loc 1 528 0
	mov	w0, 0
	b	.L10
.LBE84:
	.cfi_endproc
.LFE2653:
	.size	Real8_GetImageBuffer, .-Real8_GetImageBuffer
	.align	2
	.global	Real8_ArrangeVHBMem
	.type	Real8_ArrangeVHBMem, %function
Real8_ArrangeVHBMem:
.LFB2654:
	.loc 1 555 0
	.cfi_startproc
.LVL42:
	stp	x29, x30, [sp, -96]!
	.cfi_def_cfa_offset 96
	.cfi_offset 29, -96
	.cfi_offset 30, -88
	add	x29, sp, 0
	.cfi_def_cfa_register 29
	stp	x19, x20, [sp,16]
	stp	x21, x22, [sp,32]
	.cfi_offset 19, -80
	.cfi_offset 20, -72
	.cfi_offset 21, -64
	.cfi_offset 22, -56
	.loc 1 555 0
	adrp	x20, __stack_chk_guard
	mov	x19, x1
	.loc 1 567 0
	ldr	w4, [x2,108]
	ldr	w3, [x2,104]
	.loc 1 555 0
	ldr	x0, [x20,#:lo12:__stack_chk_guard]
.LVL43:
	.loc 1 567 0
	cmp	w4, 1
	.loc 1 555 0
	str	x0, [x29,88]
	.loc 1 567 0
	bls	.L19
	.loc 1 567 0 is_stmt 0 discriminator 1
	cmp	w3, 1
	bls	.L19
	.loc 1 573 0 is_stmt 1
	ldr	x0, [x1]
	ldr	w1, [x0,772]
.LVL44:
	cbnz	w1, .L22
	.loc 1 573 0 is_stmt 0 discriminator 1
	ldr	w1, [x0,28]
	cmp	w1, 25
	beq	.L45
.L23:
	.loc 1 606 0 is_stmt 1
	ldr	w6, [x2,100]
	mov	w8, 5
	.loc 1 607 0
	ldr	w3, [x2,96]
	.loc 1 608 0
	mov	w7, 4
.LVL45:
	.loc 1 609 0
	mov	w2, 2
.LVL46:
	.loc 1 606 0
	mov	w4, w6
.LVL47:
	.loc 1 607 0
	mov	w5, w3
.LVL48:
.L28:
	.loc 1 637 0
	add	x1, x19, 28672
	.loc 1 640 0
	str	wzr, [x29,80]
	stp	xzr, xzr, [x29,64]
	.loc 1 641 0
	str	w4, [x29,68]
	.loc 1 637 0
	str	w6, [x1,2004]
	.loc 1 638 0
	str	w3, [x1,2008]
	.loc 1 642 0
	str	w5, [x29,72]
	.loc 1 643 0
	ldr	w0, [x0,28]
	cmp	w0, 24
	beq	.L40
	.loc 1 643 0 is_stmt 0 discriminator 1
	strb	w7, [x29,65]
	.loc 1 645 0 is_stmt 1 discriminator 1
	sxtb	w2, w2
.LVL49:
.L34:
	.loc 1 648 0
	add	x22, x19, 49152
	add	x1, x29, 64
	strb	w8, [x29,66]
	.loc 1 661 0
	mov	w21, 0
	.loc 1 645 0 discriminator 4
	strb	w2, [x29,67]
	.loc 1 648 0
	ldr	w0, [x22,3352]
	bl	FSP_ConfigInstance
.LVL50:
	cbz	w0, .L46
.LVL51:
.L21:
	.loc 1 666 0
	ldr	x2, [x29,88]
.LVL52:
	mov	w0, w21
	ldr	x1, [x20,#:lo12:__stack_chk_guard]
	cmp	x2, x1
	bne	.L47
	ldp	x19, x20, [sp,16]
	.cfi_remember_state
	.cfi_restore 20
	.cfi_restore 19
.LVL53:
	ldp	x21, x22, [sp,32]
	.cfi_restore 22
	.cfi_restore 21
	ldp	x29, x30, [sp], 96
	.cfi_restore 30
	.cfi_restore 29
	.cfi_def_cfa 31, 0
	ret
.LVL54:
.L22:
	.cfi_restore_state
	.loc 1 604 0
	ldr	w1, [x0,28]
	cmp	w1, 25
	bne	.L23
	.loc 1 614 0
	ldr	w6, [x2,100]
	ldr	w4, [x0,732]
	cmp	w6, w4
	bhi	.L48
	.loc 1 614 0 is_stmt 0 discriminator 1
	ldr	w3, [x2,96]
	ldr	w5, [x0,736]
	cmp	w3, w5
	bhi	.L31
	.loc 1 625 0 is_stmt 1
	ldr	w1, [x0,760]
	.loc 1 627 0
	mov	w2, 1
.LVL55:
	.loc 1 624 0
	ldr	w7, [x0,756]
	.loc 1 621 0
	mov	w4, w6
.LVL56:
	.loc 1 622 0
	mov	w5, w3
.LVL57:
	.loc 1 624 0
	add	w7, w7, w2
.LVL58:
	.loc 1 625 0
	cbnz	w1, .L44
.L33:
	ldrsb	w8, [x0,780]
	b	.L28
.LVL59:
.L19:
	.loc 1 569 0
	adrp	x1, .LC4
	mov	w2, w4
.LVL60:
	add	x1, x1, :lo12:.LC4
	mov	w0, 0
	.loc 1 570 0
	mov	w21, 0
	.loc 1 569 0
	bl	dprint_linux_kernel
.LVL61:
	.loc 1 570 0
	b	.L21
.L46:
.LBB85:
	.loc 1 651 0
	ldr	x2, [x19]
	add	x3, x29, 60
	ldr	w0, [x22,3352]
	ldr	w1, [x2,20]
	ldr	w2, [x2,24]
	bl	FSP_PartitionFsMemory
.LVL62:
	.loc 1 653 0
	cbnz	w0, .L21
.LBE85:
	.loc 1 663 0
	add	x19, x19, 8192
.LVL63:
	mov	w0, 1
	.loc 1 665 0
	mov	w21, 1
	.loc 1 663 0
	strb	w0, [x19,3188]
	.loc 1 665 0
	b	.L21
.LVL64:
.L45:
	.loc 1 575 0
	ldr	w4, [x0,732]
	ldr	w7, [x2,100]
.LVL65:
	mov	w6, w4
	ldr	w5, [x0,736]
	cmp	w7, w4
	ldr	w8, [x2,96]
	bhi	.L25
.LVL66:
	.loc 1 575 0 is_stmt 0 discriminator 1
	cmp	w8, w5
	mov	w3, w5
	bhi	.L25
	.loc 1 587 0 is_stmt 1
	add	x1, x19, 8192
	ldrb	w21, [x1,3188]
	cmp	w21, 1
	beq	.L21
	.loc 1 593 0
	ldr	w1, [x0,760]
	.loc 1 595 0
	mov	w2, 1
.LVL67:
	.loc 1 592 0
	ldr	w7, [x0,756]
	add	w7, w7, w2
.LVL68:
	.loc 1 593 0
	cbz	w1, .L33
.L44:
	.loc 1 632 0
	cmp	w7, 17
	mov	w2, 17
	csel	w2, w7, w2, le
.LVL69:
	ldrsb	w8, [x0,780]
	b	.L28
.L40:
	.loc 1 645 0 discriminator 2
	mov	w2, 1
.LVL70:
	b	.L34
.LVL71:
.L48:
	ldr	w5, [x0,736]
	ldr	w3, [x2,96]
.L31:
	.loc 1 616 0
	adrp	x1, .LC5
	mov	w2, w6
.LVL72:
	add	x1, x1, :lo12:.LC5
	mov	w0, 0
	.loc 1 619 0
	mov	w21, 0
	.loc 1 616 0
	bl	dprint_linux_kernel
.LVL73:
	.loc 1 619 0
	b	.L21
.LVL74:
.L25:
	.loc 1 577 0
	adrp	x1, .LC5
	mov	w2, w7
.LVL75:
	add	x1, x1, :lo12:.LC5
	mov	w3, w8
	mov	w0, 0
	.loc 1 580 0
	mov	w21, 0
	.loc 1 577 0
	bl	dprint_linux_kernel
.LVL76:
	.loc 1 580 0
	b	.L21
.LVL77:
.L47:
	.loc 1 666 0
	bl	__stack_chk_fail
.LVL78:
	.cfi_endproc
.LFE2654:
	.size	Real8_ArrangeVHBMem, .-Real8_ArrangeVHBMem
	.align	2
	.global	Real8_CB_GetCPFMT
	.type	Real8_CB_GetCPFMT, %function
Real8_CB_GetCPFMT:
.LFB2655:
	.loc 1 670 0
	.cfi_startproc
.LVL79:
	stp	x29, x30, [sp, -48]!
	.cfi_def_cfa_offset 48
	.cfi_offset 29, -48
	.cfi_offset 30, -40
	add	x29, sp, 0
	.cfi_def_cfa_register 29
	stp	x21, x22, [sp,32]
	.cfi_offset 21, -16
	.cfi_offset 22, -8
	mov	x21, x1
.LBB100:
.LBB101:
	.loc 1 164 0
	mov	w1, 4
.LVL80:
.LBE101:
.LBE100:
	.loc 1 670 0
	stp	x19, x20, [sp,16]
	.cfi_offset 19, -32
	.cfi_offset 20, -24
	.loc 1 670 0
	mov	x19, x0
.LBB103:
.LBB102:
	.loc 1 164 0
	bl	BsShow
.LVL81:
	.loc 1 165 0
	mov	w1, 4
	.loc 1 164 0
	mov	w20, w0
	.loc 1 165 0
	mov	x0, x19
	bl	BsSkip
.LVL82:
.LBE102:
.LBE103:
	.loc 1 671 0
	strb	w20, [x21]
.LBB104:
.LBB105:
	.loc 1 164 0
	mov	w1, 9
	mov	x0, x19
	bl	BsShow
.LVL83:
	mov	w20, w0
	.loc 1 165 0
	mov	w1, 9
	mov	x0, x19
.LBE105:
.LBE104:
	.loc 1 672 0
	add	w20, w20, 1
.LBB107:
.LBB106:
	.loc 1 165 0
	bl	BsSkip
.LVL84:
.LBE106:
.LBE107:
	.loc 1 672 0
	lsl	w20, w20, 2
.LBB108:
.LBB109:
	.loc 1 175 0
	mov	w1, 1
.LBE109:
.LBE108:
	.loc 1 672 0
	str	w20, [x21,100]
.LBB111:
.LBB110:
	.loc 1 175 0
	mov	x0, x19
	bl	BsShow
.LVL85:
	mov	w20, w0
	.loc 1 176 0
	mov	w1, 1
	mov	x0, x19
	bl	BsSkip
.LVL86:
.LBE110:
.LBE111:
	.loc 1 675 0
	cmp	w20, 1
	beq	.L52
	.loc 1 677 0
	mov	w20, 0
	.loc 1 684 0
	mov	w0, w20
	ldp	x19, x20, [sp,16]
	.cfi_remember_state
	.cfi_restore 20
	.cfi_restore 19
.LVL87:
	ldp	x21, x22, [sp,32]
	.cfi_restore 22
	.cfi_restore 21
.LVL88:
	ldp	x29, x30, [sp], 48
	.cfi_restore 30
	.cfi_restore 29
	.cfi_def_cfa 31, 0
	ret
.LVL89:
.L52:
	.cfi_restore_state
.LBB112:
.LBB113:
.LBB114:
.LBB115:
	.loc 1 164 0
	mov	w1, 9
	mov	x0, x19
	bl	BsShow
.LVL90:
	mov	w22, w0
	.loc 1 165 0
	mov	w1, 9
	mov	x0, x19
.LBE115:
.LBE114:
	.loc 1 681 0
	lsl	w22, w22, 2
.LBB117:
.LBB116:
	.loc 1 165 0
	bl	BsSkip
.LVL91:
.LBE116:
.LBE117:
	.loc 1 681 0
	str	w22, [x21,96]
.LBE113:
.LBE112:
	.loc 1 684 0
	mov	w0, w20
	ldp	x19, x20, [sp,16]
	.cfi_restore 19
	.cfi_restore 20
.LVL92:
	ldp	x21, x22, [sp,32]
	.cfi_restore 21
	.cfi_restore 22
.LVL93:
	ldp	x29, x30, [sp], 48
	.cfi_restore 29
	.cfi_restore 30
	.cfi_def_cfa 31, 0
	ret
	.cfi_endproc
.LFE2655:
	.size	Real8_CB_GetCPFMT, .-Real8_CB_GetCPFMT
	.align	2
	.global	Real8_CB_SetDimensions
	.type	Real8_CB_SetDimensions, %function
Real8_CB_SetDimensions:
.LFB2656:
	.loc 1 697 0
	.cfi_startproc
.LVL94:
	.loc 1 704 0
	mov	x2, 96
	ldr	x1, [x0,96]
	movk	x2, 0x80, lsl 32
	cmp	x1, x2
	beq	.L69
	.loc 1 709 0
	mov	x2, 144
	movk	x2, 0xb0, lsl 32
	cmp	x1, x2
	beq	.L70
	.loc 1 714 0
	mov	x2, 288
	movk	x2, 0x160, lsl 32
	cmp	x1, x2
	beq	.L71
	.loc 1 719 0
	mov	x2, 576
	movk	x2, 0x2c0, lsl 32
	cmp	x1, x2
	beq	.L72
	.loc 1 724 0
	mov	x2, 1152
	movk	x2, 0x580, lsl 32
	cmp	x1, x2
	beq	.L73
	.loc 1 731 0
	ldr	w3, [x0,100]
	add	x2, x0, 8
	.loc 1 738 0
	mov	w1, 0
.LVL95:
	.loc 1 731 0
	add	w3, w3, 15
	lsr	w3, w3, 4
	str	w3, [x2,28]
	.loc 1 732 0
	ldr	w0, [x0,96]
.LVL96:
	add	w0, w0, 15
	lsr	w0, w0, 4
	str	w0, [x2,24]
	mul	w0, w0, w3
	sub	w0, w0, #1
	.loc 1 738 0 discriminator 3
	cmp	w0, 47
	bls	.L61
	cmp	w0, 98
	bls	.L64
	cmp	w0, 395
	bls	.L65
	cmp	w0, 1583
	bls	.L66
.L68:
	mov	w1, 6335
.LVL97:
	.loc 1 738 0 is_stmt 0 discriminator 4
	cmp	w0, w1
	mov	w0, 5
	mov	w1, 4
	csel	w1, w0, w1, hi
.LVL98:
	.loc 1 740 0 is_stmt 1
	adrp	x0, .LANCHOR0
	add	x0, x0, :lo12:.LANCHOR0
	add	x0, x0, 256
	ldr	w0, [x0,w1,uxtw 2]
	str	w0, [x2,32]
	.loc 1 741 0
	ret
.LVL99:
.L69:
	.loc 1 706 0
	add	x2, x0, 8
	mov	w0, 8
.LVL100:
	.loc 1 738 0
	mov	w1, 0
.LVL101:
	.loc 1 706 0
	str	w0, [x2,28]
	.loc 1 707 0
	mov	w0, 6
	str	w0, [x2,24]
.L61:
	.loc 1 740 0
	adrp	x0, .LANCHOR0
	add	x0, x0, :lo12:.LANCHOR0
	add	x0, x0, 256
	ldr	w0, [x0,w1,uxtw 2]
	str	w0, [x2,32]
	.loc 1 741 0
	ret
.LVL102:
.L70:
	.loc 1 711 0
	add	x2, x0, 8
	mov	w0, 11
.LVL103:
	str	w0, [x2,28]
	.loc 1 712 0
	mov	w0, 9
	str	w0, [x2,24]
.LVL104:
.L64:
	.loc 1 738 0 discriminator 4
	mov	w1, 1
	b	.L61
.LVL105:
.L71:
	.loc 1 716 0
	add	x2, x0, 8
	mov	w0, 22
.LVL106:
	str	w0, [x2,28]
	.loc 1 717 0
	mov	w0, 18
	str	w0, [x2,24]
.LVL107:
.L65:
	.loc 1 738 0 discriminator 4
	mov	w1, 2
	b	.L61
.LVL108:
.L73:
	.loc 1 726 0
	add	x2, x0, 8
	mov	w1, 88
	mov	w0, 6335
.LVL109:
	str	w1, [x2,28]
	.loc 1 727 0
	mov	w1, 72
	str	w1, [x2,24]
	b	.L68
.LVL110:
.L72:
	.loc 1 721 0
	add	x2, x0, 8
	mov	w0, 44
.LVL111:
	str	w0, [x2,28]
	.loc 1 722 0
	mov	w0, 36
	str	w0, [x2,24]
.LVL112:
.L66:
	.loc 1 738 0 discriminator 4
	mov	w1, 3
	b	.L61
	.cfi_endproc
.LFE2656:
	.size	Real8_CB_SetDimensions, .-Real8_CB_SetDimensions
	.align	2
	.global	Real8_CB_GetPicSize
	.type	Real8_CB_GetPicSize, %function
Real8_CB_GetPicSize:
.LFB2657:
	.loc 1 749 0
	.cfi_startproc
.LVL113:
	stp	x29, x30, [sp, -192]!
	.cfi_def_cfa_offset 192
	.cfi_offset 29, -192
	.cfi_offset 30, -184
	.loc 1 753 0
	mov	w5, 240
	.loc 1 749 0
	add	x29, sp, 0
	.cfi_def_cfa_register 29
	str	x25, [sp,64]
	.cfi_offset 25, -128
	mov	x25, x2
	.loc 1 753 0
	mov	w2, 320
.LVL114:
	str	w2, [x29,132]
	mov	w2, 352
	str	w2, [x29,136]
	mov	w2, 640
	str	w2, [x29,140]
	mov	w2, 704
	str	w2, [x29,144]
	.loc 1 754 0
	mov	w2, 120
	.loc 1 749 0
	stp	x23, x24, [sp,48]
	stp	x19, x20, [sp,16]
	stp	x21, x22, [sp,32]
	.cfi_offset 23, -144
	.cfi_offset 24, -136
	.cfi_offset 19, -176
	.cfi_offset 20, -168
	.cfi_offset 21, -160
	.cfi_offset 22, -152
	.loc 1 754 0
	str	w2, [x29,152]
	mov	w2, 132
	str	w2, [x29,156]
	mov	w2, 144
	.loc 1 749 0
	adrp	x23, __stack_chk_guard
	.loc 1 759 0
	ldr	w4, [x1,36]
	.loc 1 754 0
	str	w2, [x29,160]
	mov	w2, 288
	str	w2, [x29,168]
	mov	w2, 480
	.loc 1 759 0
	sub	w4, w4, #2
	.loc 1 754 0
	str	w2, [x29,172]
	.loc 1 755 0
	mov	w2, 180
	.loc 1 749 0
	ldr	x6, [x23,#:lo12:__stack_chk_guard]
	.loc 1 759 0
	cmp	w4, 1
	.loc 1 755 0
	str	w2, [x29,104]
	.loc 1 753 0
	mov	w4, 160
	.loc 1 755 0
	mov	w2, 360
	.loc 1 753 0
	str	w4, [x29,120]
	mov	w4, 176
	.loc 1 755 0
	str	w2, [x29,108]
	mov	w2, 576
	.loc 1 749 0
	str	x6, [x29,184]
	mov	x19, x0
	.loc 1 753 0
	str	w4, [x29,124]
	.loc 1 749 0
	mov	x24, x3
	.loc 1 753 0
	str	w5, [x29,128]
	str	wzr, [x29,148]
	.loc 1 754 0
	str	w5, [x29,164]
	str	wzr, [x29,176]
	str	wzr, [x29,180]
	.loc 1 755 0
	str	w2, [x29,112]
	str	wzr, [x29,116]
	.loc 1 759 0
	bls	.L89
.L75:
.LBB118:
.LBB119:
	.loc 1 164 0
	mov	w1, 3
.LVL115:
	mov	x0, x19
	bl	BsShow
.LVL116:
	mov	w20, w0
	.loc 1 165 0
	mov	w1, 3
	mov	x0, x19
	bl	BsSkip
.LVL117:
.LBE119:
.LBE118:
	.loc 1 771 0
	add	x0, x29, 120
	ldr	w21, [x0,w20,uxtw 2]
.LVL118:
	.loc 1 772 0
	cbz	w21, .L78
.L77:
.LBB120:
.LBB121:
	.loc 1 164 0
	mov	w1, 3
	mov	x0, x19
	bl	BsShow
.LVL119:
	mov	w22, w0
	.loc 1 165 0
	mov	w1, 3
	mov	x0, x19
	bl	BsSkip
.LVL120:
.LBE121:
.LBE120:
	.loc 1 784 0
	add	x0, x29, 152
	ldr	w20, [x0,w22,uxtw 2]
.LVL121:
	.loc 1 785 0
	cbz	w20, .L90
.L79:
	.loc 1 801 0
	str	w21, [x25]
	.loc 1 802 0
	str	w20, [x24]
.LVL122:
.L74:
	.loc 1 803 0
	ldr	x1, [x29,184]
.LVL123:
	ldr	x0, [x23,#:lo12:__stack_chk_guard]
	cmp	x1, x0
	bne	.L91
	ldp	x19, x20, [sp,16]
	.cfi_remember_state
	.cfi_restore 20
	.cfi_restore 19
.LVL124:
	ldp	x21, x22, [sp,32]
	.cfi_restore 22
	.cfi_restore 21
.LVL125:
	ldp	x23, x24, [sp,48]
	.cfi_restore 24
	.cfi_restore 23
.LVL126:
	ldr	x25, [sp,64]
	.cfi_restore 25
.LVL127:
	ldp	x29, x30, [sp], 192
	.cfi_restore 30
	.cfi_restore 29
	.cfi_def_cfa 31, 0
	ret
.LVL128:
.L78:
	.cfi_restore_state
.LBB122:
.LBB123:
	.loc 1 164 0
	mov	w1, 8
	mov	x0, x19
	bl	BsShow
.LVL129:
	mov	w20, w0
	.loc 1 165 0
	mov	w1, 8
	mov	x0, x19
.LBE123:
.LBE122:
	.loc 1 777 0
	add	w21, w21, w20, lsl 2
.LBB125:
.LBB124:
	.loc 1 165 0
	bl	BsSkip
.LVL130:
.LBE124:
.LBE125:
	.loc 1 779 0 discriminator 1
	cmp	w20, 255
	beq	.L78
	b	.L77
.LVL131:
.L89:
	str	x1, [x29,88]
	.loc 1 762 0
	bl	Real8_CB_Get1Bit
.LVL132:
	ldr	x1, [x29,88]
.LVL133:
	cbz	w0, .L75
	.loc 1 764 0
	ldr	w0, [x1,68]
	str	w0, [x25]
	.loc 1 765 0
	ldr	w0, [x1,72]
	str	w0, [x24]
	b	.L74
.LVL134:
.L90:
	.loc 1 788 0
	mov	x0, x19
	.loc 1 787 0
	lsl	w22, w22, 1
	.loc 1 788 0
	bl	Real8_CB_Get1Bit
.LVL135:
	orr	w0, w0, w22
	.loc 1 789 0
	and	w0, w0, 3
	.loc 1 790 0
	add	x1, x29, 104
	ldr	w20, [x1,w0,uxtw 2]
.LVL136:
	.loc 1 791 0
	cbnz	w20, .L79
.L80:
.LBB126:
.LBB127:
	.loc 1 164 0
	mov	w1, 8
	mov	x0, x19
	bl	BsShow
.LVL137:
	mov	w22, w0
	.loc 1 165 0
	mov	w1, 8
	mov	x0, x19
.LBE127:
.LBE126:
	.loc 1 796 0
	add	w20, w20, w22, lsl 2
.LBB129:
.LBB128:
	.loc 1 165 0
	bl	BsSkip
.LVL138:
.LBE128:
.LBE129:
	.loc 1 798 0 discriminator 1
	cmp	w22, 255
	beq	.L80
	b	.L79
.L91:
	.loc 1 803 0
	bl	__stack_chk_fail
.LVL139:
	.cfi_endproc
.LFE2657:
	.size	Real8_CB_GetPicSize, .-Real8_CB_GetPicSize
	.align	2
	.global	Real8_CB_FindNextSliceStartCode
	.type	Real8_CB_FindNextSliceStartCode, %function
Real8_CB_FindNextSliceStartCode:
.LFB2658:
	.loc 1 824 0
	.cfi_startproc
.LVL140:
	stp	x29, x30, [sp, -48]!
	.cfi_def_cfa_offset 48
	.cfi_offset 29, -48
	.cfi_offset 30, -40
	add	x29, sp, 0
	.cfi_def_cfa_register 29
	stp	x19, x20, [sp,16]
	str	x21, [sp,32]
	.cfi_offset 19, -32
	.cfi_offset 20, -24
	.cfi_offset 21, -16
	.loc 1 824 0
	mov	x20, x0
	.loc 1 827 0
	bl	BsToNextByte
.LVL141:
	.loc 1 830 0 discriminator 1
	mov	w19, 0
.LVL142:
	.loc 1 829 0
	mov	x0, x20
	bl	BsResidBits
.LVL143:
	cmp	w0, wzr
	add	w1, w0, 7
	csel	w21, w1, w0, lt
	asr	w21, w21, 3
	sub	w21, w21, #2
.LVL144:
	.loc 1 830 0 discriminator 1
	cmp	w21, wzr
	bgt	.L99
	b	.L96
.L102:
	.loc 1 837 0
	bl	BsSkip
.LVL145:
	.loc 1 830 0 discriminator 1
	cmp	w19, w21
	beq	.L96
.L99:
	.loc 1 832 0
	mov	w1, 17
	mov	x0, x20
	.loc 1 830 0 discriminator 2
	add	w19, w19, 1
	.loc 1 832 0
	bl	BsShow
.LVL146:
	mov	w2, w0
	cmp	w2, 1
	.loc 1 837 0
	mov	w1, 8
	mov	x0, x20
	.loc 1 832 0
	bne	.L102
	.loc 1 841 0
	mov	w0, w2
	ldr	x21, [sp,32]
	.cfi_remember_state
	.cfi_restore 21
.LVL147:
	ldp	x19, x20, [sp,16]
	.cfi_restore 20
	.cfi_restore 19
.LVL148:
	ldp	x29, x30, [sp], 48
	.cfi_restore 30
	.cfi_restore 29
	.cfi_def_cfa 31, 0
	ret
.LVL149:
.L96:
	.cfi_restore_state
	.loc 1 840 0
	mov	w2, 0
	.loc 1 841 0
	ldr	x21, [sp,32]
	.cfi_restore 21
.LVL150:
	mov	w0, w2
	ldp	x19, x20, [sp,16]
	.cfi_restore 19
	.cfi_restore 20
.LVL151:
	ldp	x29, x30, [sp], 48
	.cfi_restore 29
	.cfi_restore 30
	.cfi_def_cfa 31, 0
	ret
	.cfi_endproc
.LFE2658:
	.size	Real8_CB_FindNextSliceStartCode, .-Real8_CB_FindNextSliceStartCode
	.align	2
	.global	Real8_CB_SearchBits_IgnoreOnly0
	.type	Real8_CB_SearchBits_IgnoreOnly0, %function
Real8_CB_SearchBits_IgnoreOnly0:
.LFB2659:
	.loc 1 857 0
	.cfi_startproc
.LVL152:
	stp	x29, x30, [sp, -80]!
	.cfi_def_cfa_offset 80
	.cfi_offset 29, -80
	.cfi_offset 30, -72
	.loc 1 860 0
	sub	w4, w1, #1
	.loc 1 857 0
	add	x29, sp, 0
	.cfi_def_cfa_register 29
	stp	x21, x22, [sp,32]
	.cfi_offset 21, -48
	.cfi_offset 22, -40
	.loc 1 860 0
	mov	w22, 1
	.loc 1 857 0
	str	x25, [sp,64]
	stp	x23, x24, [sp,48]
	stp	x19, x20, [sp,16]
	.cfi_offset 25, -16
	.cfi_offset 23, -32
	.cfi_offset 24, -24
	.cfi_offset 19, -64
	.cfi_offset 20, -56
	.loc 1 857 0
	mov	w23, w2
	mov	w25, w1
	mov	x21, x0
	mov	w24, w3
	.loc 1 860 0
	lsl	w22, w22, w4
.LVL153:
.LBB134:
.LBB135:
	.loc 1 164 0
	bl	BsShow
.LVL154:
	.loc 1 165 0
	mov	w1, w25
	.loc 1 164 0
	mov	w19, w0
.LVL155:
	.loc 1 165 0
	mov	x0, x21
	bl	BsSkip
.LVL156:
.LBE135:
.LBE134:
	.loc 1 864 0 discriminator 1
	cmp	w23, w19
	beq	.L104
	cbz	w24, .L104
	.loc 1 866 0
	tst	w19, w22
	bne	.L105
	adrp	x0, .LANCHOR0
	mov	w20, 0
.LVL157:
	add	x0, x0, :lo12:.LANCHOR0
	add	x0, x0, 280
	ldr	w25, [x0,w25,uxtw 2]
.LVL158:
.L106:
.LBB136:
.LBB137:
	.loc 1 175 0
	mov	w1, 1
	mov	x0, x21
.LBE137:
.LBE136:
	.loc 1 864 0 discriminator 2
	add	w20, w20, w1
	.loc 1 870 0
	and	w19, w25, w19, lsl 1
.LVL159:
.LBB140:
.LBB138:
	.loc 1 175 0
	bl	BsShow
.LVL160:
	mov	w2, w0
	.loc 1 176 0
	mov	w1, 1
	mov	x0, x21
.LBE138:
.LBE140:
	.loc 1 870 0
	orr	w19, w2, w19
.LVL161:
.LBB141:
.LBB139:
	.loc 1 176 0
	bl	BsSkip
.LVL162:
.LBE139:
.LBE141:
	.loc 1 864 0 discriminator 1
	cmp	w23, w19
	beq	.L104
	cmp	w24, w20
	bls	.L104
	.loc 1 866 0
	tst	w19, w22
	beq	.L106
.LVL163:
.L105:
	.loc 1 879 0
	mov	w0, 0
	.loc 1 881 0
	ldr	x25, [sp,64]
	.cfi_remember_state
	.cfi_restore 25
.LVL164:
	ldp	x19, x20, [sp,16]
	.cfi_restore 19
	.cfi_restore 20
.LVL165:
	ldp	x21, x22, [sp,32]
	.cfi_restore 21
	.cfi_restore 22
.LVL166:
	ldp	x23, x24, [sp,48]
	.cfi_restore 23
	.cfi_restore 24
.LVL167:
	ldp	x29, x30, [sp], 80
	.cfi_restore 29
	.cfi_restore 30
	.cfi_def_cfa 31, 0
	ret
.LVL168:
.L104:
	.cfi_restore_state
	.loc 1 873 0
	cmp	w23, w19
	.loc 1 881 0
	ldr	x25, [sp,64]
	.cfi_restore 25
.LVL169:
	.loc 1 873 0
	cset	w0, eq
	.loc 1 881 0
	ldp	x19, x20, [sp,16]
	.cfi_restore 20
	.cfi_restore 19
.LVL170:
	ldp	x21, x22, [sp,32]
	.cfi_restore 22
	.cfi_restore 21
.LVL171:
	ldp	x23, x24, [sp,48]
	.cfi_restore 24
	.cfi_restore 23
.LVL172:
	ldp	x29, x30, [sp], 80
	.cfi_restore 30
	.cfi_restore 29
	.cfi_def_cfa 31, 0
	ret
	.cfi_endproc
.LFE2659:
	.size	Real8_CB_SearchBits_IgnoreOnly0, .-Real8_CB_SearchBits_IgnoreOnly0
	.align	2
	.global	Real8_CB_SetRPRSizes
	.type	Real8_CB_SetRPRSizes, %function
Real8_CB_SetRPRSizes:
.LFB2660:
	.loc 1 885 0
	.cfi_startproc
.LVL173:
	stp	x29, x30, [sp, -64]!
	.cfi_def_cfa_offset 64
	.cfi_offset 29, -64
	.cfi_offset 30, -56
	adrp	x4, __stack_chk_guard
	.loc 1 886 0
	mov	w3, 3
	.loc 1 885 0
	add	x29, sp, 0
	.cfi_def_cfa_register 29
	.loc 1 886 0
	mov	w5, 2
	mov	w6, 1
	.loc 1 885 0
	ldr	x7, [x4,#:lo12:__stack_chk_guard]
	str	x7, [x29,56]
	.loc 1 886 0
	str	w3, [x29,36]
	str	w3, [x29,40]
	str	w3, [x29,44]
	str	w3, [x29,48]
	.loc 1 889 0
	add	x3, x29, 16
	.loc 1 886 0
	str	w5, [x29,28]
	str	w5, [x29,32]
	str	wzr, [x29,16]
	str	w6, [x29,20]
	str	w6, [x29,24]
	.loc 1 891 0
	ldr	x5, [x29,56]
	ldr	x4, [x4,#:lo12:__stack_chk_guard]
	.loc 1 889 0
	ldr	w3, [x3,w1,uxtw 2]
	.loc 1 888 0
	str	w1, [x0,24]
	.loc 1 891 0
	cmp	x5, x4
	.loc 1 889 0
	str	w3, [x0,12]
	.loc 1 890 0
	str	x2, [x0,16]
	.loc 1 891 0
	bne	.L121
	ldp	x29, x30, [sp], 64
	.cfi_remember_state
	.cfi_restore 30
	.cfi_restore 29
	.cfi_def_cfa 31, 0
	ret
.L121:
	.cfi_restore_state
	bl	__stack_chk_fail
.LVL174:
	.cfi_endproc
.LFE2660:
	.size	Real8_CB_SetRPRSizes, .-Real8_CB_SetRPRSizes
	.align	2
	.global	Real8_CB_GetSSC
	.type	Real8_CB_GetSSC, %function
Real8_CB_GetSSC:
.LFB2661:
	.loc 1 895 0
	.cfi_startproc
.LVL175:
	stp	x29, x30, [sp, -16]!
	.cfi_def_cfa_offset 16
	.cfi_offset 29, -16
	.cfi_offset 30, -8
	add	x29, sp, 0
	.cfi_def_cfa_register 29
	.loc 1 898 0
	ldr	w2, [x1,88]
	.loc 1 910 0
	mov	w1, 0
.LVL176:
	.loc 1 898 0
	cmp	w2, 1
	beq	.L123
	.loc 1 903 0
	bl	Real8_CB_FindNextSliceStartCode
.LVL177:
	cmp	w0, wzr
	cset	w1, ne
.LVL178:
.L123:
	.loc 1 911 0
	mov	w0, w1
.LVL179:
	ldp	x29, x30, [sp], 16
	.cfi_restore 30
	.cfi_restore 29
	.cfi_def_cfa 31, 0
	ret
	.cfi_endproc
.LFE2661:
	.size	Real8_CB_GetSSC, .-Real8_CB_GetSSC
	.align	2
	.global	Real8_CB_GetSliceHeader
	.type	Real8_CB_GetSliceHeader, %function
Real8_CB_GetSliceHeader:
.LFB2662:
	.loc 1 921 0
	.cfi_startproc
.LVL180:
	stp	x29, x30, [sp, -80]!
	.cfi_def_cfa_offset 80
	.cfi_offset 29, -80
	.cfi_offset 30, -72
	add	x29, sp, 0
	.cfi_def_cfa_register 29
	stp	x19, x20, [sp,16]
	stp	x21, x22, [sp,32]
	.cfi_offset 19, -64
	.cfi_offset 20, -56
	.cfi_offset 21, -48
	.cfi_offset 22, -40
	.loc 1 921 0
	mov	x20, x0
	.loc 1 925 0
	ldr	w6, [x5,88]
	cmp	w6, 1
	beq	.L161
	.loc 1 1048 0
	cbz	w1, .L162
	.loc 1 1084 0
	str	wzr, [x2]
	.loc 1 1085 0
	mov	w1, -1
.LVL181:
	.loc 1 1089 0
	mov	w0, 1
	.loc 1 1085 0
	str	w1, [x4]
.L151:
	.loc 1 1090 0
	ldp	x19, x20, [sp,16]
	.cfi_remember_state
	.cfi_restore 20
	.cfi_restore 19
.LVL182:
	ldp	x21, x22, [sp,32]
	.cfi_restore 22
	.cfi_restore 21
	ldp	x29, x30, [sp], 80
	.cfi_restore 30
	.cfi_restore 29
	.cfi_def_cfa 31, 0
	ret
.LVL183:
.L161:
	.cfi_restore_state
	add	x19, x5, 8
	.loc 1 929 0
	cbnz	w1, .L129
	.loc 1 932 0
	add	x19, x5, 8
.LBB142:
.LBB143:
	.loc 1 164 0
	mov	w1, 3
.LVL184:
	str	x4, [x29,48]
	str	x3, [x29,56]
	str	x2, [x29,64]
.LBE143:
.LBE142:
	.loc 1 932 0
	str	x5, [x29,72]
	ldr	w22, [x19,40]
.LBB145:
.LBB144:
	.loc 1 164 0
	bl	BsShow
.LVL185:
	.loc 1 165 0
	mov	w1, 3
	.loc 1 164 0
	mov	w21, w0
	.loc 1 165 0
	mov	x0, x20
	bl	BsSkip
.LVL186:
.LBE144:
.LBE145:
	.loc 1 939 0
	cmp	w21, 7
	ldr	x5, [x29,72]
.LVL187:
	ldr	x2, [x29,64]
.LVL188:
	ldr	x3, [x29,56]
.LVL189:
	ldr	x4, [x29,48]
.LVL190:
	bhi	.L132
	.loc 1 940 0
	adrp	x0, .LANCHOR0
	add	x0, x0, :lo12:.LANCHOR0
	add	x0, x0, 384
	ldr	w0, [x0,w21,uxtw 2]
	cmp	w0, 2
	bhi	.L132
	.loc 1 932 0
	cmn	w22, #1
	str	x5, [x29,48]
	str	x4, [x29,56]
	cset	w21, eq
	str	x3, [x29,64]
.LBB146:
.LBB147:
	.loc 1 164 0
	mov	w1, 2
	str	x2, [x29,72]
	mov	x0, x20
.LBE147:
.LBE146:
	.loc 1 949 0
	cbnz	w21, .L163
.LBB149:
.LBB150:
	.loc 1 164 0
	bl	BsShow
.LVL191:
	mov	w22, w0
	.loc 1 165 0
	mov	w1, 2
	mov	x0, x20
	bl	BsSkip
.LVL192:
.LBE150:
.LBE149:
	.loc 1 955 0
	ldr	w0, [x19,36]
	ldr	x2, [x29,72]
.LVL193:
	cmp	w0, w22
	ldr	x3, [x29,64]
.LVL194:
	ldr	x4, [x29,56]
.LVL195:
	ldr	x5, [x29,48]
.LVL196:
	bne	.L132
.L134:
	.loc 1 962 0
	mov	x0, x20
	str	x5, [x29,48]
	str	x4, [x29,56]
	str	x3, [x29,64]
	str	x2, [x29,72]
	bl	Real8_CB_Get1Bit
.LVL197:
	cbnz	w0, .L132
.LBB151:
.LBB152:
	.loc 1 164 0
	mov	w1, 5
	mov	x0, x20
	bl	BsShow
.LVL198:
	mov	w22, w0
	.loc 1 165 0
	mov	w1, 5
	mov	x0, x20
	bl	BsSkip
.LVL199:
.LBE152:
.LBE151:
	.loc 1 968 0
	uxtb	w0, w22
	strb	w0, [x19,2]
	.loc 1 970 0
	cmp	w0, 31
	bhi	.L132
.LBB153:
.LBB154:
	.loc 1 164 0
	mov	w1, 1
	mov	x0, x20
	bl	BsShow
.LVL200:
	mov	w22, w0
	.loc 1 165 0
	mov	w1, 1
	mov	x0, x20
	bl	BsSkip
.LVL201:
.LBE154:
.LBE153:
	.loc 1 976 0
	cmp	w22, wzr
	.loc 1 978 0
	ldr	x2, [x29,72]
.LVL202:
	.loc 1 976 0
	cset	w0, ne
	strb	w0, [x19,1]
	.loc 1 978 0
	ldr	x3, [x29,64]
.LVL203:
	ldr	x4, [x29,56]
.LVL204:
	ldr	x5, [x29,48]
.LVL205:
	cbz	w21, .L135
.LBB155:
.LBB156:
	.loc 1 164 0
	mov	w1, 13
	mov	x0, x20
	bl	BsShow
.LVL206:
	mov	w22, w0
	.loc 1 165 0
	mov	w1, 13
	mov	x0, x20
	bl	BsSkip
.LVL207:
.LBE156:
.LBE155:
	.loc 1 991 0
	ldr	w21, [x19,4]
	.loc 1 980 0
	str	w22, [x19,44]
	.loc 1 991 0
	ldr	x2, [x29,72]
.LVL208:
	ldr	x3, [x29,64]
.LVL209:
	ldr	x4, [x29,56]
.LVL210:
	ldr	x5, [x29,48]
.LVL211:
	cbz	w21, .L164
.LBB157:
.LBB158:
.LBB159:
	.loc 1 164 0
	mov	w1, w21
	mov	x0, x20
	str	x5, [x29,72]
	str	x4, [x29,48]
	str	x3, [x29,56]
	str	x2, [x29,64]
	bl	BsShow
.LVL212:
	.loc 1 165 0
	mov	w1, w21
	.loc 1 164 0
	mov	w22, w0
	.loc 1 165 0
	mov	x0, x20
	bl	BsSkip
.LVL213:
.LBE159:
.LBE158:
	.loc 1 996 0
	str	w22, [x19,56]
	.loc 1 998 0
	ldr	x1, [x19,8]
	cbz	x1, .L132
	.loc 1 1000 0
	lsl	w22, w22, 1
	.loc 1 1008 0
	ldr	x5, [x29,72]
.LVL214:
	.loc 1 1001 0
	add	w7, w22, 1
	.loc 1 1008 0
	mov	x0, x5
	.loc 1 1000 0
	ldr	w6, [x1,w22,uxtw 2]
	.loc 1 1001 0
	ldr	w1, [x1,w7,uxtw 2]
.LVL215:
	.loc 1 1003 0
	str	w1, [x19,64]
.LVL216:
	.loc 1 1002 0
	str	w6, [x19,60]
	.loc 1 1006 0
	str	w1, [x5,96]
	.loc 1 1005 0
	str	w6, [x5,100]
	.loc 1 1008 0
	bl	Real8_CB_SetDimensions
.LVL217:
.LBE157:
.LBB160:
.LBB161:
	.loc 1 164 0
	ldr	w21, [x19,32]
	mov	x0, x20
	mov	w1, w21
	bl	BsShow
.LVL218:
	mov	w22, w0
	.loc 1 165 0
	mov	w1, w21
	mov	x0, x20
	bl	BsSkip
.LVL219:
.LBE161:
.LBE160:
	.loc 1 1025 0
	str	w22, [x19,40]
	ldr	x5, [x29,72]
.LVL220:
	ldr	x2, [x29,64]
.LVL221:
	ldr	x3, [x29,56]
.LVL222:
	ldr	x4, [x29,48]
.LVL223:
.L139:
.LBB164:
.LBB165:
	.loc 1 164 0
	mov	w1, 1
	mov	x0, x20
	str	x5, [x29,48]
	str	x4, [x29,56]
	str	x3, [x29,64]
	str	x2, [x29,72]
	bl	BsShow
.LVL224:
	.loc 1 165 0
	mov	w1, 1
	.loc 1 164 0
	mov	w21, w0
	.loc 1 165 0
	mov	x0, x20
	bl	BsSkip
.LVL225:
.LBE165:
.LBE164:
	.loc 1 1029 0
	ldr	x5, [x29,48]
.LVL226:
	ldr	x2, [x29,72]
.LVL227:
	ldr	x3, [x29,64]
.LVL228:
	ldr	x4, [x29,56]
.LVL229:
	strb	w21, [x5,8]
.LVL230:
.L129:
	.loc 1 1039 0
	ldr	w1, [x19,40]
.LVL231:
	.loc 1 1089 0
	mov	w0, 1
	.loc 1 1039 0
	str	w1, [x2]
	.loc 1 1040 0
	ldrb	w1, [x19,2]
	str	w1, [x4]
	.loc 1 1041 0
	str	wzr, [x3]
	.loc 1 1090 0
	ldp	x19, x20, [sp,16]
	.cfi_remember_state
	.cfi_restore 19
	.cfi_restore 20
.LVL232:
	ldp	x21, x22, [sp,32]
	.cfi_restore 21
	.cfi_restore 22
	ldp	x29, x30, [sp], 80
	.cfi_restore 29
	.cfi_restore 30
	.cfi_def_cfa 31, 0
	ret
.LVL233:
.L162:
	.cfi_restore_state
	str	x5, [x29,48]
	str	x4, [x29,56]
	str	x3, [x29,64]
	str	x2, [x29,72]
	.loc 1 1051 0
	bl	Real8_CB_Get1Bit
.LVL234:
	cmp	w0, 1
	ldr	x5, [x29,48]
.LVL235:
	beq	.L165
.LVL236:
.L132:
	.loc 1 943 0
	mov	w0, 0
.L166:
	.loc 1 1090 0
	ldp	x19, x20, [sp,16]
	.cfi_remember_state
	.cfi_restore 19
	.cfi_restore 20
.LVL237:
	ldp	x21, x22, [sp,32]
	.cfi_restore 21
	.cfi_restore 22
	ldp	x29, x30, [sp], 80
	.cfi_restore 29
	.cfi_restore 30
	.cfi_def_cfa 31, 0
	ret
.LVL238:
.L165:
	.cfi_restore_state
.LBB166:
.LBB167:
	.loc 1 164 0
	ldr	w21, [x5,40]
	mov	x0, x20
.LBE167:
.LBE166:
	.loc 1 1057 0
	add	x19, x5, 8
.LBB169:
.LBB168:
	.loc 1 164 0
	mov	w1, w21
	bl	BsShow
.LVL239:
	mov	w22, w0
	.loc 1 165 0
	mov	w1, w21
	mov	x0, x20
	bl	BsSkip
.LVL240:
.LBE168:
.LBE169:
	.loc 1 1057 0
	ldr	x2, [x29,72]
.LVL241:
	.loc 1 1058 0
	ldr	x3, [x29,64]
.LVL242:
	ldr	x4, [x29,56]
.LVL243:
	.loc 1 1057 0
	str	w22, [x2]
	.loc 1 1058 0
	ldr	w0, [x19,32]
	cmp	w0, 11
	bls	.L145
	.loc 1 1061 0
	mov	x0, x20
	str	x4, [x29,64]
	str	x3, [x29,72]
	bl	Real8_CB_Get1Bit
.LVL244:
	cmp	w0, 1
	ldr	x3, [x29,72]
.LVL245:
	ldr	x4, [x29,64]
.LVL246:
	bne	.L132
.LVL247:
.L145:
.LBB170:
.LBB171:
	.loc 1 164 0
	mov	w1, 5
	mov	x0, x20
	str	x4, [x29,64]
	str	x3, [x29,72]
	bl	BsShow
.LVL248:
	.loc 1 165 0
	mov	w1, 5
	.loc 1 164 0
	mov	w19, w0
	.loc 1 165 0
	mov	x0, x20
	bl	BsSkip
.LVL249:
.LBE171:
.LBE170:
	.loc 1 1067 0
	ldr	x4, [x29,64]
.LVL250:
	.loc 1 1069 0
	cmp	w19, 31
	ldr	x3, [x29,72]
.LVL251:
	.loc 1 1067 0
	str	w19, [x4]
	.loc 1 1069 0
	bgt	.L132
	.loc 1 1075 0
	mov	x0, x20
	str	x3, [x29,72]
	bl	Real8_CB_Get1Bit
.LVL252:
	cmp	w0, 1
	mov	w19, w0
	bne	.L132
.LBB172:
.LBB173:
	.loc 1 164 0
	mov	w1, 2
	mov	x0, x20
	bl	BsShow
.LVL253:
	mov	w21, w0
	.loc 1 165 0
	mov	w1, 2
	mov	x0, x20
	bl	BsSkip
.LVL254:
.LBE173:
.LBE172:
	.loc 1 1080 0
	ldr	x3, [x29,72]
.LVL255:
	.loc 1 1089 0
	mov	w0, w19
	.loc 1 1080 0
	str	w21, [x3]
	b	.L151
.LVL256:
.L163:
.LBB174:
.LBB148:
	.loc 1 164 0
	bl	BsShow
.LVL257:
	mov	w22, w0
	.loc 1 165 0
	mov	w1, 2
	mov	x0, x20
	bl	BsSkip
.LVL258:
.LBE148:
.LBE174:
	.loc 1 951 0
	str	w22, [x19,36]
	ldr	x2, [x29,72]
.LVL259:
	ldr	x3, [x29,64]
.LVL260:
	ldr	x4, [x29,56]
.LVL261:
	ldr	x5, [x29,48]
.LVL262:
	b	.L134
.L135:
.LBB175:
.LBB176:
	.loc 1 164 0
	mov	w1, 13
	mov	x0, x20
	str	x5, [x29,48]
	str	x4, [x29,56]
	str	x3, [x29,64]
	str	x2, [x29,72]
	bl	BsShow
.LVL263:
	.loc 1 165 0
	mov	w1, 13
	.loc 1 164 0
	mov	w21, w0
	.loc 1 165 0
	mov	x0, x20
	bl	BsSkip
.LVL264:
.LBE176:
.LBE175:
	.loc 1 984 0
	ldr	w0, [x19,44]
	ldr	x2, [x29,72]
.LVL265:
	cmp	w0, w21
	ldr	x3, [x29,64]
.LVL266:
	ldr	x4, [x29,56]
.LVL267:
	ldr	x5, [x29,48]
.LVL268:
	bne	.L132
	.loc 1 991 0
	ldr	w21, [x19,4]
	cbz	w21, .L156
.LBB177:
.LBB178:
	.loc 1 164 0
	mov	w1, w21
	mov	x0, x20
	str	x5, [x29,48]
	str	x4, [x29,56]
	str	x3, [x29,64]
	str	x2, [x29,72]
	bl	BsShow
.LVL269:
	.loc 1 165 0
	mov	w1, w21
	.loc 1 164 0
	mov	w22, w0
	.loc 1 165 0
	mov	x0, x20
	bl	BsSkip
.LVL270:
.LBE178:
.LBE177:
	.loc 1 1017 0
	ldr	w0, [x19,56]
	ldr	x2, [x29,72]
.LVL271:
	cmp	w0, w22
	ldr	x3, [x29,64]
.LVL272:
	ldr	x4, [x29,56]
.LVL273:
	ldr	x5, [x29,48]
.LVL274:
	bne	.L132
.L156:
.LBB179:
.LBB162:
	.loc 1 164 0
	ldr	w21, [x19,32]
	mov	x0, x20
	str	x5, [x29,48]
	mov	w1, w21
	str	x4, [x29,56]
	str	x3, [x29,64]
	str	x2, [x29,72]
	bl	BsShow
.LVL275:
	.loc 1 165 0
	mov	w1, w21
	.loc 1 164 0
	mov	w22, w0
	.loc 1 165 0
	mov	x0, x20
	bl	BsSkip
.LVL276:
.LBE162:
.LBE179:
	.loc 1 1025 0
	str	w22, [x19,40]
	ldr	x2, [x29,72]
.LVL277:
.LBB180:
.LBB181:
	.loc 1 164 0
	mov	w1, 1
	ldr	x3, [x29,64]
.LVL278:
	mov	x0, x20
	ldr	x4, [x29,56]
.LVL279:
	ldr	x5, [x29,48]
.LVL280:
	str	x5, [x29,48]
	str	x4, [x29,56]
	str	x3, [x29,64]
	str	x2, [x29,72]
	bl	BsShow
.LVL281:
	.loc 1 165 0
	mov	w1, 1
	.loc 1 164 0
	mov	w21, w0
	.loc 1 165 0
	mov	x0, x20
	bl	BsSkip
.LVL282:
.LBE181:
.LBE180:
	.loc 1 1033 0
	ldr	x5, [x29,48]
.LVL283:
	ldr	x2, [x29,72]
.LVL284:
	ldr	x3, [x29,64]
.LVL285:
	ldrb	w0, [x5,8]
	ldr	x4, [x29,56]
.LVL286:
	cmp	w0, w21
	beq	.L129
	.loc 1 943 0
	mov	w0, 0
	b	.L166
.L164:
.LBB182:
.LBB163:
	.loc 1 164 0
	ldr	w21, [x19,32]
	mov	x0, x20
	str	x5, [x29,48]
	mov	w1, w21
	str	x4, [x29,56]
	str	x3, [x29,64]
	str	x2, [x29,72]
	bl	BsShow
.LVL287:
	.loc 1 165 0
	mov	w1, w21
	.loc 1 164 0
	mov	w22, w0
	.loc 1 165 0
	mov	x0, x20
	bl	BsSkip
.LVL288:
.LBE163:
.LBE182:
	.loc 1 1025 0
	str	w22, [x19,40]
	ldr	x2, [x29,72]
.LVL289:
	ldr	x3, [x29,64]
.LVL290:
	ldr	x4, [x29,56]
.LVL291:
	ldr	x5, [x29,48]
.LVL292:
	b	.L139
	.cfi_endproc
.LFE2662:
	.size	Real8_CB_GetSliceHeader, .-Real8_CB_GetSliceHeader
	.align	2
	.global	Real8_CB_GetPictureHeader
	.type	Real8_CB_GetPictureHeader, %function
Real8_CB_GetPictureHeader:
.LFB2663:
	.loc 1 1094 0
	.cfi_startproc
.LVL293:
	stp	x29, x30, [sp, -80]!
	.cfi_def_cfa_offset 80
	.cfi_offset 29, -80
	.cfi_offset 30, -72
	add	x29, sp, 0
	.cfi_def_cfa_register 29
	stp	x19, x20, [sp,16]
	stp	x21, x22, [sp,32]
	.cfi_offset 19, -64
	.cfi_offset 20, -56
	.cfi_offset 21, -48
	.cfi_offset 22, -40
	.loc 1 1094 0
	adrp	x20, __stack_chk_guard
	mov	x19, x1
	.loc 1 1100 0
	ldr	w1, [x1,88]
.LVL294:
	.loc 1 1094 0
	mov	x21, x0
	ldr	x2, [x20,#:lo12:__stack_chk_guard]
	.loc 1 1100 0
	cmp	w1, 1
	.loc 1 1094 0
	str	x2, [x29,72]
	.loc 1 1100 0
	beq	.L195
.LBB183:
.LBB184:
.LBB185:
	.loc 1 164 0
	mov	w1, 24
.LBE185:
.LBE184:
	.loc 1 1153 0
	str	xzr, [x19,144]
	stp	xzr, xzr, [x19]
	stp	xzr, xzr, [x19,16]
	stp	xzr, xzr, [x19,32]
	stp	xzr, xzr, [x19,48]
	stp	xzr, xzr, [x19,64]
	stp	xzr, xzr, [x19,80]
	stp	xzr, xzr, [x19,96]
	stp	xzr, xzr, [x19,112]
	stp	xzr, xzr, [x19,128]
.LBB187:
.LBB186:
	.loc 1 164 0
	bl	BsShow
.LVL295:
	mov	w22, w0
	.loc 1 165 0
	mov	w1, 24
	mov	x0, x21
	bl	BsSkip
.LVL296:
.LBE186:
.LBE187:
	.loc 1 1157 0
	cmp	w22, 1
	bne	.L186
	.loc 1 1161 0
	mov	x0, x21
	add	x1, x29, 68
	bl	Real8_CB_GetVLCBits
.LVL297:
	.loc 1 1162 0
	cmp	w0, 30
	bls	.L186
.LVL298:
	.loc 1 1166 0
	ldr	w0, [x29,68]
	tbnz	x0, 0, .L186
	.loc 1 1174 0
	ands	w1, w0, 2
	mov	w3, 144
	csel	w3, wzr, w3, ne
	cmp	w1, wzr
	mov	w1, 176
	.loc 1 1182 0
	ubfx	x4, x0, 2, 5
	.loc 1 1174 0
	csel	w1, wzr, w1, ne
	.loc 1 1183 0
	ubfx	x2, x0, 7, 8
	str	w1, [x19,100]
	.loc 1 1186 0
	mov	x0, x21
	str	w3, [x19,96]
	add	x1, x29, 68
	.loc 1 1182 0
	str	w4, [x19,132]
	.loc 1 1183 0
	str	w2, [x19,120]
	.loc 1 1186 0
	bl	Real8_CB_GetVLCBits
.LVL299:
	.loc 1 1187 0
	cmp	w0, 1
	beq	.L191
	.loc 1 1191 0
	cmp	w0, 3
	beq	.L196
	.loc 1 1195 0
	cmp	w0, 5
	bne	.L186
	.loc 1 1195 0 is_stmt 0 discriminator 1
	ldr	w0, [x29,68]
.LVL300:
	cbnz	w0, .L186
	.loc 1 1197 0 is_stmt 1
	mov	w0, 2
.L191:
	str	w0, [x19,92]
.LVL301:
.L180:
	.loc 1 1204 0
	ldr	w0, [x19,100]
	cbz	w0, .L197
.L182:
	.loc 1 1212 0
	sub	w0, w0, #48
	mov	w1, 8144
	cmp	w0, w1
	bhi	.L186
.L194:
	.loc 1 1213 0
	ldr	w0, [x19,96]
	sub	w0, w0, #48
	.loc 1 1212 0 discriminator 1
	cmp	w0, w1
	bhi	.L186
	.loc 1 1217 0
	mov	x0, x19
	bl	Real8_CB_SetDimensions
.LVL302:
.LBE183:
	.loc 1 1095 0
	mov	w0, 1
.LVL303:
.L169:
	.loc 1 1220 0
	ldr	w2, [x19,100]
	.loc 1 1221 0
	ldr	w1, [x19,96]
	.loc 1 1220 0
	add	w2, w2, 15
	.loc 1 1221 0
	add	w1, w1, 15
	.loc 1 1220 0
	lsr	w2, w2, 4
	.loc 1 1221 0
	lsr	w1, w1, 4
	str	w1, [x19,104]
	.loc 1 1220 0
	str	w2, [x19,108]
	.loc 1 1222 0
	mul	w1, w1, w2
	str	w1, [x19,112]
.L176:
	.loc 1 1225 0
	ldr	x2, [x29,72]
	ldr	x1, [x20,#:lo12:__stack_chk_guard]
	cmp	x2, x1
	bne	.L198
	ldp	x19, x20, [sp,16]
	.cfi_remember_state
	.cfi_restore 20
	.cfi_restore 19
.LVL304:
.LVL305:
	ldp	x21, x22, [sp,32]
	.cfi_restore 22
	.cfi_restore 21
.LVL306:
	ldp	x29, x30, [sp], 80
	.cfi_restore 30
	.cfi_restore 29
	.cfi_def_cfa 31, 0
	ret
.LVL307:
.L196:
	.cfi_restore_state
.LBB188:
	.loc 1 1191 0 discriminator 1
	ldr	w0, [x29,68]
.LVL308:
	cmp	w0, 1
	beq	.L199
.L186:
.LBE188:
	.loc 1 1139 0
	mov	w0, -2
	b	.L176
.LVL309:
.L195:
	.loc 1 1105 0
	add	x21, x19, 8
.LVL310:
	mov	w5, -1
	.loc 1 1106 0
	mov	w1, 0
	add	x2, x29, 64
	add	x3, x29, 60
	add	x4, x29, 68
	.loc 1 1105 0
	str	w5, [x21,40]
	.loc 1 1106 0
	mov	x5, x19
	bl	Real8_CB_GetSliceHeader
.LVL311:
	cmp	w0, 1
	.loc 1 1145 0
	mov	w0, -2
.LVL312:
	.loc 1 1106 0
	bne	.L169
	.loc 1 1108 0
	ldr	w0, [x21,36]
.LVL313:
	cmp	w0, 3
	bls	.L200
.L170:
	.loc 1 1128 0
	ldrb	w0, [x19,8]
	.loc 1 1136 0
	mov	w1, 8144
	.loc 1 1128 0
	str	w0, [x19,124]
	.loc 1 1136 0
	ldr	w0, [x19,100]
	.loc 1 1129 0
	ldrb	w2, [x21,1]
	str	w2, [x19,128]
	.loc 1 1136 0
	sub	w0, w0, #48
	cmp	w0, w1
	.loc 1 1130 0
	ldrb	w0, [x21,2]
	str	w0, [x19,132]
	.loc 1 1131 0
	ldr	w0, [x21,44]
	str	w0, [x19,120]
	.loc 1 1132 0
	ldr	w0, [x21,48]
	str	w0, [x19,140]
	.loc 1 1133 0
	ldr	w0, [x21,52]
	str	w0, [x19,144]
	.loc 1 1136 0
	bls	.L194
	.loc 1 1139 0
	mov	w0, -2
	b	.L176
.LVL314:
.L197:
.LBB189:
	.loc 1 1206 0
	mov	x0, x21
	mov	x1, x19
	bl	Real8_CB_GetCPFMT
.LVL315:
	cbz	w0, .L186
	ldr	w0, [x19,100]
	b	.L182
.LVL316:
.L200:
.LBE189:
	.loc 1 1108 0
	adrp	x1, .L172
	add	x1, x1, :lo12:.L172
	ldrb	w0, [x1,w0,uxtw]
	adr	x1, .Lrtx172
	add	x0, x1, w0, sxtb #2
	br	x0
.Lrtx172:
	.section	.rodata
	.align	0
	.align	2
.L172:
	.byte	(.L171 - .Lrtx172) / 4
	.byte	(.L173 - .Lrtx172) / 4
	.byte	(.L174 - .Lrtx172) / 4
	.byte	(.L175 - .Lrtx172) / 4
	.text
.LVL317:
.L199:
.LBB190:
	.loc 1 1193 0
	str	wzr, [x19,92]
	b	.L180
.LVL318:
.L174:
.LBE190:
	.loc 1 1119 0
	mov	w0, 1
	str	w0, [x19,92]
	.loc 1 1120 0
	b	.L170
.L173:
	.loc 1 1115 0
	str	wzr, [x19,92]
	.loc 1 1116 0
	str	wzr, [x21,20]
	.loc 1 1117 0
	b	.L170
.L171:
	.loc 1 1111 0
	str	wzr, [x19,92]
	.loc 1 1112 0
	mov	w0, 1
	str	w0, [x21,20]
	.loc 1 1113 0
	b	.L170
.L175:
	.loc 1 1122 0
	mov	w0, 2
	str	w0, [x19,92]
	.loc 1 1123 0
	b	.L170
.LVL319:
.L198:
	.loc 1 1225 0
	bl	__stack_chk_fail
.LVL320:
	.cfi_endproc
.LFE2663:
	.size	Real8_CB_GetPictureHeader, .-Real8_CB_GetPictureHeader
	.align	2
	.global	Real8_SetImgFormat
	.type	Real8_SetImgFormat, %function
Real8_SetImgFormat:
.LFB2664:
	.loc 1 1229 0
	.cfi_startproc
.LVL321:
	stp	x29, x30, [sp, -32]!
	.cfi_def_cfa_offset 32
	.cfi_offset 29, -32
	.cfi_offset 30, -24
	add	x29, sp, 0
	.cfi_def_cfa_register 29
	stp	x19, x20, [sp,16]
	.cfi_offset 19, -16
	.cfi_offset 20, -8
	.loc 1 1229 0
	mov	x20, x0
	.loc 1 1238 0
	mov	x0, 31840
.LVL322:
	add	x0, x20, x0
	add	x2, x20, 49152
	ldr	w1, [x0,16]
	ldr	w0, [x2,3352]
	bl	FSP_GetFsImagePtr
.LVL323:
	mov	x19, x0
.LVL324:
	.loc 1 1239 0
	cbz	x0, .L201
	.loc 1 1244 0
	add	x2, x20, 28672
	.loc 1 1253 0
	mov	w4, 7200
	.loc 1 1244 0
	add	x2, x2, 1800
	.loc 1 1260 0
	mov	w1, 0
	.loc 1 1253 0
	ldr	w3, [x2,92]
	.loc 1 1256 0
	str	wzr, [x0,32]
	.loc 1 1253 0
	and	w3, w3, 3
	.loc 1 1254 0
	str	w3, [x0,36]
	.loc 1 1255 0
	str	w3, [x0,40]
	.loc 1 1253 0
	orr	w3, w3, w4
	str	w3, [x0,44]
	.loc 1 1257 0
	ldr	w3, [x2,100]
	str	w3, [x0,48]
	.loc 1 1258 0
	ldr	w2, [x2,96]
	str	w2, [x0,52]
	.loc 1 1260 0
	bl	SetAspectRatio
.LVL325:
	.loc 1 1262 0
	ldr	x0, [x20]
	ldr	w0, [x0,28]
	cmp	w0, 25
	beq	.L205
.L201:
	.loc 1 1275 0
	ldp	x19, x20, [sp,16]
	.cfi_remember_state
	.cfi_restore 20
	.cfi_restore 19
.LVL326:
	ldp	x29, x30, [sp], 32
	.cfi_restore 30
	.cfi_restore 29
	.cfi_def_cfa 31, 0
	ret
.LVL327:
.L205:
	.cfi_restore_state
.LBB191:
	.loc 1 1265 0
	ldr	w0, [x19,52]
	.loc 1 1264 0
	ldr	w2, [x19,76]
	.loc 1 1267 0
	ldr	w3, [x19,168]
	.loc 1 1265 0
	add	w0, w0, 15
	lsl	w1, w2, 4
	lsr	w0, w0, 4
	.loc 1 1270 0
	add	w4, w3, w2
	.loc 1 1268 0
	str	w3, [x19,136]
	.loc 1 1267 0
	madd	w0, w1, w0, w3
	str	w0, [x19,172]
	.loc 1 1269 0
	str	w0, [x19,140]
	.loc 1 1271 0
	add	w2, w0, w2
	.loc 1 1270 0
	str	w4, [x19,144]
	.loc 1 1271 0
	str	w2, [x19,148]
	.loc 1 1272 0
	str	w3, [x19,176]
	.loc 1 1273 0
	str	w0, [x19,180]
.LBE191:
	.loc 1 1275 0
	ldp	x19, x20, [sp,16]
	.cfi_restore 19
	.cfi_restore 20
.LVL328:
	ldp	x29, x30, [sp], 32
	.cfi_restore 29
	.cfi_restore 30
	.cfi_def_cfa 31, 0
	ret
	.cfi_endproc
.LFE2664:
	.size	Real8_SetImgFormat, .-Real8_SetImgFormat
	.align	2
	.global	Real8_WriteSliceMsg
	.type	Real8_WriteSliceMsg, %function
Real8_WriteSliceMsg:
.LFB2665:
	.loc 1 1279 0
	.cfi_startproc
.LVL329:
	.loc 1 1293 0
	sxtw	x4, w1
.LVL330:
	add	x6, x0, 28672
	lsl	x2, x4, 4
	add	x0, x0, 16
.LVL331:
	sub	x2, x2, x4, lsl 2
	.loc 1 1307 0
	add	w1, w1, 1
	.loc 1 1293 0
	sub	x2, x2, x4
	ldr	w9, [x6,1980]
	add	x2, x0, x2, lsl 2
	.loc 1 1295 0
	add	x5, x2, 80
	.loc 1 1303 0
	add	x4, x2, 96
.LVL332:
	.loc 1 1293 0
	str	w9, [x2,76]
	.loc 1 1294 0
	ldr	w9, [x6,1972]
	str	w9, [x2,84]
	.loc 1 1295 0
	ldr	w8, [x6,1976]
	str	w8, [x2,92]
	.loc 1 1297 0
	ldr	w8, [x6,1992]
	str	w8, [x2,80]
	.loc 1 1298 0
	ldr	w8, [x6,1984]
	str	w8, [x2,88]
	.loc 1 1299 0
	ldr	w7, [x6,1988]
	str	w7, [x2,96]
	.loc 1 1301 0
	ldr	w2, [x6,1960]
	str	w2, [x5,20]
	.loc 1 1302 0
	ldr	w2, [x6,1956]
	str	w2, [x5,24]
	.loc 1 1303 0
	ldr	w2, [x6,1952]
	str	w2, [x4,12]
	.loc 1 1304 0
	ldr	w2, [x6,1964]
	str	w2, [x4,16]
	.loc 1 1305 0
	ldr	w2, [x6,1968]
	str	w2, [x4,20]
	.loc 1 1307 0
	str	w1, [x0,32]
	.loc 1 1310 0
	ret
	.cfi_endproc
.LFE2665:
	.size	Real8_WriteSliceMsg, .-Real8_WriteSliceMsg
	.align	2
	.global	Real8_WritePicMsg
	.type	Real8_WritePicMsg, %function
Real8_WritePicMsg:
.LFB2666:
	.loc 1 1314 0
	.cfi_startproc
.LVL333:
	.loc 1 1323 0
	add	x3, x0, 28672
	add	x1, x0, 16
	.loc 1 1326 0
	mov	x2, 27744
	add	x2, x0, x2
	.loc 1 1323 0
	ldr	w4, [x3,1892]
	strb	w4, [x0,24]
	.loc 1 1333 0
	cmp	w4, 2
	.loc 1 1324 0
	ldr	w4, [x3,1908]
	str	w4, [x0,16]
	.loc 1 1325 0
	ldr	w0, [x3,1904]
.LVL334:
	str	w0, [x1,4]
	.loc 1 1326 0
	ldr	w0, [x2,4028]
	str	w0, [x1,12]
	.loc 1 1327 0
	ldr	w0, [x2,4032]
	str	w0, [x1,16]
	.loc 1 1329 0
	ldr	w0, [x3,1932]
	str	w0, [x1,20]
	.loc 1 1330 0
	ldr	w3, [x2,2924]
	str	w3, [x1,24]
	.loc 1 1331 0
	ldr	w3, [x2,2928]
	str	w3, [x1,28]
	.loc 1 1333 0
	beq	.L207
	.loc 1 1335 0
	str	w0, [x2,2924]
.L207:
	.loc 1 1339 0
	ret
	.cfi_endproc
.LFE2666:
	.size	Real8_WritePicMsg, .-Real8_WritePicMsg
	.align	2
	.global	Real8_WriteReg
	.type	Real8_WriteReg, %function
Real8_WriteReg:
.LFB2667:
	.loc 1 1343 0
	.cfi_startproc
.LVL335:
	.loc 1 1347 0
	str	w1, [x0,52]
	.loc 1 1350 0
	ret
	.cfi_endproc
.LFE2667:
	.size	Real8_WriteReg, .-Real8_WriteReg
	.align	2
	.global	Real8_ModifySliceMsg
	.type	Real8_ModifySliceMsg, %function
Real8_ModifySliceMsg:
.LFB2668:
	.loc 1 1354 0
	.cfi_startproc
.LVL336:
	.loc 1 1362 0
	add	x3, x0, 16
	.loc 1 1364 0
	ldr	w1, [x3,112]
	.loc 1 1362 0
	ldr	w6, [x0,16]
	ldr	w0, [x3,4]
.LVL337:
	.loc 1 1364 0
	cbnz	w1, .L217
	.loc 1 1369 0
	ldr	w4, [x3,32]
	.loc 1 1362 0
	mul	w6, w0, w6
	.loc 1 1369 0
	cmp	w4, 2
	.loc 1 1362 0
	sub	w6, w6, #1
.LVL338:
	.loc 1 1369 0
	bls	.L216
	.loc 1 1373 0
	ldr	w0, [x3,156]
	.loc 1 1371 0 discriminator 1
	sub	w7, w4, #1
	.loc 1 1373 0 discriminator 1
	cmp	w6, w0
	ble	.L217
	cmp	w0, wzr
	mov	w1, 1
	bgt	.L220
	b	.L217
.L221:
	.loc 1 1373 0 is_stmt 0
	sub	x0, x0, x2, lsl 2
	sub	x0, x0, x2
	add	x0, x3, x0, lsl 2
	ldr	w0, [x0,112]
	.loc 1 1373 0 discriminator 1
	cmp	w6, w0
	ble	.L217
	cmp	w0, wzr
	ble	.L217
.L220:
	.loc 1 1371 0 is_stmt 1 discriminator 2
	add	w1, w1, 1
	.loc 1 1371 0 is_stmt 0 discriminator 1
	cmp	w1, w7
	.loc 1 1373 0 is_stmt 1
	sxtw	x2, w1
	lsl	x0, x2, 4
	.loc 1 1371 0 discriminator 1
	bne	.L221
.L222:
	.loc 1 1373 0 discriminator 1
	mov	w5, 0
	mov	x2, 0
.L219:
	.loc 1 1384 0
	lsl	x1, x2, 4
	add	w5, w5, 1
	sub	x1, x1, x2, lsl 2
	sub	x1, x1, x2
	sxtw	x2, w5
	lsl	x0, x2, 4
	sub	x0, x0, x2, lsl 2
	add	x1, x3, x1, lsl 2
	sub	x0, x0, x2
	add	x0, x3, x0, lsl 2
	ldr	w1, [x1,112]
	ldr	w0, [x0,112]
	cmp	w1, w0
	bge	.L217
	.loc 1 1382 0 discriminator 1
	cmp	w5, w7
	bne	.L219
	.loc 1 1390 0
	uxtw	x5, w5
	lsl	x0, x5, 4
	sub	x0, x0, x5, lsl 2
	sub	x5, x0, x5
	add	x5, x3, x5, lsl 2
	ldr	w0, [x5,112]
	.loc 1 1390 0 is_stmt 0 discriminator 1
	cmp	w6, w0
	blt	.L217
	cmp	w0, wzr
	ble	.L217
.L225:
	.loc 1 1397 0 is_stmt 1 discriminator 1
	cbz	w4, .L250
	sub	w8, w4, #1
	mov	w2, 0
.L227:
	add	w0, w2, 1
	.loc 1 1399 0
	cmp	w8, w2
	.loc 1 1405 0
	sxtw	x0, w0
	.loc 1 1399 0
	beq	.L236
	.loc 1 1405 0
	lsl	x1, x0, 4
	sub	x1, x1, x0, lsl 2
	sub	x0, x1, x0
	add	x0, x3, x0, lsl 2
	ldr	w1, [x0,112]
	sub	w1, w1, #1
.L226:
	sxtw	x5, w2
	.loc 1 1397 0 discriminator 2
	add	w2, w2, 1
	lsl	x0, x5, 4
	sub	x0, x0, x5, lsl 2
	sub	x0, x0, x5
	add	x0, x3, x0, lsl 2
	.loc 1 1408 0
	ldr	w5, [x0,112]
	str	w1, [x0,116]
	.loc 1 1409 0
	cmp	w6, w5
	cset	w7, lt
	.loc 1 1408 0
	cmp	w1, w5
	cset	w0, lt
	orr	w5, w7, w5, lsr 31
	orr	w5, w0, w5
	.loc 1 1410 0
	cmp	w6, w1
	orr	w1, w5, w1, lsr 31
	cbnz	w1, .L217
	blt	.L217
	.loc 1 1397 0 discriminator 1
	cmp	w2, w4
	bne	.L227
	.loc 1 1418 0
	ldr	w6, [x3,76]
.LVL339:
	mov	w2, 0
.L229:
	.loc 1 1422 0
	sxtw	x0, w2
	.loc 1 1420 0 discriminator 2
	add	w2, w2, 1
	.loc 1 1422 0
	lsl	x1, x0, 4
	sub	x1, x1, x0, lsl 2
	sub	x0, x1, x0
	add	x0, x3, x0, lsl 2
	ldr	w1, [x0,76]
	.loc 1 1427 0
	ldr	w5, [x0,80]
	cmp	w6, w1
	csel	w6, w6, w1, ls
	cmp	w5, w6
	bcs	.L228
	.loc 1 1427 0 is_stmt 0 discriminator 1
	ldr	w0, [x0,96]
	cmp	w0, wzr
	csel	w6, w6, w5, eq
.L228:
	.loc 1 1420 0 is_stmt 1 discriminator 1
	cmp	w2, w4
	bne	.L229
	.loc 1 1433 0
	and	w6, w6, -16
	mov	w7, 0
	str	w6, [x3,40]
	b	.L233
.L251:
	.loc 1 1440 0
	ldr	w0, [x8,20]
	ldr	w2, [x8,12]
	.loc 1 1444 0
	and	w8, w0, 7
	add	w2, w2, w0, lsr 3
	.loc 1 1439 0
	sub	w0, w2, w6
	.loc 1 1443 0
	ubfiz	w9, w0, 3, 4
	.loc 1 1442 0
	and	w1, w0, -16
	.loc 1 1444 0
	add	w8, w9, w8
.L232:
	lsl	x0, x5, 4
	.loc 1 1435 0 discriminator 2
	add	w7, w7, 1
	sub	x0, x0, x5, lsl 2
	.loc 1 1435 0 is_stmt 0 discriminator 1
	cmp	w7, w4
	sub	x0, x0, x5
	add	x0, x3, x0, lsl 2
	str	w8, [x0,84]
	str	w1, [x0,76]
	beq	.L234
.L233:
	.loc 1 1437 0 is_stmt 1
	sxtw	x5, w7
	lsl	x0, x5, 4
	sub	x0, x0, x5, lsl 2
	sub	x0, x0, x5
	add	x0, x3, x0, lsl 2
	.loc 1 1449 0
	add	x8, x0, 64
	.loc 1 1437 0
	add	x0, x0, 68
	ldr	w9, [x0,12]
	cbz	w9, .L251
	.loc 1 1449 0
	ldr	w1, [x8,20]
	.loc 1 1455 0
	ldr	w2, [x0,20]
	ldr	w11, [x8,12]
	.loc 1 1452 0
	and	w8, w1, 7
	.loc 1 1458 0
	and	w10, w2, 7
	add	w1, w11, w1, lsr 3
	add	w2, w9, w2, lsr 3
	.loc 1 1448 0
	sub	w1, w1, w6
	.loc 1 1454 0
	sub	w2, w2, w6
.LVL340:
	.loc 1 1451 0
	ubfiz	w11, w1, 3, 4
	.loc 1 1457 0
	ubfiz	w9, w2, 3, 4
	.loc 1 1458 0
	add	w9, w9, w10
	.loc 1 1456 0
	and	w2, w2, -16
.LVL341:
	.loc 1 1450 0
	and	w1, w1, -16
	.loc 1 1452 0
	add	w8, w11, w8
	.loc 1 1456 0
	str	w2, [x0,12]
	.loc 1 1457 0
	str	w9, [x0,20]
	b	.L232
.LVL342:
.L217:
	.loc 1 1366 0
	mov	w0, 0
	.loc 1 1463 0
	ret
.L216:
	mov	w7, 1
	.loc 1 1380 0
	beq	.L222
	b	.L225
.L250:
	.loc 1 1433 0
	ldr	w0, [x3,76]
	and	w0, w0, -16
	str	w0, [x3,40]
.L234:
	.loc 1 1462 0
	mov	w0, 1
	.loc 1 1463 0
	ret
.L236:
	.loc 1 1362 0
	mov	w1, w6
	b	.L226
	.cfi_endproc
.LFE2668:
	.size	Real8_ModifySliceMsg, .-Real8_ModifySliceMsg
	.align	2
	.global	REAL8DEC_Init
	.type	REAL8DEC_Init, %function
REAL8DEC_Init:
.LFB2669:
	.loc 1 1467 0
	.cfi_startproc
.LVL343:
	stp	x29, x30, [sp, -48]!
	.cfi_def_cfa_offset 48
	.cfi_offset 29, -48
	.cfi_offset 30, -40
	.loc 1 1474 0
	mov	x2, 52512
	.loc 1 1467 0
	add	x29, sp, 0
	.cfi_def_cfa_register 29
	stp	x19, x20, [sp,16]
	.cfi_offset 19, -32
	.cfi_offset 20, -24
	.loc 1 1473 0
	add	x20, x0, 28672
	.loc 1 1467 0
	mov	x19, x0
	stp	x21, x22, [sp,32]
	.cfi_offset 21, -16
	.cfi_offset 22, -8
	.loc 1 1467 0
	mov	x21, x1
	.loc 1 1474 0
	mov	w1, 0
.LVL344:
	.loc 1 1473 0
	ldr	w22, [x20,3840]
	.loc 1 1474 0
	bl	memset
.LVL345:
	.loc 1 1475 0
	str	w22, [x20,3840]
	.loc 1 1476 0
	add	x0, x20, 3232
	bl	ResetVoQueue
.LVL346:
	.loc 1 1478 0
	str	x21, [x19]
	.loc 1 1482 0
	add	x1, x19, 8192
	mov	w5, 15
	add	x1, x1, 3168
	.loc 1 1491 0
	mov	x0, x19
	.loc 1 1482 0
	add	x4, x1, 16384
	.loc 1 1491 0
	add	x19, x19, 49152
.LVL347:
	.loc 1 1487 0
	mov	w2, 1
	.loc 1 1482 0
	str	w5, [x4,2924]
	.loc 1 1483 0
	str	w5, [x4,2928]
	.loc 1 1484 0
	ldr	w4, [x21,12]
	strb	w4, [x1,18]
	.loc 1 1485 0
	strb	wzr, [x1,20]
	.loc 1 1488 0
	mov	w1, 8192
	.loc 1 1487 0
	str	w2, [x20,1888]
	.loc 1 1488 0
	str	w1, [x20,1916]
	.loc 1 1489 0
	strb	w2, [x20,1800]
	.loc 1 1491 0
	bl	VCTRL_GetChanIDByCtx
.LVL348:
	.loc 1 1492 0
	cmn	w0, #1
	.loc 1 1491 0
	str	w0, [x19,3352]
	.loc 1 1498 0
	mov	w1, 0
	.loc 1 1492 0
	beq	.L255
.L253:
	.loc 1 1499 0
	mov	w0, w1
	ldp	x19, x20, [sp,16]
	.cfi_remember_state
	.cfi_restore 20
	.cfi_restore 19
	ldp	x21, x22, [sp,32]
	.cfi_restore 22
	.cfi_restore 21
.LVL349:
	ldp	x29, x30, [sp], 48
	.cfi_restore 30
	.cfi_restore 29
	.cfi_def_cfa 31, 0
	ret
.LVL350:
.L255:
	.cfi_restore_state
	.loc 1 1494 0
	adrp	x1, .LC6
	mov	w0, 0
	add	x1, x1, :lo12:.LC6
	bl	dprint_linux_kernel
.LVL351:
	.loc 1 1495 0
	mov	w1, -20
	b	.L253
	.cfi_endproc
.LFE2669:
	.size	REAL8DEC_Init, .-REAL8DEC_Init
	.align	2
	.global	REAL8DEC_Destroy
	.type	REAL8DEC_Destroy, %function
REAL8DEC_Destroy:
.LFB2670:
	.loc 1 1503 0
	.cfi_startproc
.LVL352:
	.loc 1 1507 0
	mov	x2, 27744
	adrp	x1, .LC7
	add	x2, x0, x2
	add	x1, x1, :lo12:.LC7
	.loc 1 1503 0
	stp	x29, x30, [sp, -16]!
	.cfi_def_cfa_offset 16
	.cfi_offset 29, -16
	.cfi_offset 30, -8
	.loc 1 1507 0
	mov	w0, 2
.LVL353:
	.loc 1 1503 0
	add	x29, sp, 0
	.cfi_def_cfa_register 29
	.loc 1 1507 0
	ldr	w2, [x2,4004]
	bl	dprint_linux_kernel
.LVL354:
	.loc 1 1510 0
	ldp	x29, x30, [sp], 16
	.cfi_restore 30
	.cfi_restore 29
	.cfi_def_cfa 31, 0
	ret
	.cfi_endproc
.LFE2670:
	.size	REAL8DEC_Destroy, .-REAL8DEC_Destroy
	.align	2
	.global	REAL8DEC_Decode
	.type	REAL8DEC_Decode, %function
REAL8DEC_Decode:
.LFB2671:
	.loc 1 1513 0
	.cfi_startproc
.LVL355:
	stp	x29, x30, [sp, -480]!
	.cfi_def_cfa_offset 480
	.cfi_offset 29, -480
	.cfi_offset 30, -472
	.loc 1 1551 0
	mov	w5, 8192
	.loc 1 1513 0
	add	x29, sp, 0
	.cfi_def_cfa_register 29
	stp	x19, x20, [sp,16]
	.cfi_offset 19, -464
	.cfi_offset 20, -456
	mov	x19, x1
	.loc 1 1514 0
	add	x1, x29, 320
.LVL356:
	.loc 1 1513 0
	stp	x21, x22, [sp,32]
	stp	x23, x24, [sp,48]
	stp	x25, x26, [sp,64]
	stp	x27, x28, [sp,80]
	.cfi_offset 21, -448
	.cfi_offset 22, -440
	.cfi_offset 23, -432
	.cfi_offset 24, -424
	.cfi_offset 25, -416
	.cfi_offset 26, -408
	.cfi_offset 27, -400
	.cfi_offset 28, -392
	.loc 1 1514 0
	stp	xzr, xzr, [x1]
	add	x1, x29, 336
	add	x7, x29, 400
	.loc 1 1513 0
	adrp	x22, __stack_chk_guard
	.loc 1 1543 0
	add	x23, x0, 28672
	.loc 1 1513 0
	mov	x20, x0
	.loc 1 1514 0
	add	x0, x29, 384
.LVL357:
	stp	xzr, xzr, [x1]
	add	x1, x29, 352
	.loc 1 1513 0
	ldr	x6, [x22,#:lo12:__stack_chk_guard]
	.loc 1 1514 0
	stp	xzr, xzr, [x7]
	add	x7, x29, 432
	.loc 1 1543 0
	ldr	w4, [x23,1868]
	.loc 1 1514 0
	stp	xzr, xzr, [x1]
	add	x1, x29, 368
	.loc 1 1544 0
	ldr	w3, [x23,1872]
	.loc 1 1514 0
	stp	xzr, xzr, [x0]
	stp	xzr, xzr, [x7]
	stp	xzr, xzr, [x1]
	add	x1, x29, 416
	.loc 1 1513 0
	str	x6, [x29,472]
	.loc 1 1514 0
	str	xzr, [x29,464]
	.loc 1 1550 0
	mov	w0, 1
	.loc 1 1520 0
	str	wzr, [x29,192]
.LVL358:
	.loc 1 1537 0
	add	x25, x20, 16
	.loc 1 1514 0
	stp	xzr, xzr, [x1]
	add	x1, x29, 448
	.loc 1 1520 0
	str	wzr, [x29,196]
.LVL359:
	str	wzr, [x29,200]
.LVL360:
	.loc 1 1514 0
	stp	xzr, xzr, [x1]
	.loc 1 1530 0
	add	x1, x29, 256
	stp	xzr, xzr, [x1]
	add	x1, x29, 272
	stp	xzr, xzr, [x1]
	add	x1, x29, 288
	stp	xzr, xzr, [x1]
	add	x1, x29, 304
	stp	xzr, xzr, [x1]
	.loc 1 1543 0
	str	w4, [x23,1876]
	.loc 1 1544 0
	str	w3, [x23,1880]
	.loc 1 1545 0
	str	w4, [x29,396]
	.loc 1 1546 0
	str	w3, [x29,400]
	.loc 1 1547 0
	str	w4, [x29,388]
	.loc 1 1548 0
	str	w3, [x29,392]
	.loc 1 1550 0
	str	w0, [x23,1888]
	.loc 1 1551 0
	str	w5, [x23,1916]
	.loc 1 1553 0
	str	w0, [x29,408]
	.loc 1 1554 0
	str	w5, [x29,436]
	.loc 1 1556 0
	cbz	x19, .L366
	.loc 1 1562 0
	mov	w1, 0
	mov	x2, 11340
	mov	x0, x25
	.loc 1 1565 0
	add	x24, x20, 8192
	.loc 1 1562 0
	bl	memset
.LVL361:
	.loc 1 1565 0
	add	x1, x24, 3168
	add	x0, x1, 16384
	str	wzr, [x0,3968]
	.loc 1 1566 0
	ldr	w2, [x19,8]
	str	w2, [x0,3988]
	.loc 1 1569 0
	ldr	w2, [x19,4]
	str	w2, [x0,3972]
	.loc 1 1570 0
	ldr	x2, [x19,64]
	str	x2, [x20,11360]
	.loc 1 1571 0
	ldr	w2, [x19,8]
	str	w2, [x0,3976]
	.loc 1 1572 0
	ldrb	w3, [x19,1]
	strb	w3, [x1,16]
	.loc 1 1574 0
	ldrb	w3, [x19,1]
	cmp	w3, 1
	beq	.L260
	.loc 1 1576 0
	ldr	w3, [x19,84]
	str	w3, [x0,3980]
	.loc 1 1577 0
	ldr	x3, [x19,144]
	str	x3, [x1,8]
	.loc 1 1578 0
	ldr	w3, [x19,88]
	str	w3, [x0,3984]
	.loc 1 1579 0
	ldrb	w0, [x19,81]
	strb	w0, [x1,17]
	.loc 1 1580 0
	ldrb	w0, [x19,81]
	cmp	w0, 1
	bne	.L367
	.loc 1 1596 0
	mov	w1, 65460
	sub	w0, w2, #75
	movk	w1, 0x2f, lsl 16
	cmp	w0, w1
	bhi	.L263
.L262:
	.loc 1 1602 0
	ldr	x1, [x20,11360]
	cbz	x1, .L263
	.loc 1 1539 0
	add	x19, x23, 3192
.LVL362:
	.loc 1 1606 0
	mov	x0, x19
	bl	BsInit
.LVL363:
.LBB192:
.LBB193:
	.loc 1 164 0
	mov	w1, 8
	mov	x0, x19
	bl	BsShow
.LVL364:
	mov	w21, w0
.LVL365:
	str	w0, [x29,184]
	.loc 1 165 0
	mov	w1, 8
	mov	x0, x19
	bl	BsSkip
.LVL366:
.LBE193:
.LBE192:
	.loc 1 1608 0
	cmp	w21, 8
	bhi	.L263
	add	x28, x29, 256
	add	x27, x28, 64
.L264:
.LBB194:
.LBB195:
	.loc 1 164 0
	mov	w1, 32
	mov	x0, x19
	bl	BsShow
.LVL367:
	mov	w21, w0
.LVL368:
	.loc 1 165 0
	mov	w1, 32
	mov	x0, x19
	rev	w21, w21
	bl	BsSkip
.LVL369:
.LBE195:
.LBE194:
	.loc 1 1616 0
	str	w21, [x28],4
	.loc 1 1613 0 discriminator 1
	cmp	x28, x27
	bne	.L264
.LBB196:
.LBB197:
	.loc 1 164 0
	mov	w1, 8
	mov	x0, x19
.LBE197:
.LBE196:
	.loc 1 1619 0
	add	x27, x24, 3168
.LBB200:
.LBB198:
	.loc 1 164 0
	bl	BsShow
.LVL370:
.LBE198:
.LBE200:
	.loc 1 1619 0
	add	x27, x27, 16384
.LBB201:
.LBB199:
	.loc 1 164 0
	mov	w21, w0
	.loc 1 165 0
	mov	w1, 8
	mov	x0, x19
	bl	BsSkip
.LVL371:
.LBE199:
.LBE201:
	.loc 1 1619 0
	add	w0, w21, 1
	.loc 1 1620 0
	cmp	w21, 255
	.loc 1 1619 0
	str	w0, [x27,2940]
	.loc 1 1620 0
	bhi	.L263
	.loc 1 1625 0 discriminator 1
	cbz	w0, .L265
	add	x28, x23, 2016
	mov	w26, 0
	add	x27, x27, 2940
	b	.L266
.L368:
	ldr	w0, [x27]
	.loc 1 1625 0 is_stmt 0 discriminator 2
	add	w26, w26, 1
	add	x28, x28, 4
	.loc 1 1625 0 discriminator 1
	cmp	w0, w26
	bls	.L265
.L266:
	.loc 1 1627 0 is_stmt 1
	mov	w1, 32
	mov	x0, x19
	bl	BsSkip
.LVL372:
.LBB202:
.LBB203:
	.loc 1 164 0
	mov	w1, 32
	mov	x0, x19
	bl	BsShow
.LVL373:
	mov	w21, w0
	.loc 1 165 0
	mov	w1, 32
	mov	x0, x19
	bl	BsSkip
.LVL374:
	rev	w0, w21
.LBE203:
.LBE202:
	.loc 1 1630 0
	mov	w1, 3145727
	cmp	w0, w1
	.loc 1 1629 0
	str	w0, [x28]
	.loc 1 1630 0
	ble	.L368
.LVL375:
.L263:
	.loc 1 1598 0
	mov	w26, 0
.LVL376:
.L259:
	.loc 1 2032 0
	ldr	x2, [x29,472]
	mov	w0, w26
	ldr	x1, [x22,#:lo12:__stack_chk_guard]
	cmp	x2, x1
	bne	.L369
	ldp	x19, x20, [sp,16]
	.cfi_remember_state
	.cfi_restore 20
	.cfi_restore 19
.LVL377:
	ldp	x21, x22, [sp,32]
	.cfi_restore 22
	.cfi_restore 21
.LVL378:
	ldp	x23, x24, [sp,48]
	.cfi_restore 24
	.cfi_restore 23
	ldp	x25, x26, [sp,64]
	.cfi_restore 26
	.cfi_restore 25
	ldp	x27, x28, [sp,80]
	.cfi_restore 28
	.cfi_restore 27
.LVL379:
	ldp	x29, x30, [sp], 480
	.cfi_restore 30
	.cfi_restore 29
	.cfi_def_cfa 31, 0
	ret
.LVL380:
.L367:
	.cfi_restore_state
	.loc 1 1582 0
	add	x20, x20, 49152
.LVL381:
	ldr	w1, [x19,12]
	.loc 1 1585 0
	mov	w26, 0
	.loc 1 1582 0
	ldr	w0, [x20,3352]
	bl	SM_ReleaseStreamSeg
.LVL382:
	.loc 1 1583 0
	ldr	w0, [x20,3352]
	ldr	w1, [x19,92]
	bl	SM_ReleaseStreamSeg
.LVL383:
	.loc 1 1585 0
	b	.L259
.LVL384:
.L260:
	.loc 1 1590 0
	str	wzr, [x0,3980]
	.loc 1 1591 0
	str	xzr, [x1,8]
	.loc 1 1592 0
	str	wzr, [x0,3984]
	.loc 1 1596 0
	sub	w0, w2, #75
	.loc 1 1593 0
	strb	wzr, [x1,17]
	.loc 1 1596 0
	mov	w1, 65460
	movk	w1, 0x2f, lsl 16
	cmp	w0, w1
	bls	.L262
	b	.L263
.L366:
	.loc 1 1558 0
	mov	x1, 27744
	.loc 1 1559 0
	mov	w26, 0
	.loc 1 1558 0
	add	x20, x20, x1
.LVL385:
	adrp	x1, .LC8
	add	x1, x1, :lo12:.LC8
	ldr	w2, [x20,4004]
	bl	dprint_linux_kernel
.LVL386:
	.loc 1 1559 0
	b	.L259
.LVL387:
.L265:
	sub	w4, w0, #1
	add	x1, x23, 2016
	add	x4, x4, 4096
	add	x4, x4, 3576
	add	x4, x20, x4, lsl 2
	b	.L267
.L268:
	.loc 1 1638 0
	ldr	w3, [x1,4]
	ldr	w2, [x1],4
	cmp	w3, w2
	ble	.L263
.L267:
	.loc 1 1636 0 discriminator 1
	cmp	x1, x4
	bne	.L268
	.loc 1 1646 0
	add	x3, x24, 3168
	.loc 1 1645 0
	lsl	w0, w0, 3
	.loc 1 1646 0
	add	x1, x3, 16384
	.loc 1 1645 0
	add	w21, w0, 66
.LVL388:
	.loc 1 1652 0
	mov	w0, 65461
	.loc 1 1646 0
	str	x3, [x29,176]
	.loc 1 1652 0
	movk	w0, 0x2f, lsl 16
	.loc 1 1646 0
	ldr	w27, [x1,2944]
	add	w27, w21, w27
	.loc 1 1652 0
	sub	w2, w27, #74
	cmp	w2, w0
	bhi	.L263
	.loc 1 1648 0
	mov	w0, 3145727
	.loc 1 1652 0
	cmp	w21, w0
	bgt	.L263
	.loc 1 1652 0 is_stmt 0 discriminator 1
	ldr	w2, [x1,3976]
	sub	w2, w2, w27
	cmp	w2, wzr
	ble	.L263
	.loc 1 1656 0 is_stmt 1
	mov	x0, x19
.LBB204:
.LBB205:
	.loc 1 886 0
	add	x28, x29, 216
.LBE205:
.LBE204:
	.loc 1 1656 0
	ldr	x1, [x20,11360]
	add	x1, x1, x27, sxtw
	bl	BsInit
.LVL389:
.LBB209:
.LBB206:
	.loc 1 886 0
	mov	w2, 3
	mov	w3, 1
	str	w2, [x29,236]
	mov	w1, 1
	str	w2, [x29,240]
.LBE206:
.LBE209:
	.loc 1 1659 0
	mov	x0, x19
.LBB210:
.LBB207:
	.loc 1 886 0
	str	w2, [x29,244]
	str	w2, [x29,248]
	.loc 1 888 0
	ldr	w2, [x29,184]
	.loc 1 886 0
	str	w1, [x28,4]
.LBE207:
.LBE210:
	.loc 1 1659 0
	add	x1, x29, 320
.LBB211:
.LBB208:
	.loc 1 886 0
	str	w3, [x29,224]
	mov	w3, 2
	str	wzr, [x28]
	str	w3, [x29,228]
	str	w3, [x29,232]
.LVL390:
	.loc 1 888 0
	str	w2, [x29,344]
	.loc 1 889 0
	ldr	w2, [x28,w2,uxtw 2]
.LVL391:
	str	w2, [x29,332]
	.loc 1 890 0
	add	x2, x29, 256
	str	x2, [x29,336]
.LBE208:
.LBE211:
	.loc 1 1659 0
	bl	Real8_CB_GetPictureHeader
.LVL392:
	cmp	w0, 1
	mov	w26, w0
	ldr	x3, [x29,176]
	bne	.L370
	.loc 1 1666 0
	ldrb	w0, [x3,20]
	cbnz	w0, .L270
	.loc 1 1669 0
	adrp	x0, g_event_report
	ldr	x5, [x0,#:lo12:g_event_report]
	cbz	x5, .L371
.LBB212:
	.loc 1 1669 0 is_stmt 0 discriminator 1
	add	x1, x20, 49152
	ldr	w10, [x23,1908]
	mov	x4, x1
	ldr	w9, [x23,1904]
	ldr	w7, [x29,428]
	mov	x2, x28
	ldr	w6, [x29,424]
	mov	w3, 8
	ldr	w0, [x4,3352]
	str	x1, [x29,184]
	mov	w1, 2
	strh	w10, [x28]
	strh	w9, [x28,2]
	strh	w7, [x28,4]
	strh	w6, [x28,6]
	blr	x5
.LVL393:
.L271:
.LBE212:
	.loc 1 1671 0 is_stmt 1
	ldr	x0, [x29,184]
	add	x1, x29, 192
	add	x2, x29, 196
	add	x3, x29, 200
	ldr	w0, [x0,3352]
	bl	VCTRL_GetChanImgNum
.LVL394:
	.loc 1 1673 0
	ldr	x0, [x20]
	ldr	w0, [x0,772]
	cmp	w0, 1
	bne	.L272
	.loc 1 1676 0
	ldr	w0, [x29,200]
.LVL395:
	cmp	w0, wzr
	bgt	.L327
.L272:
	.loc 1 1689 0
	add	x5, x24, 3168
	ldr	x0, [x29,184]
	add	x28, x5, 20480
	.loc 1 1691 0
	add	x4, x23, 3232
	.loc 1 1689 0
	mov	w2, 1
	str	x5, [x29,160]
	ldr	w0, [x0,3352]
	ldr	w1, [x28,12]
	.loc 1 1691 0
	str	x4, [x29,176]
	.loc 1 1689 0
	bl	FSP_ClearLogicFs
.LVL396:
	.loc 1 1689 0 is_stmt 0 discriminator 1
	ldr	x0, [x29,184]
	mov	w2, 1
	ldr	w1, [x28,8]
	ldr	w0, [x0,3352]
	bl	FSP_ClearLogicFs
.LVL397:
	.loc 1 1689 0
	str	wzr, [x28,8]
	.loc 1 1689 0 discriminator 2
	ldr	x0, [x29,184]
	.loc 1 1689 0
	str	wzr, [x28,12]
	.loc 1 1689 0 discriminator 2
	ldr	w0, [x0,3352]
	bl	FSP_GetNullLogicFs
.LVL398:
	.loc 1 1689 0
	str	w0, [x28,12]
	.loc 1 1690 0 is_stmt 1
	ldr	x5, [x29,160]
	.loc 1 1689 0
	str	w0, [x28,8]
	.loc 1 1691 0
	ldr	x0, [x29,184]
	.loc 1 1690 0
	strb	wzr, [x5,23]
	.loc 1 1691 0
	ldr	x4, [x29,176]
	ldr	w0, [x0,3352]
	mov	x1, x4
	str	x4, [x29,168]
	.loc 1 1690 0
	str	x5, [x29,176]
	.loc 1 1691 0
	bl	FSP_ClearNotInVoQueue
.LVL399:
	.loc 1 1693 0
	ldr	w2, [x29,428]
	ldr	w6, [x29,424]
	cmp	w2, 512
	ldr	x5, [x29,176]
	ldr	x4, [x29,168]
	bhi	.L274
	.loc 1 1694 0
	ldr	w3, [x29,424]
	.loc 1 1693 0 discriminator 1
	cmp	w3, 512
	.loc 1 1694 0
	mov	w6, w3
	.loc 1 1693 0 discriminator 1
	bhi	.L274
	.loc 1 1702 0
	ldr	x0, [x20]
	ldr	w1, [x0,772]
	cbnz	w1, .L276
	.loc 1 1702 0 is_stmt 0 discriminator 1
	ldr	w0, [x0,28]
	cmp	w0, 25
	beq	.L372
.L276:
	.loc 1 1712 0 is_stmt 1
	mov	x0, x4
	bl	ResetVoQueue
.LVL400:
	ldr	w2, [x29,428]
	ldr	w3, [x29,424]
.L277:
	.loc 1 1714 0
	adrp	x1, .LC11
	mov	w0, 1
	add	x1, x1, :lo12:.LC11
	bl	dprint_linux_kernel
.LVL401:
	.loc 1 1716 0
	mov	w0, 6
	mov	x1, x20
	add	x2, x29, 320
	bl	Real8_ArrangeVHBMem
.LVL402:
	cbz	w0, .L373
.L270:
	.loc 1 1540 0
	add	x0, x23, 1800
.LVL403:
	.loc 1 1723 0
	add	x1, x29, 320
	mov	x2, 152
	.loc 1 1540 0
	str	x0, [x29,160]
	.loc 1 1728 0
	add	x28, x24, 3168
	.loc 1 1723 0
	bl	memcpy
.LVL404:
	.loc 1 1728 0
	ldr	x1, [x20]
	.loc 1 1731 0
	mov	x0, x20
	.loc 1 1728 0
	ldr	w1, [x1,12]
	strb	w1, [x28,18]
	.loc 1 1731 0
	bl	Real8_GetImageBuffer
.LVL405:
	cbz	w0, .L374
	.loc 1 1738 0
	add	x3, x28, 20480
	add	x0, x20, 49152
	str	x0, [x29,184]
	str	x3, [x29,176]
	ldr	w1, [x3,16]
	ldr	w0, [x0,3352]
	bl	FSP_GetFsImagePtr
.LVL406:
	mov	x9, x0
.LVL407:
	.loc 1 1739 0
	ldr	x3, [x29,176]
	cbz	x0, .L279
	.loc 1 1741 0
	ldr	x2, [x20]
	.loc 1 1749 0
	mov	x3, -1
	.loc 1 1750 0
	adrp	x1, .LC14
	mov	w0, 29
	add	x1, x1, :lo12:.LC14
	str	x9, [x29,176]
	.loc 1 1741 0
	ldr	x2, [x2,48]
	str	x2, [x9,224]
	.loc 1 1742 0
	ldr	x2, [x20]
	ldr	x2, [x2,64]
	str	x2, [x9,232]
	.loc 1 1743 0
	ldr	x2, [x20]
	ldr	x2, [x2,80]
	str	x2, [x9,240]
	.loc 1 1744 0
	ldr	x2, [x20]
	ldr	w2, [x2,96]
	str	w2, [x9,8]
	.loc 1 1745 0
	ldr	x2, [x20]
	ldr	w2, [x2,100]
	str	w2, [x9,12]
	.loc 1 1746 0
	ldr	x2, [x20]
	ldr	w2, [x2,104]
	str	w2, [x9,16]
	.loc 1 1747 0
	ldr	x2, [x20]
	ldr	w2, [x2,120]
	str	w2, [x9,20]
	.loc 1 1749 0
	ldr	x2, [x20]
	str	x3, [x2,48]
	.loc 1 1750 0
	ldr	x2, [x9,224]
	ldr	x3, [x9,232]
	bl	dprint_linux_kernel
.LVL408:
	.loc 1 1759 0
	ldr	x0, [x29,160]
.LVL409:
	ldr	x9, [x29,176]
.LVL410:
	ldr	w0, [x0,92]
.LVL411:
	cmp	w0, 2
	beq	.L375
	.loc 1 1761 0
	cmp	w0, 1
	beq	.L376
	.loc 1 1766 0
	ldrb	w0, [x28,23]
	.loc 1 1766 0 is_stmt 0 discriminator 2
	cmp	w0, wzr
	mov	w0, 2
	csinc	w0, w0, wzr, ne
.L283:
	.loc 1 1766 0 discriminator 4
	add	x28, x24, 3168
	strb	w0, [x24,3191]
	.loc 1 1767 0 is_stmt 1
	add	x28, x28, 20480
	ldr	w2, [x28,8]
	ldr	w0, [x28,12]
	cmp	w2, w0
	beq	.L284
	.loc 1 1770 0
	adrp	x1, .LC15
	mov	w0, 13
	add	x1, x1, :lo12:.LC15
	str	x9, [x29,176]
	bl	dprint_linux_kernel
.LVL412:
	.loc 1 1771 0
	ldr	x0, [x29,184]
	mov	w2, 0
	ldr	w1, [x28,8]
	ldr	w0, [x0,3352]
	bl	FSP_SetRef
.LVL413:
	ldr	x9, [x29,176]
.LVL414:
.L284:
	.loc 1 1773 0
	add	x28, x24, 3168
	.loc 1 1775 0
	mov	w2, 1
	.loc 1 1773 0
	add	x28, x28, 20480
	str	x9, [x29,176]
	ldr	w0, [x28,12]
	.loc 1 1774 0
	ldr	w1, [x28,16]
	.loc 1 1773 0
	str	w0, [x28,8]
	.loc 1 1775 0
	ldr	x0, [x29,184]
	.loc 1 1774 0
	str	w1, [x28,12]
	.loc 1 1775 0
	ldr	w0, [x0,3352]
	bl	FSP_SetRef
.LVL415:
	.loc 1 1777 0
	ldr	x0, [x29,184]
	ldr	w1, [x28,8]
	ldr	w0, [x0,3352]
	bl	FSP_RemovePmv
.LVL416:
	.loc 1 1778 0
	ldr	w2, [x28,16]
	adrp	x1, .LC16
	add	x1, x1, :lo12:.LC16
	mov	w0, 13
	bl	dprint_linux_kernel
.LVL417:
	ldr	x9, [x29,176]
.LVL418:
.L285:
	.loc 1 1789 0
	add	x2, x24, 3168
	ldr	x0, [x29,184]
	add	x2, x2, 20480
	str	x9, [x29,152]
	str	x2, [x29,176]
	ldr	w0, [x0,3352]
	ldr	w1, [x2,16]
	bl	FSP_GetLogicFs
.LVL419:
	mov	x28, x0
.LVL420:
	.loc 1 1790 0
	ldr	x2, [x29,176]
	ldr	x0, [x29,184]
	str	x2, [x29,168]
	ldr	w1, [x2,8]
	ldr	w0, [x0,3352]
	bl	FSP_GetLogicFs
.LVL421:
	str	x0, [x29,176]
	.loc 1 1791 0
	ldr	x2, [x29,168]
	ldr	x0, [x29,184]
.LVL422:
	ldr	w1, [x2,12]
	ldr	w0, [x0,3352]
	bl	FSP_GetLogicFs
.LVL423:
	mov	x10, x0
.LVL424:
	.loc 1 1793 0
	ldr	x11, [x29,176]
.LVL425:
	cmp	x11, xzr
	cset	w1, eq
	cmp	x28, xzr
	cset	w0, eq
	.loc 1 1793 0 is_stmt 0 discriminator 1
	orr	w0, w1, w0
	cbnz	w0, .L332
	ldr	x9, [x29,152]
.LVL426:
	cbz	x10, .L332
	.loc 1 1799 0 is_stmt 1
	ldr	x0, [x28,296]
	cbz	x0, .L289
	.loc 1 1799 0 is_stmt 0 discriminator 1
	ldr	x1, [x28,312]
	cbz	x1, .L289
	.loc 1 1799 0 discriminator 2
	ldr	x1, [x28,304]
	cbz	x1, .L289
	.loc 1 1807 0 is_stmt 1
	ldr	x1, [x10,296]
	cbz	x1, .L291
	.loc 1 1807 0 is_stmt 0 discriminator 1
	ldr	w5, [x1,12]
.L292:
	.loc 1 1807 0 discriminator 4
	str	w5, [x25,44]
	.loc 1 1808 0 is_stmt 1
	ldr	x0, [x11,296]
	cbz	x0, .L377
.L361:
	.loc 1 1808 0 is_stmt 0 discriminator 2
	ldr	w4, [x0,12]
	.loc 1 1816 0 is_stmt 1
	adrp	x1, .LC19
	.loc 1 1808 0 discriminator 4
	str	w4, [x25,48]
	.loc 1 1816 0
	mov	w0, 13
	add	x1, x1, :lo12:.LC19
	str	x11, [x29,152]
	.loc 1 1809 0
	ldr	x2, [x28,296]
	str	x9, [x29,168]
	.loc 1 1812 0
	str	x10, [x29,176]
	.loc 1 1809 0
	ldr	w2, [x2,12]
	str	w2, [x25,52]
	.loc 1 1810 0
	ldr	w6, [x28,320]
	str	w6, [x25,64]
	.loc 1 1812 0
	ldr	w7, [x10,320]
	str	w7, [x25,68]
	.loc 1 1813 0
	ldr	x3, [x28,304]
	ldr	w3, [x3,12]
	str	w3, [x25,56]
	.loc 1 1816 0
	bl	dprint_linux_kernel
.LVL427:
	.loc 1 1819 0
	ldr	x0, [x28,304]
	.loc 1 1823 0
	ldr	x10, [x29,176]
.LVL428:
	ldr	x9, [x29,168]
.LVL429:
	.loc 1 1819 0
	ldr	w0, [x0,20]
	str	w0, [x25,60]
	.loc 1 1823 0
	ldr	x11, [x29,152]
.LVL430:
	ldr	w0, [x23,1892]
	cmp	w0, 2
	beq	.L378
.LVL431:
.L295:
	.loc 1 1860 0
	ldr	x1, [x29,184]
.LVL432:
	.loc 1 1858 0
	ldr	w0, [x23,1920]
.LVL433:
	str	w0, [x28,328]
	.loc 1 1860 0
	ldrsw	x2, [x1,3352]
	adrp	x1, s_pstVfmwChan
	add	x1, x1, :lo12:s_pstVfmwChan
	ldr	x1, [x1,x2,lsl 3]
	cbz	x1, .L300
	.loc 1 1860 0 is_stmt 0 discriminator 1
	ldrsb	w1, [x1,38]
	cmp	w1, 1
	beq	.L379
.L300:
.LBB213:
.LBB214:
	.loc 1 1323 0 is_stmt 1
	ldr	w2, [x23,1892]
.LBE214:
.LBE213:
	.loc 1 1866 0
	ldr	w0, [x23,1932]
.LBB217:
.LBB215:
	.loc 1 1323 0
	strb	w2, [x25,8]
	.loc 1 1333 0
	cmp	w2, 2
.LVL434:
.LBE215:
.LBE217:
	.loc 1 1866 0
	mov	w3, w0
	str	w0, [x29,168]
.LBB218:
.LBB216:
	.loc 1 1324 0
	ldr	w2, [x23,1908]
	.loc 1 1326 0
	add	x0, x24, 3168
.LVL435:
	.loc 1 1324 0
	str	w2, [x20,16]
	.loc 1 1326 0
	add	x0, x0, 16384
	.loc 1 1325 0
	ldr	w1, [x23,1904]
	str	w1, [x25,4]
	.loc 1 1326 0
	ldr	w1, [x0,4028]
	str	w1, [x25,12]
	.loc 1 1327 0
	ldr	w1, [x0,4032]
	str	w1, [x25,16]
	.loc 1 1329 0
	str	w3, [x25,20]
	.loc 1 1330 0
	ldr	w1, [x0,2924]
	str	w1, [x25,24]
	.loc 1 1331 0
	ldr	w1, [x0,2928]
	str	w1, [x25,28]
	.loc 1 1333 0
	beq	.L301
	.loc 1 1335 0
	str	w3, [x0,2924]
.L301:
.LBE216:
.LBE218:
	.loc 1 1880 0
	mov	x0, x19
	bl	BsPos
.LVL436:
	and	w2, w0, -2147483641
	add	x3, x23, 1952
	tbnz	w0, #31, .L380
.L302:
	.loc 1 1881 0
	add	x1, x24, 3168
	.loc 1 1880 0
	str	w2, [x3,20]
	.loc 1 1881 0
	add	x1, x1, 16384
	ldr	w0, [x1,2940]
	cmp	w0, 1
	beq	.L381
	.loc 1 1887 0
	ldr	w2, [x1,2948]
	mov	x0, x19
	ldr	w28, [x1,2944]
.LVL437:
.L362:
	sub	w28, w2, w28
	bl	BsPos
.LVL438:
	.loc 1 1889 0
	add	x5, x24, 3168
	.loc 1 1887 0
	lsl	w28, w28, 3
	.loc 1 1889 0
	add	x3, x5, 16384
	.loc 1 1887 0
	sub	w0, w28, w0
	str	w0, [x23,1976]
	.loc 1 1889 0
	mov	x0, x19
	str	x5, [x29,152]
	ldr	w4, [x3,3972]
	str	x3, [x29,176]
	add	w27, w27, w4
	bl	BsPos
.LVL439:
	.loc 1 1891 0
	str	wzr, [x23,1984]
	.loc 1 1889 0
	mov	w1, 8
	.loc 1 1896 0
	ldr	w4, [x23,1936]
	.loc 1 1897 0
	ldr	w2, [x23,1928]
	.loc 1 1889 0
	sdiv	w0, w0, w1
	.loc 1 1895 0
	ldr	w3, [x29,168]
.LVL440:
	str	w3, [x23,1952]
.LBB219:
.LBB220:
	.loc 1 1307 0
	mov	w1, 1
.LBE220:
.LBE219:
	.loc 1 1892 0
	str	wzr, [x23,1988]
	.loc 1 1889 0
	add	w0, w27, w0
	.loc 1 1893 0
	str	wzr, [x23,1992]
	.loc 1 1889 0
	str	w0, [x23,1980]
	.loc 1 1896 0
	str	w4, [x23,1956]
	.loc 1 1897 0
	str	w2, [x23,1960]
	.loc 1 1898 0
	str	wzr, [x23,1964]
.LBB224:
.LBB221:
	.loc 1 1293 0
	str	w0, [x25,76]
.LBE221:
.LBE224:
	.loc 1 1904 0 discriminator 1
	ldr	x5, [x29,152]
.LBB225:
.LBB222:
	.loc 1 1294 0
	ldr	w0, [x23,1972]
	str	w0, [x25,84]
	.loc 1 1295 0
	ldr	w0, [x23,1976]
	str	w0, [x25,92]
	.loc 1 1303 0
	str	w3, [x25,108]
	.loc 1 1297 0
	str	wzr, [x25,80]
	.loc 1 1298 0
	str	wzr, [x25,88]
	.loc 1 1299 0
	str	wzr, [x25,96]
	.loc 1 1301 0
	str	w2, [x25,100]
	.loc 1 1302 0
	str	w4, [x25,104]
	.loc 1 1304 0
	str	wzr, [x25,112]
.LBE222:
.LBE225:
	.loc 1 1904 0 discriminator 1
	ldr	x3, [x29,176]
.LVL441:
.LBB226:
.LBB223:
	.loc 1 1305 0
	ldr	w0, [x23,1968]
	str	w0, [x25,116]
	.loc 1 1307 0
	str	w1, [x25,32]
.LBE223:
.LBE226:
	.loc 1 1904 0 discriminator 1
	ldr	w0, [x3,2940]
	cmp	w0, w1
	bls	.L324
	.loc 1 1906 0
	ldr	w6, [x3,2948]
	.loc 1 1907 0
	mov	w0, 3145727
	.loc 1 1906 0
	add	w6, w21, w6
	.loc 1 1907 0
	cmp	w6, w0
	bgt	.L310
	.loc 1 1912 0
	cmp	w6, 73
	ble	.L310
	.loc 1 1912 0 is_stmt 0 discriminator 1
	ldr	w2, [x3,3976]
	sub	w2, w2, w6
	cmp	w2, wzr
	ble	.L310
	mov	w27, w1
	str	w1, [x29,132]
	.loc 1 1944 0 is_stmt 1
	mov	x1, x3
	str	x3, [x29,144]
	.loc 1 1958 0
	add	x1, x1, 3972
	.loc 1 1944 0
	add	x3, x3, 2940
	add	x28, x23, 2024
	.loc 1 1917 0
	str	x5, [x29,176]
	.loc 1 1944 0
	str	x3, [x29,136]
	.loc 1 1958 0
	str	x1, [x29,112]
	.loc 1 1907 0
	str	w0, [x29,128]
	b	.L313
.LVL442:
.L314:
	.loc 1 1904 0 discriminator 1
	ldr	x0, [x29,136]
	.loc 1 1904 0 is_stmt 0 discriminator 2
	add	w27, w27, 1
	.loc 1 1904 0 discriminator 1
	ldr	w0, [x0]
	cmp	w0, w27
	bls	.L324
	.loc 1 1906 0 is_stmt 1
	ldr	w6, [x28]
	.loc 1 1907 0
	ldr	w0, [x29,128]
	.loc 1 1906 0
	add	w6, w21, w6
	.loc 1 1907 0
	cmp	w6, w0
	bgt	.L310
	.loc 1 1912 0
	cmp	w6, 73
	ble	.L310
	.loc 1 1912 0 is_stmt 0 discriminator 1
	ldr	x0, [x29,144]
	add	x28, x28, 4
	ldr	w2, [x0,3976]
.LVL443:
	sub	w2, w2, w6
	cmp	w2, wzr
	ble	.L310
.L313:
	.loc 1 1917 0 is_stmt 1
	ldr	x1, [x29,176]
	mov	x0, x19
	str	x6, [x29,152]
	ldr	x1, [x1]
	add	x1, x1, x6, sxtw
	bl	BsInit
.LVL444:
	.loc 1 1920 0
	ldr	x5, [x29,160]
	add	x2, x29, 204
	mov	x0, x19
	mov	w1, 0
	add	x3, x29, 208
	add	x4, x29, 212
	bl	Real8_CB_GetSliceHeader
.LVL445:
	.loc 1 1921 0
	cmp	w0, 1
	.loc 1 1920 0
	mov	w2, w0
.LVL446:
	.loc 1 1921 0
	ldr	x6, [x29,152]
	bne	.L314
	.loc 1 1926 0
	ldr	w1, [x29,204]
	.loc 1 1928 0
	ldr	w0, [x23,1908]
.LVL447:
	.loc 1 1926 0
	str	w1, [x29,124]
	.loc 1 1928 0
	cbz	w0, .L382
	.loc 1 1936 0
	ldr	w1, [x29,212]
.LVL448:
	.loc 1 1943 0
	add	x2, x23, 1952
.LVL449:
	.loc 1 1938 0
	ldr	w3, [x29,168]
	.loc 1 1943 0
	mov	x0, x19
	.loc 1 1938 0
	cmp	w1, wzr
	str	x6, [x29,104]
.LVL450:
	csel	w1, w3, w1, lt
.LVL451:
	.loc 1 1943 0
	str	x2, [x29,152]
	.loc 1 1938 0
	str	w1, [x29,168]
	.loc 1 1943 0
	bl	BsPos
.LVL452:
	asr	w1, w0, 31
	lsr	w1, w1, 29
	ldr	x2, [x29,152]
	add	w0, w0, w1
	.loc 1 1944 0
	ldr	x6, [x29,104]
	.loc 1 1943 0
	and	w0, w0, 7
	sub	w0, w0, w1
	str	w0, [x2,20]
	.loc 1 1944 0
	ldr	x0, [x29,136]
	ldr	w0, [x0]
	sub	w0, w0, #1
	cmp	w0, w27
	beq	.L383
	.loc 1 1950 0
	cmp	w27, 254
	bhi	.L384
	.loc 1 1955 0
	ldr	w1, [x28]
	mov	x0, x19
	ldr	w2, [x28,-4]
	str	x6, [x29,96]
.L363:
	sub	w1, w1, w2
	lsl	w1, w1, 3
	str	x1, [x29,104]
	bl	BsPos
.LVL453:
	ldr	x1, [x29,104]
	ldr	x6, [x29,96]
	sub	w0, w1, w0
	ldr	x1, [x29,152]
	str	w0, [x1,24]
	.loc 1 1958 0
	ldr	x0, [x29,112]
	ldr	w4, [x0]
	mov	x0, x19
	add	w6, w6, w4
	str	x6, [x29,152]
	bl	BsPos
.LVL454:
	cmp	w0, wzr
.LBB227:
.LBB228:
	.loc 1 1293 0
	ldr	w5, [x29,132]
.LBE228:
.LBE227:
	.loc 1 1958 0
	add	w2, w0, 7
	csel	w2, w2, w0, lt
	ldr	x6, [x29,152]
	.loc 1 1966 0
	ldr	w8, [x29,124]
.LVL455:
.LBB236:
.LBB229:
	.loc 1 1293 0
	sxtw	x3, w5
.LVL456:
.LBE229:
.LBE236:
	.loc 1 1958 0
	add	w6, w6, w2, asr 3
.LBB237:
.LBB230:
	.loc 1 1293 0
	lsl	x0, x3, 4
.LBE230:
.LBE237:
	.loc 1 1963 0
	ldr	w2, [x29,168]
.LBB238:
.LBB231:
	.loc 1 1293 0
	sub	x0, x0, x3, lsl 2
.LVL457:
.LBE231:
.LBE238:
	.loc 1 1963 0
	str	w2, [x23,1952]
.LBB239:
.LBB232:
	.loc 1 1293 0
	sub	x0, x0, x3
	.loc 1 1307 0
	add	w2, w5, 1
.LVL458:
	mov	w7, w2
	str	w2, [x29,132]
	.loc 1 1293 0
	add	x0, x25, x0, lsl 2
.LBE232:
.LBE239:
	.loc 1 1964 0
	ldr	w2, [x23,1936]
.LVL459:
	str	w2, [x23,1956]
.LBB240:
.LBB233:
	.loc 1 1295 0
	add	x3, x0, 80
.LBE233:
.LBE240:
	.loc 1 1965 0
	ldr	w2, [x23,1928]
	.loc 1 1971 0
	cmp	w7, 195
	.loc 1 1965 0
	str	w2, [x23,1960]
.LBB241:
.LBB234:
	.loc 1 1303 0
	add	x2, x0, 96
.LBE234:
.LBE241:
	.loc 1 1959 0
	str	wzr, [x23,1984]
	.loc 1 1960 0
	str	wzr, [x23,1988]
	.loc 1 1961 0
	str	wzr, [x23,1992]
	.loc 1 1958 0
	str	w6, [x23,1980]
.LVL460:
	.loc 1 1966 0
	str	w8, [x23,1964]
.LBB242:
.LBB235:
	.loc 1 1293 0
	str	w6, [x0,76]
	.loc 1 1294 0
	ldr	w6, [x23,1972]
	str	w6, [x0,84]
	.loc 1 1295 0
	ldr	w5, [x23,1976]
	str	w5, [x0,92]
	.loc 1 1297 0
	ldr	w5, [x23,1992]
	str	w5, [x0,80]
	.loc 1 1298 0
	ldr	w5, [x23,1984]
	str	w5, [x0,88]
	.loc 1 1299 0
	ldr	w4, [x23,1988]
	str	w4, [x0,96]
	.loc 1 1301 0
	ldr	w0, [x23,1960]
	str	w0, [x3,20]
	.loc 1 1302 0
	ldr	w0, [x23,1956]
	str	w0, [x3,24]
	.loc 1 1303 0
	ldr	w0, [x23,1952]
	str	w0, [x2,12]
	.loc 1 1304 0
	ldr	w0, [x23,1964]
	str	w0, [x2,16]
	.loc 1 1305 0
	ldr	w0, [x23,1968]
	str	w0, [x2,20]
	.loc 1 1307 0
	str	w7, [x25,32]
.LBE235:
.LBE242:
	.loc 1 1971 0
	ble	.L314
	.loc 1 1973 0
	mov	x0, x20
	bl	Real8_ModifySliceMsg
.LVL461:
	cmp	w0, 1
	bne	.L385
	.loc 1 1978 0
	str	x25, [x20,8]
	.loc 1 1980 0
	cbz	x25, .L386
	.loc 1 1986 0
	ldr	x0, [x20]
	ldr	w1, [x0,880]
	cmp	w1, 1
	beq	.L387
	.loc 1 1997 0
	cmp	w1, 2
	bne	.L314
	.loc 1 1999 0
	ldr	w0, [x0,884]
	cmp	w0, wzr
	ble	.L314
	.loc 1 2000 0
	ldrb	w0, [x25,8]
	cmp	w0, 2
	bne	.L314
	.loc 1 2003 0
	ldr	x0, [x29,184]
	mov	w2, 0
	.loc 1 2002 0
	str	xzr, [x20,8]
	.loc 1 2006 0
	mov	w26, 0
	.loc 1 2003 0
	ldr	w1, [x23,3184]
	ldr	w0, [x0,3352]
	bl	FSP_SetDisplay
.LVL462:
	.loc 1 2004 0
	ldr	x3, [x20]
	.loc 1 2005 0
	mov	w0, 8
	mov	x1, x20
	.loc 1 2004 0
	ldr	w2, [x3,884]
	sub	w2, w2, #1
	str	w2, [x3,884]
	.loc 1 2005 0
	bl	ReleasePacket
.LVL463:
	.loc 1 2006 0
	b	.L259
.LVL464:
.L370:
	.loc 1 1661 0
	adrp	x1, .LC9
	mov	w0, 1
	add	x1, x1, :lo12:.LC9
	.loc 1 1662 0
	mov	w26, 0
	.loc 1 1661 0
	bl	dprint_linux_kernel
.LVL465:
	.loc 1 1662 0
	b	.L259
.L274:
	.loc 1 1696 0
	adrp	x1, .LC10
	mov	w3, w6
	add	x1, x1, :lo12:.LC10
	mov	w0, 18
	.loc 1 1699 0
	mov	w26, 0
	.loc 1 1696 0
	bl	dprint_linux_kernel
.LVL466:
	.loc 1 1699 0
	b	.L259
.L371:
	add	x0, x20, 49152
	str	x0, [x29,184]
	b	.L271
.L374:
	.loc 1 1733 0
	add	x28, x28, 16384
	adrp	x1, .LC13
	add	x1, x1, :lo12:.LC13
	.loc 1 1734 0
	mov	w26, 0
	.loc 1 1733 0
	ldr	w2, [x28,4004]
	bl	dprint_linux_kernel
.LVL467:
	.loc 1 1734 0
	b	.L259
.L373:
	.loc 1 1718 0
	adrp	x1, .LC12
	mov	w0, 1
	add	x1, x1, :lo12:.LC12
	.loc 1 1719 0
	mov	w26, 0
	.loc 1 1718 0
	bl	dprint_linux_kernel
.LVL468:
	.loc 1 1719 0
	b	.L259
.L372:
	.loc 1 1704 0
	ldrb	w0, [x5,20]
	cbnz	w0, .L277
	b	.L276
.LVL469:
.L376:
	.loc 1 1761 0 discriminator 1
	ldrb	w1, [x28,23]
	.loc 1 1766 0 discriminator 1
	mov	w0, 2
	.loc 1 1761 0 discriminator 1
	cbnz	w1, .L283
.LVL470:
.L310:
	.loc 1 1914 0
	add	x24, x24, 3168
	ldr	x0, [x29,184]
	add	x24, x24, 20480
	mov	w2, 1
.LVL471:
	.loc 1 1915 0
	mov	w26, 0
	.loc 1 1914 0
	ldr	w0, [x0,3352]
	ldr	w1, [x24,16]
	bl	FSP_ClearLogicFs
.LVL472:
	.loc 1 1915 0
	b	.L259
.LVL473:
.L381:
	.loc 1 1883 0
	ldr	w2, [x1,3976]
	mov	x0, x19
	ldr	w28, [x1,2944]
.LVL474:
	sub	w2, w2, w21
	b	.L362
.LVL475:
.L378:
	.loc 1 1826 0
	ldr	w3, [x11,328]
	ldr	w1, [x23,1920]
	.loc 1 1827 0
	ldr	w0, [x10,328]
	.loc 1 1829 0
	subs	w1, w1, w3
.LVL476:
	.loc 1 1827 0
	sub	w0, w0, w3
.LVL477:
	.loc 1 1829 0
	bmi	.L388
.L296:
	.loc 1 1833 0
	tbnz	w0, #31, .L389
.L297:
	.loc 1 1839 0
	cmp	w1, w0
	csel	w1, w1, wzr, le
	.loc 1 1841 0
	cmp	w0, wzr
	ble	.L331
	.loc 1 1844 0
	sub	w2, w0, w1
	.loc 1 1843 0
	lsl	w4, w1, 14
	.loc 1 1844 0
	lsl	w2, w2, 14
	.loc 1 1843 0
	sdiv	w4, w4, w0
	.loc 1 1844 0
	sdiv	w2, w2, w0
.L299:
	.loc 1 1851 0
	add	x3, x24, 3168
	add	x3, x3, 16384
	str	w1, [x3,4020]
	.loc 1 1852 0
	str	w0, [x3,4024]
	.loc 1 1854 0
	str	w4, [x3,4028]
	.loc 1 1855 0
	str	w2, [x3,4032]
	b	.L295
.LVL478:
.L289:
	.loc 1 1801 0
	add	x24, x24, 3168
	ldr	x0, [x29,184]
	add	x24, x24, 20480
	mov	w2, 1
	.loc 1 1803 0
	mov	w26, 0
	.loc 1 1801 0
	ldr	w0, [x0,3352]
	ldr	w1, [x24,16]
	bl	FSP_ClearLogicFs
.LVL479:
	.loc 1 1802 0
	adrp	x1, .LC18
	mov	w0, 0
	add	x1, x1, :lo12:.LC18
	bl	dprint_linux_kernel
.LVL480:
	.loc 1 1803 0
	b	.L259
.LVL481:
.L369:
	.loc 1 2032 0
	bl	__stack_chk_fail
.LVL482:
.L327:
	.loc 1 1678 0
	mov	w26, -2
	b	.L259
.LVL483:
.L383:
	.loc 1 1946 0
	ldr	x0, [x29,144]
	uxtw	x2, w27
	add	x2, x2, 4096
	ldr	x3, [x29,176]
	add	x2, x2, 736
	str	x6, [x29,96]
	ldr	w1, [x0,3976]
	mov	x0, x19
	sub	w1, w1, w21
	ldr	w2, [x3,x2,lsl 2]
	b	.L363
.LVL484:
.L332:
	.loc 1 1795 0
	adrp	x1, .LC17
	adrp	x2, .LANCHOR1
	add	x1, x1, :lo12:.LC17
	add	x2, x2, :lo12:.LANCHOR1
	mov	w3, 1795
	mov	w0, 22
	.loc 1 1796 0
	mov	w26, 0
	.loc 1 1795 0
	bl	dprint_linux_kernel
.LVL485:
	.loc 1 1796 0
	b	.L259
.LVL486:
.L375:
	.loc 1 1782 0
	ldrb	w0, [x28,23]
	cmp	w0, 1
	bhi	.L285
	b	.L310
.LVL487:
.L382:
	.loc 1 1930 0
	ldr	x0, [x29,176]
	.loc 1 1931 0
	mov	w26, 0
	.loc 1 1930 0
	add	x1, x0, 20480
.LVL488:
	ldr	x0, [x29,184]
	ldr	w1, [x1,16]
	ldr	w0, [x0,3352]
	bl	FSP_ClearLogicFs
.LVL489:
	.loc 1 1931 0
	b	.L259
.LVL490:
.L379:
	.loc 1 1862 0
	uxtw	x0, w0
	str	x0, [x9,232]
	.loc 1 1863 0
	adrp	x1, .LC20
	mov	w0, 29
	ldr	w2, [x28,328]
	add	x1, x1, :lo12:.LC20
	bl	dprint_linux_kernel
.LVL491:
	b	.L300
.L380:
	.loc 1 1880 0
	sub	w2, w2, #1
	orr	w2, w2, -8
	add	w2, w2, 1
	b	.L302
.LVL492:
.L377:
	.loc 1 1808 0 discriminator 2
	ldr	x0, [x28,296]
	b	.L361
.LVL493:
.L331:
	.loc 1 1848 0
	mov	w2, 0
	mov	w4, 0
	b	.L299
.L389:
	.loc 1 1835 0
	ldr	w2, [x23,1916]
	add	w0, w0, w2
	b	.L297
.LVL494:
.L387:
	.loc 1 1986 0 discriminator 1
	ldrb	w0, [x25,8]
	cmp	w0, 2
	bne	.L314
	.loc 1 1992 0
	ldr	x0, [x29,184]
	mov	w2, 0
	.loc 1 1991 0
	str	xzr, [x20,8]
	.loc 1 1994 0
	mov	w26, 0
	.loc 1 1992 0
	ldr	w1, [x23,3184]
	ldr	w0, [x0,3352]
	bl	FSP_SetDisplay
.LVL495:
	.loc 1 1993 0
	mov	w0, 8
	mov	x1, x20
	bl	ReleasePacket
.LVL496:
	.loc 1 1994 0
	b	.L259
.L386:
	.loc 1 1982 0
	adrp	x1, .LC22
	adrp	x2, .LANCHOR1
	add	x1, x1, :lo12:.LC22
	add	x2, x2, :lo12:.LANCHOR1
	mov	w3, 1982
	mov	w0, 22
	.loc 1 1983 0
	mov	w26, 0
	.loc 1 1982 0
	bl	dprint_linux_kernel
.LVL497:
	.loc 1 1983 0
	b	.L259
.L385:
	.loc 1 1975 0
	ldr	x0, [x29,176]
	mov	w2, 1
	.loc 1 1976 0
	mov	w26, 0
	.loc 1 1975 0
	add	x1, x0, 20480
	ldr	x0, [x29,184]
	ldr	w1, [x1,16]
	ldr	w0, [x0,3352]
	bl	FSP_ClearLogicFs
.LVL498:
	.loc 1 1976 0
	b	.L259
.L384:
	.loc 1 1952 0
	adrp	x1, .LC21
	mov	w2, 1952
	add	x1, x1, :lo12:.LC21
	mov	w0, 22
	.loc 1 1953 0
	mov	w26, 0
	.loc 1 1952 0
	bl	dprint_linux_kernel
.LVL499:
	.loc 1 1953 0
	b	.L259
.LVL500:
.L279:
	.loc 1 1754 0
	ldr	x0, [x29,184]
.LVL501:
	mov	w2, 1
	ldr	w1, [x3,16]
	.loc 1 1755 0
	mov	w26, 0
	.loc 1 1754 0
	ldr	w0, [x0,3352]
	bl	FSP_ClearLogicFs
.LVL502:
	.loc 1 1755 0
	b	.L259
.LVL503:
.L324:
.LBB243:
.LBB244:
	.loc 1 1347 0
	mov	w2, 1
.LVL504:
	str	w2, [x25,36]
.LBE244:
.LBE243:
	.loc 1 2019 0
	ldr	x0, [x20,8]
	cbz	x0, .L390
.L307:
	.loc 1 2029 0
	ldr	x0, [x20]
	ldr	w0, [x0,676]
	str	w0, [x20,88]
	.loc 1 2031 0
	b	.L259
.LVL505:
.L388:
	.loc 1 1831 0
	ldr	w2, [x23,1916]
	add	w1, w1, w2
	b	.L296
.LVL506:
.L291:
	.loc 1 1807 0 discriminator 2
	ldr	w5, [x0,12]
	b	.L292
.LVL507:
.L390:
	.loc 1 2022 0
	mov	x0, x20
	str	x2, [x29,176]
	bl	Real8_ModifySliceMsg
.LVL508:
	cmp	w0, 1
	ldr	x2, [x29,176]
	bne	.L391
	.loc 1 2027 0
	str	x25, [x20,8]
	b	.L307
.L391:
	.loc 1 2024 0
	add	x24, x24, 3168
	ldr	x0, [x29,184]
	add	x24, x24, 20480
	.loc 1 2025 0
	mov	w26, 0
	.loc 1 2024 0
	ldr	w0, [x0,3352]
	ldr	w1, [x24,16]
	bl	FSP_ClearLogicFs
.LVL509:
	.loc 1 2025 0
	b	.L259
	.cfi_endproc
.LFE2671:
	.size	REAL8DEC_Decode, .-REAL8DEC_Decode
	.align	2
	.global	REAL8DEC_Decode_User
	.type	REAL8DEC_Decode_User, %function
REAL8DEC_Decode_User:
.LFB2672:
	.loc 1 2035 0
	.cfi_startproc
.LVL510:
	stp	x29, x30, [sp, -96]!
	.cfi_def_cfa_offset 96
	.cfi_offset 29, -96
	.cfi_offset 30, -88
	add	x29, sp, 0
	.cfi_def_cfa_register 29
	stp	x19, x20, [sp,16]
	.cfi_offset 19, -80
	.cfi_offset 20, -72
	.loc 1 2060 0
	add	x19, x0, 28672
	.loc 1 2035 0
	stp	x21, x22, [sp,32]
	stp	x23, x24, [sp,48]
	stp	x25, x26, [sp,64]
	stp	x27, x28, [sp,80]
	.cfi_offset 21, -64
	.cfi_offset 22, -56
	.cfi_offset 23, -48
	.cfi_offset 24, -40
	.cfi_offset 25, -32
	.cfi_offset 26, -24
	.cfi_offset 27, -16
	.cfi_offset 28, -8
	.loc 1 2035 0
	mov	x23, x1
	.loc 1 2067 0
	mov	w26, 1
	.loc 1 2061 0
	ldr	w1, [x19,1872]
.LVL511:
	.loc 1 2035 0
	mov	x22, x0
	.loc 1 2060 0
	ldr	w2, [x19,1868]
	.loc 1 2054 0
	add	x21, x0, 16
	.loc 1 2061 0
	str	w1, [x19,1880]
	.loc 1 2068 0
	mov	w1, 8192
	.loc 1 2060 0
	str	w2, [x19,1876]
	.loc 1 2067 0
	str	w26, [x19,1888]
	.loc 1 2068 0
	str	w1, [x19,1916]
	.loc 1 2072 0
	cbz	x23, .L453
	.loc 1 2078 0
	mov	w1, 0
	mov	x2, 11340
	mov	x0, x21
	.loc 1 2081 0
	add	x24, x22, 8192
	.loc 1 2078 0
	bl	memset
.LVL512:
	.loc 1 2081 0
	add	x1, x24, 3168
	.loc 1 2087 0
	mov	w2, 32
	.loc 1 2081 0
	add	x0, x1, 16384
	str	wzr, [x0,3968]
	.loc 1 2082 0
	ldr	w4, [x23,8]
	str	w4, [x0,3988]
	.loc 1 2086 0
	ldr	x20, [x23,64]
.LVL513:
	.loc 1 2087 0
	str	w2, [x0,3968]
	.loc 1 2089 0
	ldr	w3, [x20,28]
	.loc 1 2088 0
	ldr	x25, [x23,64]
	.loc 1 2089 0
	lsl	w3, w3, 5
	add	w3, w3, w2
	str	w3, [x0,3968]
	.loc 1 2091 0
	cmp	w4, w3
	ble	.L454
	.loc 1 2098 0
	ldr	w2, [x23,4]
	add	w2, w3, w2
	str	w2, [x0,3972]
	.loc 1 2100 0
	ldr	x2, [x23,64]
	add	x2, x2, x3, sxtw
	str	x2, [x22,11360]
	.loc 1 2101 0
	ldr	w2, [x23,8]
	sub	w2, w2, w3
	str	w2, [x0,3976]
	.loc 1 2102 0
	ldrb	w3, [x23,1]
	strb	w3, [x1,16]
	.loc 1 2104 0
	ldrb	w3, [x23,1]
	cmp	w3, 1
	beq	.L396
	.loc 1 2106 0
	ldr	w3, [x23,84]
	str	w3, [x0,3980]
	.loc 1 2107 0
	ldr	x3, [x23,144]
	str	x3, [x1,8]
	.loc 1 2108 0
	ldr	w3, [x23,88]
	str	w3, [x0,3984]
	.loc 1 2109 0
	ldrb	w0, [x23,81]
	strb	w0, [x1,17]
	.loc 1 2110 0
	ldrb	w0, [x23,81]
	cmp	w0, 1
	bne	.L455
	.loc 1 2126 0
	mov	w1, 65495
	sub	w0, w2, #40
	movk	w1, 0x2f, lsl 16
	cmp	w0, w1
	bhi	.L456
.L398:
	.loc 1 2132 0
	add	x26, x24, 3168
	ldr	w0, [x20,28]
	add	x2, x26, 16384
	.loc 1 2133 0
	sub	w1, w0, #1
	cmp	w1, 255
	.loc 1 2132 0
	str	w0, [x2,2940]
	.loc 1 2133 0
	bhi	.L450
	.loc 1 2138 0
	ldr	w0, [x20,4]
	add	x23, x19, 1800
.LVL514:
	str	w0, [x19,1892]
	.loc 1 2139 0
	ldr	w1, [x20,8]
	add	w1, w1, 15
	lsr	w1, w1, 4
	str	w1, [x19,1908]
	.loc 1 2141 0
	lsl	w3, w1, 4
	.loc 1 2140 0
	ldr	w0, [x20,12]
	.loc 1 2141 0
	str	w3, [x19,1900]
	.loc 1 2140 0
	add	w0, w0, 15
	lsr	w0, w0, 4
	str	w0, [x19,1904]
	.loc 1 2142 0
	lsl	w3, w0, 4
	str	w3, [x19,1896]
	.loc 1 2145 0
	mul	w0, w0, w1
	.loc 1 2143 0
	ldr	w1, [x20,24]
	str	w1, [x19,1924]
	.loc 1 2144 0
	ldr	w1, [x2,3972]
	.loc 1 2145 0
	str	w0, [x19,1912]
	.loc 1 2144 0
	and	w1, w1, -16
	str	w1, [x19,1948]
	.loc 1 2148 0
	ldrb	w0, [x26,20]
	cbnz	w0, .L400
	.loc 1 2150 0
	add	x28, x26, 20480
	add	x27, x22, 49152
	mov	w2, 1
	ldr	w0, [x27,3352]
	ldr	w1, [x28,12]
	bl	FSP_ClearLogicFs
.LVL515:
	.loc 1 2150 0 is_stmt 0 discriminator 1
	ldr	w1, [x28,8]
	mov	w2, 1
	ldr	w0, [x27,3352]
	bl	FSP_ClearLogicFs
.LVL516:
	.loc 1 2150 0
	str	wzr, [x28,8]
	str	wzr, [x28,12]
	.loc 1 2150 0 discriminator 2
	ldr	w0, [x27,3352]
	bl	FSP_GetNullLogicFs
.LVL517:
	.loc 1 2150 0
	str	w0, [x28,12]
	str	w0, [x28,8]
	.loc 1 2152 0 is_stmt 1
	add	x1, x19, 3232
	.loc 1 2151 0
	strb	wzr, [x26,23]
	.loc 1 2152 0
	ldr	w0, [x27,3352]
	bl	FSP_ClearNotInVoQueue
.LVL518:
	.loc 1 2153 0
	mov	w0, 6
	mov	x1, x22
	mov	x2, x23
	bl	Real8_ArrangeVHBMem
.LVL519:
	cbz	w0, .L457
.L400:
	.loc 1 2162 0
	ldr	x1, [x22]
	add	x23, x24, 3168
	.loc 1 2165 0
	mov	x0, x22
	.loc 1 2162 0
	ldr	w1, [x1,12]
	strb	w1, [x23,18]
	.loc 1 2165 0
	bl	Real8_GetImageBuffer
.LVL520:
	cbz	w0, .L458
	.loc 1 2172 0
	add	x26, x22, 49152
	add	x27, x23, 20480
	ldr	w0, [x26,3352]
	ldr	w1, [x27,16]
	bl	FSP_GetFsImagePtr
.LVL521:
	mov	x3, x0
.LVL522:
	.loc 1 2173 0
	cbz	x0, .L451
	.loc 1 2175 0
	ldr	x2, [x22]
	.loc 1 2183 0
	mov	x4, -1
	.loc 1 2184 0
	adrp	x1, .LC14
	mov	w0, 29
	add	x1, x1, :lo12:.LC14
	.loc 1 2175 0
	ldr	x2, [x2,48]
	str	x2, [x3,224]
	.loc 1 2176 0
	ldr	x2, [x22]
	ldr	x2, [x2,64]
	str	x2, [x3,232]
	.loc 1 2177 0
	ldr	x2, [x22]
	ldr	x2, [x2,80]
	str	x2, [x3,240]
	.loc 1 2178 0
	ldr	x2, [x22]
	ldr	w2, [x2,96]
	str	w2, [x3,8]
	.loc 1 2179 0
	ldr	x2, [x22]
	ldr	w2, [x2,100]
	str	w2, [x3,12]
	.loc 1 2180 0
	ldr	x2, [x22]
	ldr	w2, [x2,104]
	str	w2, [x3,16]
	.loc 1 2181 0
	ldr	x2, [x22]
	ldr	w2, [x2,120]
	str	w2, [x3,20]
	.loc 1 2183 0
	ldr	x2, [x22]
	str	x4, [x2,48]
	.loc 1 2184 0
	ldr	x2, [x3,224]
	ldr	x3, [x3,232]
.LVL523:
	bl	dprint_linux_kernel
.LVL524:
	.loc 1 2193 0
	ldr	w0, [x19,1892]
	cmp	w0, 2
	beq	.L452
	.loc 1 2195 0
	cmp	w0, 1
	.loc 1 2195 0 is_stmt 0 discriminator 1
	ldrb	w0, [x23,23]
	.loc 1 2195 0
	beq	.L459
	.loc 1 2199 0 is_stmt 1 discriminator 2
	cmp	w0, wzr
	mov	w0, 2
	csinc	w0, w0, wzr, ne
.L407:
	.loc 1 2199 0 is_stmt 0 discriminator 4
	add	x23, x24, 3168
	strb	w0, [x24,3191]
	.loc 1 2200 0 is_stmt 1
	add	x23, x23, 20480
	ldr	w2, [x23,8]
	ldr	w0, [x23,12]
	cmp	w2, w0
	beq	.L408
	.loc 1 2203 0
	adrp	x1, .LC15
	mov	w0, 13
	add	x1, x1, :lo12:.LC15
	bl	dprint_linux_kernel
.LVL525:
	.loc 1 2204 0
	ldr	w0, [x26,3352]
	mov	w2, 0
	ldr	w1, [x23,8]
	bl	FSP_SetRef
.LVL526:
	ldr	w0, [x23,12]
.L408:
	.loc 1 2206 0
	add	x23, x24, 3168
	.loc 1 2208 0
	mov	w2, 1
	.loc 1 2206 0
	add	x23, x23, 20480
	.loc 1 2207 0
	ldr	w1, [x23,16]
	str	w1, [x23,12]
	.loc 1 2206 0
	str	w0, [x23,8]
	.loc 1 2208 0
	ldr	w0, [x26,3352]
	bl	FSP_SetRef
.LVL527:
	.loc 1 2210 0
	ldr	w0, [x26,3352]
	ldr	w1, [x23,8]
	bl	FSP_RemovePmv
.LVL528:
	.loc 1 2211 0
	adrp	x1, .LC16
	ldr	w2, [x23,16]
	add	x1, x1, :lo12:.LC16
	mov	w0, 13
	bl	dprint_linux_kernel
.LVL529:
.L409:
	.loc 1 2222 0
	add	x23, x24, 3168
	ldr	w0, [x26,3352]
	add	x23, x23, 20480
	ldr	w1, [x23,16]
	bl	FSP_GetLogicFs
.LVL530:
	mov	x27, x0
.LVL531:
	.loc 1 2223 0
	ldr	w1, [x23,8]
	ldr	w0, [x26,3352]
	bl	FSP_GetLogicFs
.LVL532:
	mov	x28, x0
.LVL533:
	.loc 1 2224 0
	ldr	w1, [x23,12]
	ldr	w0, [x26,3352]
	bl	FSP_GetLogicFs
.LVL534:
	mov	x3, x0
.LVL535:
	.loc 1 2226 0
	cmp	x28, xzr
	cset	w1, eq
	cmp	x27, xzr
	cset	w0, eq
	.loc 1 2226 0 is_stmt 0 discriminator 1
	orr	w0, w1, w0
	cbnz	w0, .L431
	cbz	x3, .L431
	.loc 1 2232 0 is_stmt 1
	ldr	x1, [x27,296]
	cbz	x1, .L412
	.loc 1 2232 0 is_stmt 0 discriminator 1
	ldr	x0, [x27,312]
	cbz	x0, .L412
	.loc 1 2232 0 discriminator 2
	ldr	x0, [x27,304]
	cbz	x0, .L412
	.loc 1 2240 0 is_stmt 1
	ldr	x0, [x3,296]
	cbz	x0, .L414
	.loc 1 2240 0 is_stmt 0 discriminator 1
	ldr	w5, [x0,12]
.L415:
	.loc 1 2240 0 discriminator 4
	str	w5, [x21,44]
	.loc 1 2241 0 is_stmt 1
	ldr	x0, [x28,296]
	cbz	x0, .L460
.L449:
	.loc 1 2241 0 is_stmt 0 discriminator 2
	ldr	w4, [x0,12]
	.loc 1 2249 0 is_stmt 1
	adrp	x1, .LC19
	.loc 1 2241 0 discriminator 4
	str	w4, [x21,48]
	.loc 1 2249 0
	add	x1, x1, :lo12:.LC19
	mov	w0, 13
	.loc 1 2242 0
	ldr	x2, [x27,296]
	ldr	w2, [x2,12]
	str	w2, [x21,52]
	.loc 1 2243 0
	ldr	w6, [x27,320]
	str	w6, [x21,64]
	.loc 1 2245 0
	ldr	w7, [x3,320]
	str	w7, [x21,68]
	.loc 1 2246 0
	ldr	x3, [x27,304]
.LVL536:
	ldr	w3, [x3,12]
	str	w3, [x21,56]
	.loc 1 2249 0
	bl	dprint_linux_kernel
.LVL537:
	.loc 1 2252 0
	ldr	x1, [x27,304]
	ldr	w1, [x1,20]
	str	w1, [x21,60]
	.loc 1 2253 0
	ldr	w1, [x19,1948]
	str	w1, [x21,40]
	.loc 1 2256 0
	ldr	w1, [x19,1892]
	cmp	w1, 2
	beq	.L418
	add	x0, x24, 3168
	add	x0, x0, 16384
	ldr	w4, [x0,4028]
	ldr	w3, [x0,4032]
.L419:
	.loc 1 2284 0
	add	x9, x25, 32
.LVL538:
	ldr	w2, [x9,4]
	str	w2, [x19,1932]
.LBB245:
.LBB246:
	.loc 1 1333 0
	cmp	w1, 2
	.loc 1 1323 0
	strb	w1, [x21,8]
	.loc 1 1330 0
	add	x24, x24, 3168
	add	x24, x24, 16384
	.loc 1 1324 0
	ldr	w1, [x19,1908]
	str	w1, [x22,16]
	.loc 1 1325 0
	ldr	w0, [x19,1904]
	str	w0, [x21,4]
	.loc 1 1326 0
	str	w4, [x21,12]
	.loc 1 1327 0
	str	w3, [x21,16]
	.loc 1 1329 0
	str	w2, [x21,20]
	.loc 1 1330 0
	ldr	w0, [x24,2924]
	str	w0, [x21,24]
	.loc 1 1331 0
	ldr	w0, [x24,2928]
	str	w0, [x21,28]
	.loc 1 1333 0
	beq	.L422
	.loc 1 1335 0
	str	w2, [x24,2924]
.L422:
.LBE246:
.LBE245:
	.loc 1 2290 0 discriminator 1
	ldr	w0, [x20,28]
	cbz	w0, .L427
	.loc 1 2088 0
	mov	w8, 1
	mov	w4, 0
.LVL539:
	mov	w6, 0
.LVL540:
	b	.L426
.L461:
	.loc 1 2307 0
	ldr	w3, [x5,16]
	sub	w3, w3, #1
.L425:
.LBB247:
.LBB248:
	.loc 1 1293 0
	lsl	x0, x7, 4
	str	w3, [x19,1968]
	sub	x0, x0, x7, lsl 2
	.loc 1 1307 0
	add	w6, w6, 1
	.loc 1 1293 0
	sub	x0, x0, x7
	add	w8, w8, 1
	add	x0, x21, x0, lsl 2
	.loc 1 1295 0
	add	x5, x0, 80
	.loc 1 1303 0
	add	x3, x0, 96
	.loc 1 1293 0
	str	w2, [x0,76]
	.loc 1 1294 0
	ldr	w2, [x19,1972]
	str	w2, [x0,84]
	.loc 1 1295 0
	ldr	w2, [x19,1976]
	str	w2, [x0,92]
	.loc 1 1297 0
	ldr	w2, [x19,1992]
	str	w2, [x0,80]
	.loc 1 1298 0
	ldr	w2, [x19,1984]
	str	w2, [x0,88]
	.loc 1 1299 0
	ldr	w2, [x19,1988]
	str	w2, [x0,96]
	.loc 1 1301 0
	ldr	w0, [x19,1960]
	str	w0, [x5,20]
	.loc 1 1302 0
	ldr	w0, [x19,1956]
	str	w0, [x5,24]
	.loc 1 1303 0
	ldr	w0, [x19,1952]
	str	w0, [x3,12]
	.loc 1 1304 0
	ldr	w0, [x19,1964]
	str	w0, [x3,16]
	.loc 1 1305 0
	ldr	w0, [x19,1968]
	str	w0, [x3,20]
	.loc 1 1307 0
	str	w6, [x21,32]
.LBE248:
.LBE247:
	.loc 1 2290 0 discriminator 1
	ldr	w0, [x20,28]
	cmp	w0, w10
	bls	.L427
.L426:
	.loc 1 2292 0
	sxtw	x7, w6
.LVL541:
	.loc 1 2294 0
	cmp	w4, wzr
	add	w2, w4, 7
	.loc 1 2307 0
	ubfiz	x5, x8, 5, 32
	.loc 1 2292 0
	add	x1, x9, x7, lsl 5
	.loc 1 2294 0
	csel	w2, w2, w4, lt
.LVL542:
	asr	w2, w2, 3
.LVL543:
	.loc 1 2311 0
	add	x11, x19, 1800
	.loc 1 2294 0
	and	w2, w2, -16
	.loc 1 2307 0
	add	x5, x9, x5
	.loc 1 2292 0
	ldr	w3, [x1,20]
	mov	w10, w8
.LVL544:
	add	w3, w4, w3
	and	w3, w3, 127
	str	w3, [x19,1972]
	.loc 1 2293 0
	ldr	w12, [x1,20]
	ldr	w3, [x1,24]
	.loc 1 2294 0
	str	w2, [x19,1980]
	.loc 1 2295 0
	str	wzr, [x19,1984]
	.loc 1 2293 0
	sub	w3, w3, w12
	.loc 1 2296 0
	str	wzr, [x19,1988]
	.loc 1 2293 0
	str	w3, [x19,1976]
	.loc 1 2297 0
	str	wzr, [x19,1992]
	.loc 1 2300 0
	ldr	w12, [x1,4]
	.loc 1 2298 0
	ldr	w3, [x1,24]
	.loc 1 2300 0
	str	w12, [x19,1952]
	.loc 1 2298 0
	add	w4, w4, w3
	.loc 1 2301 0
	ldr	w3, [x1,8]
	str	w3, [x19,1956]
	.loc 1 2302 0
	ldr	w3, [x1,12]
	str	w3, [x19,1960]
	.loc 1 2303 0
	ldr	w1, [x1,16]
	str	w1, [x19,1964]
	.loc 1 2305 0
	ldr	w0, [x20,28]
	sub	w0, w0, #1
	cmp	w0, w6
	bhi	.L461
	.loc 1 2311 0
	ldr	w0, [x11,104]
	ldr	w3, [x11,108]
	mul	w3, w0, w3
	sub	w3, w3, #1
	b	.L425
.LVL545:
.L455:
	.loc 1 2112 0
	add	x22, x22, 49152
.LVL546:
	ldr	w1, [x23,12]
	ldr	w0, [x22,3352]
	bl	SM_ReleaseStreamSeg
.LVL547:
	.loc 1 2113 0
	ldr	w0, [x22,3352]
	ldr	w1, [x23,92]
	bl	SM_ReleaseStreamSeg
.LVL548:
	.loc 1 2115 0
	mov	w0, 0
.LVL549:
.L394:
	.loc 1 2325 0
	ldp	x19, x20, [sp,16]
	.cfi_remember_state
	.cfi_restore 20
	.cfi_restore 19
.LVL550:
	ldp	x21, x22, [sp,32]
	.cfi_restore 22
	.cfi_restore 21
.LVL551:
	ldp	x23, x24, [sp,48]
	.cfi_restore 24
	.cfi_restore 23
.LVL552:
	ldp	x25, x26, [sp,64]
	.cfi_restore 26
	.cfi_restore 25
	ldp	x27, x28, [sp,80]
	.cfi_restore 28
	.cfi_restore 27
.LVL553:
	ldp	x29, x30, [sp], 96
	.cfi_restore 30
	.cfi_restore 29
	.cfi_def_cfa 31, 0
	ret
.LVL554:
.L456:
	.cfi_restore_state
	.loc 1 2128 0
	adrp	x1, .LC24
	mov	w0, 1
	add	x1, x1, :lo12:.LC24
	bl	dprint_linux_kernel
.LVL555:
	.loc 1 2129 0
	mov	w0, 0
	.loc 1 2325 0
	ldp	x19, x20, [sp,16]
	.cfi_remember_state
	.cfi_restore 19
	.cfi_restore 20
.LVL556:
	ldp	x21, x22, [sp,32]
	.cfi_restore 21
	.cfi_restore 22
.LVL557:
	ldp	x23, x24, [sp,48]
	.cfi_restore 23
	.cfi_restore 24
.LVL558:
	ldp	x25, x26, [sp,64]
	.cfi_restore 25
	.cfi_restore 26
	ldp	x27, x28, [sp,80]
	.cfi_restore 27
	.cfi_restore 28
	ldp	x29, x30, [sp], 96
	.cfi_restore 29
	.cfi_restore 30
	.cfi_def_cfa 31, 0
	ret
.LVL559:
.L458:
	.cfi_restore_state
	.loc 1 2167 0
	add	x23, x23, 16384
	adrp	x1, .LC13
	add	x1, x1, :lo12:.LC13
	ldr	w2, [x23,4004]
	bl	dprint_linux_kernel
.LVL560:
	.loc 1 2168 0
	mov	w0, 0
	b	.L394
.LVL561:
.L396:
	.loc 1 2120 0
	str	wzr, [x0,3980]
	.loc 1 2121 0
	str	xzr, [x1,8]
	.loc 1 2122 0
	str	wzr, [x0,3984]
	.loc 1 2126 0
	sub	w0, w2, #40
	.loc 1 2123 0
	strb	wzr, [x1,17]
	.loc 1 2126 0
	mov	w1, 65495
	movk	w1, 0x2f, lsl 16
	cmp	w0, w1
	bls	.L398
	b	.L456
.LVL562:
.L431:
	.loc 1 2228 0
	adrp	x2, .LANCHOR1
	adrp	x1, .LC17
	add	x2, x2, :lo12:.LANCHOR1
	mov	w0, 22
	add	x1, x1, :lo12:.LC17
	add	x2, x2, 40
	mov	w3, 2228
.LVL563:
	bl	dprint_linux_kernel
.LVL564:
.L450:
	.loc 1 2229 0
	mov	w0, 0
	.loc 1 2325 0
	ldp	x19, x20, [sp,16]
	.cfi_remember_state
	.cfi_restore 19
	.cfi_restore 20
.LVL565:
	ldp	x21, x22, [sp,32]
	.cfi_restore 21
	.cfi_restore 22
.LVL566:
	ldp	x23, x24, [sp,48]
	.cfi_restore 23
	.cfi_restore 24
.LVL567:
	ldp	x25, x26, [sp,64]
	.cfi_restore 25
	.cfi_restore 26
	ldp	x27, x28, [sp,80]
	.cfi_restore 27
	.cfi_restore 28
.LVL568:
	ldp	x29, x30, [sp], 96
	.cfi_restore 29
	.cfi_restore 30
	.cfi_def_cfa 31, 0
	ret
.LVL569:
.L454:
	.cfi_restore_state
	.loc 1 2093 0
	adrp	x2, .LANCHOR1
	adrp	x1, .LC23
	add	x2, x2, :lo12:.LANCHOR1
	mov	w0, w26
	add	x1, x1, :lo12:.LC23
	add	x2, x2, 16
	bl	dprint_linux_kernel
.LVL570:
	.loc 1 2094 0
	mov	w0, 0
	.loc 1 2325 0
	ldp	x19, x20, [sp,16]
	.cfi_remember_state
	.cfi_restore 19
	.cfi_restore 20
.LVL571:
	ldp	x21, x22, [sp,32]
	.cfi_restore 21
	.cfi_restore 22
.LVL572:
	ldp	x23, x24, [sp,48]
	.cfi_restore 23
	.cfi_restore 24
.LVL573:
	ldp	x25, x26, [sp,64]
	.cfi_restore 25
	.cfi_restore 26
	ldp	x27, x28, [sp,80]
	.cfi_restore 27
	.cfi_restore 28
	ldp	x29, x30, [sp], 96
	.cfi_restore 29
	.cfi_restore 30
	.cfi_def_cfa 31, 0
	ret
.LVL574:
.L453:
	.cfi_restore_state
	.loc 1 2074 0
	mov	x0, 27744
.LVL575:
	adrp	x1, .LC8
	add	x22, x22, x0
.LVL576:
	add	x1, x1, :lo12:.LC8
	mov	w0, w26
	ldr	w2, [x22,4004]
	bl	dprint_linux_kernel
.LVL577:
	.loc 1 2075 0
	mov	w0, 0
	.loc 1 2325 0
	ldp	x19, x20, [sp,16]
	.cfi_remember_state
	.cfi_restore 19
	.cfi_restore 20
	ldp	x21, x22, [sp,32]
	.cfi_restore 21
	.cfi_restore 22
	ldp	x23, x24, [sp,48]
	.cfi_restore 23
	.cfi_restore 24
.LVL578:
	ldp	x25, x26, [sp,64]
	.cfi_restore 25
	.cfi_restore 26
	ldp	x27, x28, [sp,80]
	.cfi_restore 27
	.cfi_restore 28
	ldp	x29, x30, [sp], 96
	.cfi_restore 29
	.cfi_restore 30
	.cfi_def_cfa 31, 0
	ret
.LVL579:
.L457:
	.cfi_restore_state
	.loc 1 2155 0
	adrp	x1, .LC12
	mov	w0, 1
	add	x1, x1, :lo12:.LC12
	bl	dprint_linux_kernel
.LVL580:
	.loc 1 2156 0
	mov	w0, 0
	b	.L394
.LVL581:
.L418:
	.loc 1 2259 0
	add	x2, x24, 3168
	ldr	w0, [x20,16]
	add	x2, x2, 16384
.LVL582:
	str	w0, [x2,4020]
	.loc 1 2260 0
	ldr	w5, [x20,20]
	str	w5, [x2,4024]
	.loc 1 2268 0
	cmp	w0, w5
	csel	w0, w0, wzr, le
	.loc 1 2270 0
	cmp	w5, wzr
	ble	.L430
	.loc 1 2273 0
	sub	w2, w5, w0
	.loc 1 2272 0
	lsl	w0, w0, 14
.LVL583:
	.loc 1 2273 0
	lsl	w2, w2, 14
	.loc 1 2272 0
	sdiv	w0, w0, w5
	mov	w4, w0
	.loc 1 2273 0
	sdiv	w2, w2, w5
	mov	w3, w2
.L421:
	.loc 1 2280 0
	add	x5, x24, 3168
	add	x5, x5, 16384
	str	w0, [x5,4028]
	.loc 1 2281 0
	str	w2, [x5,4032]
	b	.L419
.LVL584:
.L427:
.LBB249:
.LBB250:
	.loc 1 1347 0
	mov	w0, 1
	str	w0, [x21,36]
.LBE250:
.LBE249:
	.loc 1 2321 0
	str	x21, [x22,8]
	.loc 1 2322 0
	ldr	x1, [x22]
	ldr	w1, [x1,676]
	str	w1, [x22,88]
	.loc 1 2324 0
	b	.L394
.LVL585:
.L452:
	.loc 1 2215 0
	ldrb	w0, [x23,23]
	cmp	w0, 1
	bhi	.L409
.LVL586:
.L451:
	.loc 1 2217 0
	ldr	w0, [x26,3352]
.LVL587:
	mov	w2, 1
	ldr	w1, [x27,16]
	bl	FSP_ClearLogicFs
.LVL588:
	.loc 1 2218 0
	mov	w0, 0
	b	.L394
.L459:
	.loc 1 2195 0 discriminator 1
	cbz	w0, .L450
	.loc 1 2199 0 discriminator 1
	mov	w0, 2
	b	.L407
.LVL589:
.L412:
	.loc 1 2234 0
	add	x24, x24, 3168
	ldr	w0, [x26,3352]
	add	x24, x24, 20480
	mov	w2, 1
	ldr	w1, [x24,16]
	bl	FSP_ClearLogicFs
.LVL590:
	.loc 1 2235 0
	adrp	x1, .LC18
	mov	w0, 0
	add	x1, x1, :lo12:.LC18
	bl	dprint_linux_kernel
.LVL591:
	.loc 1 2236 0
	mov	w0, 0
	b	.L394
.LVL592:
.L414:
	.loc 1 2240 0 discriminator 2
	ldr	w5, [x1,12]
	b	.L415
.L460:
	.loc 1 2241 0 discriminator 2
	ldr	x0, [x27,296]
	b	.L449
.LVL593:
.L430:
	mov	w3, 0
	mov	w4, 0
	mov	w2, 0
	mov	w0, 0
.LVL594:
	b	.L421
	.cfi_endproc
.LFE2672:
	.size	REAL8DEC_Decode_User, .-REAL8DEC_Decode_User
	.align	2
	.global	REAL8DEC_RecycleImage
	.type	REAL8DEC_RecycleImage, %function
REAL8DEC_RecycleImage:
.LFB2673:
	.loc 1 2328 0
	.cfi_startproc
.LVL595:
	stp	x29, x30, [sp, -32]!
	.cfi_def_cfa_offset 32
	.cfi_offset 29, -32
	.cfi_offset 30, -24
	add	x29, sp, 0
	.cfi_def_cfa_register 29
	stp	x19, x20, [sp,16]
	.cfi_offset 19, -16
	.cfi_offset 20, -8
	.loc 1 2332 0
	cbz	x0, .L464
	.loc 1 2339 0
	add	x19, x0, 49152
	mov	w2, 0
	mov	w20, w1
	ldr	w0, [x19,3352]
.LVL596:
	bl	FSP_SetDisplay
.LVL597:
	.loc 1 2340 0
	ldr	w0, [x19,3352]
	mov	w1, w20
	bl	FSP_GetFsImagePtr
.LVL598:
	.loc 1 2349 0
	mov	w0, 1
	.loc 1 2350 0
	ldp	x19, x20, [sp,16]
	.cfi_remember_state
	.cfi_restore 20
	.cfi_restore 19
.LVL599:
	ldp	x29, x30, [sp], 32
	.cfi_restore 30
	.cfi_restore 29
	.cfi_def_cfa 31, 0
	ret
.LVL600:
.L464:
	.cfi_restore_state
	.loc 1 2334 0
	mov	w0, 0
.LVL601:
	.loc 1 2350 0
	ldp	x19, x20, [sp,16]
	.cfi_restore 19
	.cfi_restore 20
	ldp	x29, x30, [sp], 32
	.cfi_restore 29
	.cfi_restore 30
	.cfi_def_cfa 31, 0
	ret
	.cfi_endproc
.LFE2673:
	.size	REAL8DEC_RecycleImage, .-REAL8DEC_RecycleImage
	.align	2
	.global	REAL8DEC_GetRemainImg
	.type	REAL8DEC_GetRemainImg, %function
REAL8DEC_GetRemainImg:
.LFB2674:
	.loc 1 2354 0
	.cfi_startproc
.LVL602:
	stp	x29, x30, [sp, -64]!
	.cfi_def_cfa_offset 64
	.cfi_offset 29, -64
	.cfi_offset 30, -56
	add	x29, sp, 0
	.cfi_def_cfa_register 29
	stp	x19, x20, [sp,16]
	stp	x21, x22, [sp,32]
	stp	x23, x24, [sp,48]
	.cfi_offset 19, -48
	.cfi_offset 20, -40
	.cfi_offset 21, -32
	.cfi_offset 22, -24
	.cfi_offset 23, -16
	.cfi_offset 24, -8
	.loc 1 2354 0
	mov	x19, x0
	.loc 1 2362 0
	ldr	x0, [x0]
.LVL603:
	ldr	w0, [x0,16]
	cmp	w0, 1
	beq	.L478
	.loc 1 2368 0
	mov	x20, 31840
	add	x23, x19, 49152
	add	x20, x19, x20
	ldr	w0, [x23,3352]
	ldr	w1, [x20,12]
	bl	FSP_GetFsImagePtr
.LVL604:
	mov	x24, x0
.LVL605:
	.loc 1 2369 0
	cbz	x0, .L478
	.loc 1 2371 0
	ldr	w0, [x23,3352]
	add	x22, x19, 28672
	ldr	w1, [x20,12]
	bl	FSP_GetDisplay
.LVL606:
	.loc 1 2372 0
	cmp	w0, 2
	beq	.L479
.L466:
	add	x21, x22, 3232
.L468:
	.loc 1 2405 0
	mov	x0, x21
	bl	GetVoLastImageID
.LVL607:
.L477:
	.loc 1 2409 0
	ldp	x19, x20, [sp,16]
	.cfi_remember_state
	.cfi_restore 20
	.cfi_restore 19
.LVL608:
.LVL609:
	ldp	x21, x22, [sp,32]
	.cfi_restore 22
	.cfi_restore 21
	ldp	x23, x24, [sp,48]
	.cfi_restore 24
	.cfi_restore 23
.LVL610:
	ldp	x29, x30, [sp], 64
	.cfi_restore 30
	.cfi_restore 29
	.cfi_def_cfa 31, 0
	ret
.LVL611:
.L478:
	.cfi_restore_state
	add	x22, x19, 28672
	b	.L466
.LVL612:
.L479:
	.loc 1 2374 0
	mov	x0, x19
	.loc 1 2378 0
	add	x21, x22, 3232
	.loc 1 2374 0
	bl	Real8_SetImgFormat
.LVL613:
	.loc 1 2375 0
	mov	w2, 1
	str	w2, [x24,108]
	.loc 1 2377 0
	ldr	w0, [x23,3352]
	ldr	w1, [x20,12]
	bl	FSP_SetDisplay
.LVL614:
	.loc 1 2378 0
	ldr	w0, [x23,3352]
	mov	w1, 8
	mov	x2, x19
	mov	x3, x21
	mov	x4, x24
	bl	InsertImgToVoQueue
.LVL615:
	cmp	w0, 1
	beq	.L467
	.loc 1 2380 0
	ldr	w0, [x23,3352]
	mov	w2, 0
	ldr	w1, [x20,12]
	bl	FSP_SetDisplay
.LVL616:
	b	.L468
.L467:
	.loc 1 2387 0
	ldr	w0, [x24,84]
	cmp	w0, 100
	bhi	.L466
	.loc 1 2387 0 is_stmt 0 discriminator 1
	ldr	w0, [x24,48]
	cmp	w0, 31
	bls	.L466
	.loc 1 2387 0 discriminator 2
	ldr	w0, [x24,52]
	cmp	w0, 31
	bls	.L466
	mov	w0, 0
.LVL617:
	b	.L477
	.cfi_endproc
.LFE2674:
	.size	REAL8DEC_GetRemainImg, .-REAL8DEC_GetRemainImg
	.align	2
	.global	REAL8DEC_VDMPostProc
	.type	REAL8DEC_VDMPostProc, %function
REAL8DEC_VDMPostProc:
.LFB2675:
	.loc 1 2413 0 is_stmt 1
	.cfi_startproc
.LVL618:
	stp	x29, x30, [sp, -80]!
	.cfi_def_cfa_offset 80
	.cfi_offset 29, -80
	.cfi_offset 30, -72
	add	x29, sp, 0
	.cfi_def_cfa_register 29
	stp	x21, x22, [sp,32]
	.cfi_offset 21, -48
	.cfi_offset 22, -40
	mov	w21, w1
	.loc 1 2419 0
	adrp	x1, .LC25
.LVL619:
	.loc 1 2413 0
	stp	x19, x20, [sp,16]
	stp	x23, x24, [sp,48]
	.cfi_offset 19, -64
	.cfi_offset 20, -56
	.cfi_offset 23, -32
	.cfi_offset 24, -24
	.loc 1 2413 0
	mov	x20, x0
	.loc 1 2419 0
	add	x1, x1, :lo12:.LC25
	.loc 1 2413 0
	mov	w24, w2
	.loc 1 2419 0
	mov	w0, 22
.LVL620:
	mov	w2, w21
.LVL621:
	.loc 1 2423 0
	add	x19, x20, 8192
	add	x23, x19, 3168
	add	x22, x20, 49152
	.loc 1 2419 0
	bl	dprint_linux_kernel
.LVL622:
	.loc 1 2421 0
	mov	w0, 8
	mov	x1, x20
	bl	ReleasePacket
.LVL623:
	.loc 1 2423 0
	add	x1, x23, 20480
	ldr	w0, [x22,3352]
	ldr	w1, [x1,16]
	bl	FSP_GetFsImagePtr
.LVL624:
	.loc 1 2425 0
	cbz	x0, .L489
	.loc 1 2430 0
	add	x2, x23, 16384
	ldr	w1, [x2,2820]
	strb	w1, [x19,3189]
	.loc 1 2431 0
	cmp	w1, 2
	beq	.L482
	.loc 1 2433 0
	and	w24, w24, 31
.LVL625:
	str	w24, [x2,2928]
.LVL626:
.L482:
	.loc 1 2438 0
	tbnz	w21, #31, .L490
	.loc 1 2438 0 is_stmt 0 discriminator 1
	cmp	w21, 100
	mov	w1, 100
	csel	w21, w21, w1, le
.LVL627:
.L483:
	.loc 1 2441 0 is_stmt 1
	adrp	x1, .LC26
	.loc 1 2438 0 discriminator 4
	str	w21, [x0,84]
	.loc 1 2441 0
	add	x1, x1, :lo12:.LC26
	mov	w0, 22
.LVL628:
	bl	dprint_linux_kernel
.LVL629:
	.loc 1 2443 0
	mov	x0, x20
	bl	Real8_SetImgFormat
.LVL630:
	.loc 1 2445 0
	ldrb	w1, [x19,3186]
	add	x0, x19, 3168
	cmp	w1, 2
	beq	.L486
	.loc 1 2451 0
	ldr	x1, [x20]
	ldr	w1, [x1,16]
	cmp	w1, 1
	beq	.L486
	.loc 1 2453 0
	add	x1, x0, 16384
	ldr	w1, [x1,2820]
	cmp	w1, 2
	beq	.L486
	.loc 1 2455 0
	ldrb	w1, [x0,23]
	cmp	w1, 1
	bls	.L491
	.loc 1 2455 0 is_stmt 0 discriminator 1
	add	x0, x0, 20480
	ldr	w1, [x0,8]
.L487:
	.loc 1 2455 0 discriminator 4
	add	x0, x19, 3168
	.loc 1 2468 0 is_stmt 1
	cmn	w1, #1
	.loc 1 2455 0 discriminator 4
	add	x0, x0, 20480
	str	w1, [x0,20]
	.loc 1 2468 0
	beq	.L488
.L508:
	.loc 1 2470 0
	ldr	w0, [x22,3352]
	.loc 1 2471 0
	add	x21, x19, 3168
	add	x21, x21, 20480
	.loc 1 2470 0
	bl	FSP_GetFsImagePtr
.LVL631:
	str	x0, [x29,64]
	.loc 1 2471 0
	ldr	w2, [x21,20]
	ldr	w0, [x22,3352]
.LVL632:
	mov	w1, w2
	str	x2, [x29,72]
	bl	FSP_GetRef
.LVL633:
	.loc 1 2471 0 is_stmt 0 discriminator 1
	mov	w3, w0
	ldr	x2, [x29,72]
	adrp	x1, .LC27
	add	x1, x1, :lo12:.LC27
	mov	w0, 12
	bl	dprint_linux_kernel
.LVL634:
	.loc 1 2473 0 is_stmt 1
	ldr	w0, [x22,3352]
	mov	w2, 1
	ldr	w1, [x21,20]
	bl	FSP_SetDisplay
.LVL635:
	.loc 1 2474 0
	add	x3, x20, 28672
	ldr	w0, [x22,3352]
	ldr	x4, [x29,64]
.LVL636:
	mov	w1, 8
	mov	x2, x20
	add	x3, x3, 3232
	bl	InsertImgToVoQueue
.LVL637:
	cmp	w0, 1
	bne	.L507
.L488:
	.loc 1 2481 0
	add	x19, x19, 3168
	.loc 1 2483 0
	mov	w0, 1
	.loc 1 2481 0
	add	x19, x19, 16384
	ldr	w1, [x19,4004]
	add	w1, w1, w0
	str	w1, [x19,4004]
	.loc 1 2484 0
	ldp	x19, x20, [sp,16]
	.cfi_remember_state
	.cfi_restore 20
	.cfi_restore 19
.LVL638:
	ldp	x21, x22, [sp,32]
	.cfi_restore 22
	.cfi_restore 21
	ldp	x23, x24, [sp,48]
	.cfi_restore 24
	.cfi_restore 23
.LVL639:
	ldp	x29, x30, [sp], 80
	.cfi_restore 30
	.cfi_restore 29
	.cfi_def_cfa 31, 0
	ret
.LVL640:
.L486:
	.cfi_restore_state
	.loc 1 2447 0
	add	x0, x19, 3168
	add	x0, x0, 20480
	ldr	w1, [x0,16]
	str	w1, [x0,20]
	.loc 1 2468 0
	cmn	w1, #1
	bne	.L508
	b	.L488
.LVL641:
.L490:
	.loc 1 2438 0 discriminator 2
	mov	w21, 0
.LVL642:
	b	.L483
.LVL643:
.L507:
	.loc 1 2476 0
	ldr	w0, [x22,3352]
	mov	w2, 0
	ldr	w1, [x21,20]
	bl	FSP_SetDisplay
.LVL644:
	.loc 1 2477 0
	mov	w0, 0
	.loc 1 2484 0
	ldp	x19, x20, [sp,16]
	.cfi_remember_state
	.cfi_restore 19
	.cfi_restore 20
.LVL645:
	ldp	x21, x22, [sp,32]
	.cfi_restore 21
	.cfi_restore 22
	ldp	x23, x24, [sp,48]
	.cfi_restore 23
	.cfi_restore 24
.LVL646:
	ldp	x29, x30, [sp], 80
	.cfi_restore 29
	.cfi_restore 30
	.cfi_def_cfa 31, 0
	ret
.LVL647:
.L489:
	.cfi_restore_state
	ldp	x19, x20, [sp,16]
	.cfi_remember_state
	.cfi_restore 19
	.cfi_restore 20
.LVL648:
	ldp	x21, x22, [sp,32]
	.cfi_restore 21
	.cfi_restore 22
.LVL649:
	ldp	x23, x24, [sp,48]
	.cfi_restore 23
	.cfi_restore 24
.LVL650:
	.loc 1 2427 0
	mov	w0, 0
.LVL651:
	.loc 1 2484 0
	ldp	x29, x30, [sp], 80
	.cfi_restore 29
	.cfi_restore 30
	.cfi_def_cfa 31, 0
	ret
.LVL652:
.L491:
	.cfi_restore_state
	.loc 1 2455 0 discriminator 2
	mov	w1, -1
	b	.L487
	.cfi_endproc
.LFE2675:
	.size	REAL8DEC_VDMPostProc, .-REAL8DEC_VDMPostProc
	.align	2
	.global	REAL8DEC_GetImageBuffer
	.type	REAL8DEC_GetImageBuffer, %function
REAL8DEC_GetImageBuffer:
.LFB2676:
	.loc 1 2488 0
	.cfi_startproc
.LVL653:
	stp	x29, x30, [sp, -48]!
	.cfi_def_cfa_offset 48
	.cfi_offset 29, -48
	.cfi_offset 30, -40
	add	x29, sp, 0
	.cfi_def_cfa_register 29
	stp	x19, x20, [sp,16]
	.cfi_offset 19, -32
	.cfi_offset 20, -24
	.loc 1 2496 0
	add	x20, x0, 49152
	.loc 1 2488 0
	str	x21, [sp,32]
	.cfi_offset 21, -16
	.loc 1 2488 0
	mov	x21, x0
	.loc 1 2496 0
	ldr	w0, [x20,3352]
.LVL654:
	bl	FSP_IsNewFsAvalible
.LVL655:
	cmp	w0, 1
	mov	w19, w0
	beq	.L510
	.loc 1 2500 0
	ldr	w0, [x20,3352]
	.loc 1 2505 0
	mov	w19, 0
	.loc 1 2500 0
	bl	FSP_IsNewFsAvalible
.LVL656:
	cmn	w0, #1
	beq	.L515
.L510:
	.loc 1 2506 0
	mov	w0, w19
	ldr	x21, [sp,32]
	.cfi_remember_state
	.cfi_restore 21
.LVL657:
	ldp	x19, x20, [sp,16]
	.cfi_restore 20
	.cfi_restore 19
	ldp	x29, x30, [sp], 48
	.cfi_restore 30
	.cfi_restore 29
	.cfi_def_cfa 31, 0
	ret
.LVL658:
.L515:
	.cfi_restore_state
	.loc 1 2502 0
	add	x1, x21, 28672
	ldr	w0, [x20,3352]
	add	x1, x1, 3232
	bl	FSP_ClearNotInVoQueue
.LVL659:
	.loc 1 2506 0
	ldr	x21, [sp,32]
	.cfi_restore 21
.LVL660:
	mov	w0, w19
	ldp	x19, x20, [sp,16]
	.cfi_restore 19
	.cfi_restore 20
	ldp	x29, x30, [sp], 48
	.cfi_restore 29
	.cfi_restore 30
	.cfi_def_cfa 31, 0
	ret
	.cfi_endproc
.LFE2676:
	.size	REAL8DEC_GetImageBuffer, .-REAL8DEC_GetImageBuffer
	.align	2
	.global	REAL8DEC_Support
	.type	REAL8DEC_Support, %function
REAL8DEC_Support:
.LFB2677:
	.loc 1 2509 0
	.cfi_startproc
.LVL661:
	.loc 1 2510 0
	mov	w1, 1
	str	w1, [x0]
	.loc 1 2512 0
	ret
	.cfi_endproc
.LFE2677:
	.size	REAL8DEC_Support, .-REAL8DEC_Support
	.align	2
	.global	REAL8DEC_GetImageWidth
	.type	REAL8DEC_GetImageWidth, %function
REAL8DEC_GetImageWidth:
.LFB2678:
	.loc 1 2515 0
	.cfi_startproc
.LVL662:
	.loc 1 2518 0
	add	x0, x0, 28672
.LVL663:
	.loc 1 2521 0
	ldr	w0, [x0,2004]
	ret
	.cfi_endproc
.LFE2678:
	.size	REAL8DEC_GetImageWidth, .-REAL8DEC_GetImageWidth
	.align	2
	.global	REAL8DEC_GetImageHeight
	.type	REAL8DEC_GetImageHeight, %function
REAL8DEC_GetImageHeight:
.LFB2679:
	.loc 1 2524 0
	.cfi_startproc
.LVL664:
	.loc 1 2527 0
	add	x0, x0, 28672
.LVL665:
	.loc 1 2530 0
	ldr	w0, [x0,2008]
	ret
	.cfi_endproc
.LFE2679:
	.size	REAL8DEC_GetImageHeight, .-REAL8DEC_GetImageHeight
	.section	.rodata
	.align	3
.LANCHOR0 = . + 0
	.type	gs_VLCDecodeTable, %object
	.size	gs_VLCDecodeTable, 256
gs_VLCDecodeTable:
	.byte	-128
	.byte	-127
	.byte	112
	.byte	112
	.byte	-126
	.byte	-125
	.byte	113
	.byte	113
	.byte	80
	.byte	80
	.byte	80
	.byte	80
	.byte	80
	.byte	80
	.byte	80
	.byte	80
	.byte	-124
	.byte	-123
	.byte	114
	.byte	114
	.byte	-122
	.byte	-121
	.byte	115
	.byte	115
	.byte	81
	.byte	81
	.byte	81
	.byte	81
	.byte	81
	.byte	81
	.byte	81
	.byte	81
	.byte	48
	.byte	48
	.byte	48
	.byte	48
	.byte	48
	.byte	48
	.byte	48
	.byte	48
	.byte	48
	.byte	48
	.byte	48
	.byte	48
	.byte	48
	.byte	48
	.byte	48
	.byte	48
	.byte	48
	.byte	48
	.byte	48
	.byte	48
	.byte	48
	.byte	48
	.byte	48
	.byte	48
	.byte	48
	.byte	48
	.byte	48
	.byte	48
	.byte	48
	.byte	48
	.byte	48
	.byte	48
	.byte	-120
	.byte	-119
	.byte	116
	.byte	116
	.byte	-118
	.byte	-117
	.byte	117
	.byte	117
	.byte	82
	.byte	82
	.byte	82
	.byte	82
	.byte	82
	.byte	82
	.byte	82
	.byte	82
	.byte	-116
	.byte	-115
	.byte	118
	.byte	118
	.byte	-114
	.byte	-113
	.byte	119
	.byte	119
	.byte	83
	.byte	83
	.byte	83
	.byte	83
	.byte	83
	.byte	83
	.byte	83
	.byte	83
	.byte	49
	.byte	49
	.byte	49
	.byte	49
	.byte	49
	.byte	49
	.byte	49
	.byte	49
	.byte	49
	.byte	49
	.byte	49
	.byte	49
	.byte	49
	.byte	49
	.byte	49
	.byte	49
	.byte	49
	.byte	49
	.byte	49
	.byte	49
	.byte	49
	.byte	49
	.byte	49
	.byte	49
	.byte	49
	.byte	49
	.byte	49
	.byte	49
	.byte	49
	.byte	49
	.byte	49
	.byte	49
	.byte	16
	.byte	16
	.byte	16
	.byte	16
	.byte	16
	.byte	16
	.byte	16
	.byte	16
	.byte	16
	.byte	16
	.byte	16
	.byte	16
	.byte	16
	.byte	16
	.byte	16
	.byte	16
	.byte	16
	.byte	16
	.byte	16
	.byte	16
	.byte	16
	.byte	16
	.byte	16
	.byte	16
	.byte	16
	.byte	16
	.byte	16
	.byte	16
	.byte	16
	.byte	16
	.byte	16
	.byte	16
	.byte	16
	.byte	16
	.byte	16
	.byte	16
	.byte	16
	.byte	16
	.byte	16
	.byte	16
	.byte	16
	.byte	16
	.byte	16
	.byte	16
	.byte	16
	.byte	16
	.byte	16
	.byte	16
	.byte	16
	.byte	16
	.byte	16
	.byte	16
	.byte	16
	.byte	16
	.byte	16
	.byte	16
	.byte	16
	.byte	16
	.byte	16
	.byte	16
	.byte	16
	.byte	16
	.byte	16
	.byte	16
	.byte	16
	.byte	16
	.byte	16
	.byte	16
	.byte	16
	.byte	16
	.byte	16
	.byte	16
	.byte	16
	.byte	16
	.byte	16
	.byte	16
	.byte	16
	.byte	16
	.byte	16
	.byte	16
	.byte	16
	.byte	16
	.byte	16
	.byte	16
	.byte	16
	.byte	16
	.byte	16
	.byte	16
	.byte	16
	.byte	16
	.byte	16
	.byte	16
	.byte	16
	.byte	16
	.byte	16
	.byte	16
	.byte	16
	.byte	16
	.byte	16
	.byte	16
	.byte	16
	.byte	16
	.byte	16
	.byte	16
	.byte	16
	.byte	16
	.byte	16
	.byte	16
	.byte	16
	.byte	16
	.byte	16
	.byte	16
	.byte	16
	.byte	16
	.byte	16
	.byte	16
	.byte	16
	.byte	16
	.byte	16
	.byte	16
	.byte	16
	.byte	16
	.byte	16
	.byte	16
	.byte	16
	.byte	16
	.byte	16
	.byte	16
	.type	MBA_FieldWidth, %object
	.size	MBA_FieldWidth, 24
MBA_FieldWidth:
	.word	6
	.word	7
	.word	9
	.word	11
	.word	13
	.word	14
	.type	GetBitsMask, %object
	.size	GetBitsMask, 100
GetBitsMask:
	.word	0
	.word	1
	.word	3
	.word	7
	.word	15
	.word	31
	.word	63
	.word	127
	.word	255
	.word	511
	.word	1023
	.word	2047
	.word	4095
	.word	8191
	.word	16383
	.word	32767
	.word	65535
	.word	131071
	.word	262143
	.word	524287
	.word	1048575
	.word	2097151
	.word	4194303
	.word	8388607
	.word	16777215
	.zero	4
	.type	s_RVVersionEncodingToMinorVersion, %object
	.size	s_RVVersionEncodingToMinorVersion, 32
s_RVVersionEncodingToMinorVersion:
	.word	2
	.word	9999
	.word	9999
	.word	9999
	.word	9999
	.word	9999
	.word	9999
	.word	9999
	.align	3
.LANCHOR1 = . + 0
	.type	__FUNCTION__.42582, %object
	.size	__FUNCTION__.42582, 16
__FUNCTION__.42582:
	.string	"REAL8DEC_Decode"
	.type	__func__.42612, %object
	.size	__func__.42612, 21
__func__.42612:
	.string	"REAL8DEC_Decode_User"
	.zero	3
	.type	__FUNCTION__.42613, %object
	.size	__FUNCTION__.42613, 21
__FUNCTION__.42613:
	.string	"REAL8DEC_Decode_User"
	.section	.rodata.str1.8,"aMS",%progbits,1
	.align	3
.LC0:
	.string	"get frame store fail!\n"
	.zero	1
.LC1:
	.string	"line: %d, pImage is NULL!\n"
	.zero	5
.LC2:
	.string	"get image buffer ok: LogicFsID = %d\n"
	.zero	3
.LC3:
	.string	"decode %pK, disp %pK, tf %pK\n"
	.zero	2
.LC4:
	.string	"image size abnormal (%dx%d) in MB\n"
	.zero	5
.LC5:
	.string	"real8 actual frame size(%dx%d) exeed max config(%dx%d)\n"
.LC6:
	.string	"-1 == VCTRL_GetChanIDByCtx() Err! \n"
	.zero	4
.LC7:
	.string	"Decoding quits at frm %d\n"
	.zero	6
.LC8:
	.string	"ERROR: frm %d, Invalid packet pointer!\n"
.LC9:
	.string	"Real8_CB_GetPictureHeader Error!\n"
	.zero	6
.LC10:
	.string	"pic width/height to large,MbWidth = %d, MbHeight = %d"
	.zero	2
.LC11:
	.string	"new seq size %d * %d\n"
	.zero	2
.LC12:
	.string	"Real8_ArrangeVHBMem err\n"
	.zero	7
.LC13:
	.string	"Fatal Error: frm%d, get image buffer failed\n"
	.zero	3
.LC14:
	.string	"dec_pts: %lld Usertag = %lld\n"
	.zero	2
.LC15:
	.string	"---------- unref %d\n"
	.zero	3
.LC16:
	.string	"++++++++++ ref %d\n"
	.zero	5
.LC17:
	.string	"%s %d unknow error!!\n"
	.zero	2
.LC18:
	.string	"CurFsID abnormal!\n"
	.zero	5
.LC19:
	.string	"dec addr: cur,cur2d,fwd,bwd,currpmv,colpmv = %pK,%pK,%pK,%pK,%pK,%pK\n"
	.zero	2
.LC20:
	.string	"parse pCur->TR: %d\n"
	.zero	4
.LC21:
	.string	"line:%d! i > (RV8_MAX_SLC_PARAM_NUM - 2)\n"
	.zero	6
.LC22:
	.string	"%s %d NULL == pCtx->pRv8DecParam!!\n"
	.zero	4
.LC23:
	.string	"%s ERROR: BsOffset(%d) >= PacketTail(%d)\n"
	.zero	6
.LC24:
	.string	"pRv8CodecInfo->BsLength = %d\n"
	.zero	2
.LC25:
	.string	"ErrRatio = %d\n"
	.zero	1
.LC26:
	.string	"DEBUG: DEC over\n"
	.zero	7
.LC27:
	.string	"insert buf %d ref %d\n"
	.text
.Letext0:
	.file 2 "/mnt/disk/jenkins/ci/workspace/chipset_pipeline_release/opensource/component_code/vendor/huawei/extra/build/build_script/kirin_kernel_release/kernel/drivers/vcodec/hi_vcodec/vdec/include/hi_type.h"
	.file 3 "/mnt/disk/jenkins/ci/workspace/chipset_pipeline_release/opensource/component_code/vendor/huawei/extra/build/build_script/kirin_kernel_release/kernel/drivers/vcodec/hi_vcodec/vdec/vfmw/vfmw_v4.0/vfmw.h"
	.file 4 "/mnt/disk/jenkins/ci/workspace/chipset_pipeline_release/opensource/component_code/vendor/huawei/extra/build/build_script/kirin_kernel_release/kernel/include/uapi/asm-generic/int-ll64.h"
	.file 5 "/mnt/disk/jenkins/ci/workspace/chipset_pipeline_release/opensource/component_code/vendor/huawei/extra/build/build_script/kirin_kernel_release/kernel/include/asm-generic/int-ll64.h"
	.file 6 "/mnt/disk/jenkins/ci/workspace/chipset_pipeline_release/opensource/component_code/vendor/huawei/extra/build/build_script/kirin_kernel_release/kernel/include/uapi/asm-generic/posix_types.h"
	.file 7 "/mnt/disk/jenkins/ci/workspace/chipset_pipeline_release/opensource/component_code/vendor/huawei/extra/build/build_script/kirin_kernel_release/kernel/include/linux/export.h"
	.file 8 "/mnt/disk/jenkins/ci/workspace/chipset_pipeline_release/opensource/component_code/vendor/huawei/extra/build/build_script/kirin_kernel_release/kernel/include/linux/types.h"
	.file 9 "/mnt/disk/jenkins/ci/workspace/chipset_pipeline_release/opensource/component_code/vendor/huawei/extra/build/build_script/kirin_kernel_release/kernel/include/asm-generic/bug.h"
	.file 10 "/mnt/disk/jenkins/ci/workspace/chipset_pipeline_release/opensource/component_code/vendor/huawei/extra/build/build_script/kirin_kernel_release/kernel/include/linux/restart_block.h"
	.file 11 "/mnt/disk/jenkins/ci/workspace/chipset_pipeline_release/opensource/component_code/vendor/huawei/extra/build/build_script/kirin_kernel_release/kernel/include/uapi/linux/time.h"
	.file 12 "/mnt/disk/jenkins/ci/workspace/chipset_pipeline_release/opensource/component_code/vendor/huawei/extra/build/build_script/kirin_kernel_release/kernel/arch/arm64/include/asm/compat.h"
	.file 13 "/mnt/disk/jenkins/ci/workspace/chipset_pipeline_release/opensource/component_code/vendor/huawei/extra/build/build_script/kirin_kernel_release/kernel/include/uapi/asm-generic/poll.h"
	.file 14 "/mnt/disk/jenkins/ci/workspace/chipset_pipeline_release/opensource/component_code/vendor/huawei/extra/build/build_script/kirin_kernel_release/kernel/arch/arm64/include/asm/thread_info.h"
	.file 15 "/mnt/disk/jenkins/ci/workspace/chipset_pipeline_release/opensource/component_code/vendor/huawei/extra/build/build_script/kirin_kernel_release/kernel/arch/arm64/include/uapi/asm/ptrace.h"
	.file 16 "/mnt/disk/jenkins/ci/workspace/chipset_pipeline_release/opensource/component_code/vendor/huawei/extra/build/build_script/kirin_kernel_release/kernel/arch/arm64/include/asm/ptrace.h"
	.file 17 "/mnt/disk/jenkins/ci/workspace/chipset_pipeline_release/opensource/component_code/vendor/huawei/extra/build/build_script/kirin_kernel_release/kernel/arch/arm64/include/asm/spinlock_types.h"
	.file 18 "/mnt/disk/jenkins/ci/workspace/chipset_pipeline_release/opensource/component_code/vendor/huawei/extra/build/build_script/kirin_kernel_release/kernel/include/linux/spinlock_types.h"
	.file 19 "/mnt/disk/jenkins/ci/workspace/chipset_pipeline_release/opensource/component_code/vendor/huawei/extra/build/build_script/kirin_kernel_release/kernel/include/linux/rwlock_types.h"
	.file 20 "/mnt/disk/jenkins/ci/workspace/chipset_pipeline_release/opensource/component_code/vendor/huawei/extra/build/build_script/kirin_kernel_release/kernel/arch/arm64/include/asm/fpsimd.h"
	.file 21 "/mnt/disk/jenkins/ci/workspace/chipset_pipeline_release/opensource/component_code/vendor/huawei/extra/build/build_script/kirin_kernel_release/kernel/include/linux/jump_label.h"
	.file 22 "/mnt/disk/jenkins/ci/workspace/chipset_pipeline_release/opensource/component_code/vendor/huawei/extra/build/build_script/kirin_kernel_release/kernel/include/asm-generic/atomic-long.h"
	.file 23 "/mnt/disk/jenkins/ci/workspace/chipset_pipeline_release/opensource/component_code/vendor/huawei/extra/build/build_script/kirin_kernel_release/kernel/arch/arm64/include/asm/hw_breakpoint.h"
	.file 24 "/mnt/disk/jenkins/ci/workspace/chipset_pipeline_release/opensource/component_code/vendor/huawei/extra/build/build_script/kirin_kernel_release/kernel/arch/arm64/include/asm/processor.h"
	.file 25 "/mnt/disk/jenkins/ci/workspace/chipset_pipeline_release/opensource/component_code/vendor/huawei/extra/build/build_script/kirin_kernel_release/kernel/include/linux/perf_event.h"
	.file 26 "/mnt/disk/jenkins/ci/workspace/chipset_pipeline_release/opensource/component_code/vendor/huawei/extra/build/build_script/kirin_kernel_release/kernel/include/linux/wait.h"
	.file 27 "/mnt/disk/jenkins/ci/workspace/chipset_pipeline_release/opensource/component_code/vendor/huawei/extra/build/build_script/kirin_kernel_release/kernel/include/linux/seqlock.h"
	.file 28 "/mnt/disk/jenkins/ci/workspace/chipset_pipeline_release/opensource/component_code/vendor/huawei/extra/build/build_script/kirin_kernel_release/kernel/include/linux/nodemask.h"
	.file 29 "/mnt/disk/jenkins/ci/workspace/chipset_pipeline_release/opensource/component_code/vendor/huawei/extra/build/build_script/kirin_kernel_release/kernel/include/linux/cpumask.h"
	.file 30 "/mnt/disk/jenkins/ci/workspace/chipset_pipeline_release/opensource/component_code/vendor/huawei/extra/build/build_script/kirin_kernel_release/kernel/include/linux/completion.h"
	.file 31 "/mnt/disk/jenkins/ci/workspace/chipset_pipeline_release/opensource/component_code/vendor/huawei/extra/build/build_script/kirin_kernel_release/kernel/include/linux/time64.h"
	.file 32 "/mnt/disk/jenkins/ci/workspace/chipset_pipeline_release/opensource/component_code/vendor/huawei/extra/build/build_script/kirin_kernel_release/kernel/include/linux/ktime.h"
	.file 33 "/mnt/disk/jenkins/ci/workspace/chipset_pipeline_release/opensource/component_code/vendor/huawei/extra/build/build_script/kirin_kernel_release/kernel/include/linux/rbtree.h"
	.file 34 "/mnt/disk/jenkins/ci/workspace/chipset_pipeline_release/opensource/component_code/vendor/huawei/extra/build/build_script/kirin_kernel_release/kernel/include/linux/osq_lock.h"
	.file 35 "/mnt/disk/jenkins/ci/workspace/chipset_pipeline_release/opensource/component_code/vendor/huawei/extra/build/build_script/kirin_kernel_release/kernel/include/linux/rwsem.h"
	.file 36 "/mnt/disk/jenkins/ci/workspace/chipset_pipeline_release/opensource/component_code/vendor/huawei/extra/build/build_script/kirin_kernel_release/kernel/include/linux/sched.h"
	.file 37 "/mnt/disk/jenkins/ci/workspace/chipset_pipeline_release/opensource/component_code/vendor/huawei/extra/build/build_script/kirin_kernel_release/kernel/include/linux/mm_types.h"
	.file 38 "/mnt/disk/jenkins/ci/workspace/chipset_pipeline_release/opensource/component_code/vendor/huawei/extra/build/build_script/kirin_kernel_release/kernel/include/linux/lockdep.h"
	.file 39 "/mnt/disk/jenkins/ci/workspace/chipset_pipeline_release/opensource/component_code/vendor/huawei/extra/build/build_script/kirin_kernel_release/kernel/include/linux/uprobes.h"
	.file 40 "/mnt/disk/jenkins/ci/workspace/chipset_pipeline_release/opensource/component_code/vendor/huawei/extra/build/build_script/kirin_kernel_release/kernel/include/linux/timer.h"
	.file 41 "/mnt/disk/jenkins/ci/workspace/chipset_pipeline_release/opensource/component_code/vendor/huawei/extra/build/build_script/kirin_kernel_release/kernel/include/linux/uidgid.h"
	.file 42 "/mnt/disk/jenkins/ci/workspace/chipset_pipeline_release/opensource/component_code/vendor/huawei/extra/build/build_script/kirin_kernel_release/kernel/include/linux/sysctl.h"
	.file 43 "/mnt/disk/jenkins/ci/workspace/chipset_pipeline_release/opensource/component_code/vendor/huawei/extra/build/build_script/kirin_kernel_release/kernel/include/linux/workqueue.h"
	.file 44 "/mnt/disk/jenkins/ci/workspace/chipset_pipeline_release/opensource/component_code/vendor/huawei/extra/build/build_script/kirin_kernel_release/kernel/arch/arm64/include/asm/pgtable-types.h"
	.file 45 "/mnt/disk/jenkins/ci/workspace/chipset_pipeline_release/opensource/component_code/vendor/huawei/extra/build/build_script/kirin_kernel_release/kernel/arch/arm64/include/asm/page.h"
	.file 46 "/mnt/disk/jenkins/ci/workspace/chipset_pipeline_release/opensource/component_code/vendor/huawei/extra/build/build_script/kirin_kernel_release/kernel/include/linux/llist.h"
	.file 47 "/mnt/disk/jenkins/ci/workspace/chipset_pipeline_release/opensource/component_code/vendor/huawei/extra/build/build_script/kirin_kernel_release/kernel/arch/arm64/include/asm/smp.h"
	.file 48 "/mnt/disk/jenkins/ci/workspace/chipset_pipeline_release/opensource/component_code/vendor/huawei/extra/build/build_script/kirin_kernel_release/kernel/arch/arm64/include/asm/mmu.h"
	.file 49 "/mnt/disk/jenkins/ci/workspace/chipset_pipeline_release/opensource/component_code/vendor/huawei/extra/build/build_script/kirin_kernel_release/kernel/include/linux/fs.h"
	.file 50 "/mnt/disk/jenkins/ci/workspace/chipset_pipeline_release/opensource/component_code/vendor/huawei/extra/build/build_script/kirin_kernel_release/kernel/include/linux/mm.h"
	.file 51 "/mnt/disk/jenkins/ci/workspace/chipset_pipeline_release/opensource/component_code/vendor/huawei/extra/build/build_script/kirin_kernel_release/kernel/include/linux/user_namespace.h"
	.file 52 "/mnt/disk/jenkins/ci/workspace/chipset_pipeline_release/opensource/component_code/vendor/huawei/extra/build/build_script/kirin_kernel_release/kernel/include/linux/mmzone.h"
	.file 53 "/mnt/disk/jenkins/ci/workspace/chipset_pipeline_release/opensource/component_code/vendor/huawei/extra/build/build_script/kirin_kernel_release/kernel/include/linux/mutex.h"
	.file 54 "/mnt/disk/jenkins/ci/workspace/chipset_pipeline_release/opensource/component_code/vendor/huawei/extra/build/build_script/kirin_kernel_release/kernel/include/linux/percpu-refcount.h"
	.file 55 "/mnt/disk/jenkins/ci/workspace/chipset_pipeline_release/opensource/component_code/vendor/huawei/extra/build/build_script/kirin_kernel_release/kernel/include/linux/shrinker.h"
	.file 56 "/mnt/disk/jenkins/ci/workspace/chipset_pipeline_release/opensource/component_code/vendor/huawei/extra/build/build_script/kirin_kernel_release/kernel/include/uapi/linux/resource.h"
	.file 57 "/mnt/disk/jenkins/ci/workspace/chipset_pipeline_release/opensource/component_code/vendor/huawei/extra/build/build_script/kirin_kernel_release/kernel/include/linux/tracepoint-defs.h"
	.file 58 "/mnt/disk/jenkins/ci/workspace/chipset_pipeline_release/opensource/component_code/vendor/huawei/extra/build/build_script/kirin_kernel_release/kernel/include/linux/vmstat.h"
	.file 59 "/mnt/disk/jenkins/ci/workspace/chipset_pipeline_release/opensource/component_code/vendor/huawei/extra/build/build_script/kirin_kernel_release/kernel/include/linux/capability.h"
	.file 60 "/mnt/disk/jenkins/ci/workspace/chipset_pipeline_release/opensource/component_code/vendor/huawei/extra/build/build_script/kirin_kernel_release/kernel/include/linux/plist.h"
	.file 61 "/mnt/disk/jenkins/ci/workspace/chipset_pipeline_release/opensource/component_code/vendor/huawei/extra/build/build_script/kirin_kernel_release/kernel/include/asm-generic/cputime_jiffies.h"
	.file 62 "/mnt/disk/jenkins/ci/workspace/chipset_pipeline_release/opensource/component_code/vendor/huawei/extra/build/build_script/kirin_kernel_release/kernel/include/uapi/asm-generic/signal.h"
	.file 63 "/mnt/disk/jenkins/ci/workspace/chipset_pipeline_release/opensource/component_code/vendor/huawei/extra/build/build_script/kirin_kernel_release/kernel/include/uapi/asm-generic/signal-defs.h"
	.file 64 "/mnt/disk/jenkins/ci/workspace/chipset_pipeline_release/opensource/component_code/vendor/huawei/extra/build/build_script/kirin_kernel_release/kernel/include/uapi/asm-generic/siginfo.h"
	.file 65 "/mnt/disk/jenkins/ci/workspace/chipset_pipeline_release/opensource/component_code/vendor/huawei/extra/build/build_script/kirin_kernel_release/kernel/include/linux/signal.h"
	.file 66 "/mnt/disk/jenkins/ci/workspace/chipset_pipeline_release/opensource/component_code/vendor/huawei/extra/build/build_script/kirin_kernel_release/kernel/include/linux/pid.h"
	.file 67 "/mnt/disk/jenkins/ci/workspace/chipset_pipeline_release/opensource/component_code/vendor/huawei/extra/build/build_script/kirin_kernel_release/kernel/include/linux/pid_namespace.h"
	.file 68 "/mnt/disk/jenkins/ci/workspace/chipset_pipeline_release/opensource/component_code/vendor/huawei/extra/build/build_script/kirin_kernel_release/kernel/include/linux/seccomp.h"
	.file 69 "/mnt/disk/jenkins/ci/workspace/chipset_pipeline_release/opensource/component_code/vendor/huawei/extra/build/build_script/kirin_kernel_release/kernel/include/linux/timerqueue.h"
	.file 70 "/mnt/disk/jenkins/ci/workspace/chipset_pipeline_release/opensource/component_code/vendor/huawei/extra/build/build_script/kirin_kernel_release/kernel/include/linux/hrtimer.h"
	.file 71 "/mnt/disk/jenkins/ci/workspace/chipset_pipeline_release/opensource/component_code/vendor/huawei/extra/build/build_script/kirin_kernel_release/kernel/include/linux/task_io_accounting.h"
	.file 72 "/mnt/disk/jenkins/ci/workspace/chipset_pipeline_release/opensource/component_code/vendor/huawei/extra/build/build_script/kirin_kernel_release/kernel/include/linux/assoc_array.h"
	.file 73 "/mnt/disk/jenkins/ci/workspace/chipset_pipeline_release/opensource/component_code/vendor/huawei/extra/build/build_script/kirin_kernel_release/kernel/include/linux/key.h"
	.file 74 "/mnt/disk/jenkins/ci/workspace/chipset_pipeline_release/opensource/component_code/vendor/huawei/extra/build/build_script/kirin_kernel_release/kernel/include/linux/cred.h"
	.file 75 "/mnt/disk/jenkins/ci/workspace/chipset_pipeline_release/opensource/component_code/vendor/huawei/extra/build/build_script/kirin_kernel_release/kernel/include/linux/idr.h"
	.file 76 "/mnt/disk/jenkins/ci/workspace/chipset_pipeline_release/opensource/component_code/vendor/huawei/extra/build/build_script/kirin_kernel_release/kernel/include/linux/rcu_sync.h"
	.file 77 "/mnt/disk/jenkins/ci/workspace/chipset_pipeline_release/opensource/component_code/vendor/huawei/extra/build/build_script/kirin_kernel_release/kernel/include/linux/percpu-rwsem.h"
	.file 78 "/mnt/disk/jenkins/ci/workspace/chipset_pipeline_release/opensource/component_code/vendor/huawei/extra/build/build_script/kirin_kernel_release/kernel/include/linux/bpf-cgroup.h"
	.file 79 "/mnt/disk/jenkins/ci/workspace/chipset_pipeline_release/opensource/component_code/vendor/huawei/extra/build/build_script/kirin_kernel_release/kernel/include/linux/cgroup-defs.h"
	.file 80 "/mnt/disk/jenkins/ci/workspace/chipset_pipeline_release/opensource/component_code/vendor/huawei/extra/build/build_script/kirin_kernel_release/kernel/include/linux/kernfs.h"
	.file 81 "/mnt/disk/jenkins/ci/workspace/chipset_pipeline_release/opensource/component_code/vendor/huawei/extra/build/build_script/kirin_kernel_release/kernel/include/linux/seq_file.h"
	.file 82 "/mnt/disk/jenkins/ci/workspace/chipset_pipeline_release/opensource/component_code/vendor/huawei/extra/build/build_script/kirin_kernel_release/kernel/include/uapi/linux/taskstats.h"
	.file 83 "/mnt/disk/jenkins/ci/workspace/chipset_pipeline_release/opensource/component_code/vendor/huawei/extra/build/build_script/kirin_kernel_release/kernel/include/linux/nsproxy.h"
	.file 84 "/mnt/disk/jenkins/ci/workspace/chipset_pipeline_release/opensource/component_code/vendor/huawei/extra/build/build_script/kirin_kernel_release/kernel/include/linux/compat.h"
	.file 85 "/mnt/disk/jenkins/ci/workspace/chipset_pipeline_release/opensource/component_code/vendor/huawei/extra/build/build_script/kirin_kernel_release/kernel/include/linux/stat.h"
	.file 86 "/mnt/disk/jenkins/ci/workspace/chipset_pipeline_release/opensource/component_code/vendor/huawei/extra/build/build_script/kirin_kernel_release/kernel/include/uapi/linux/elf.h"
	.file 87 "/mnt/disk/jenkins/ci/workspace/chipset_pipeline_release/opensource/component_code/vendor/huawei/extra/build/build_script/kirin_kernel_release/kernel/include/linux/kobject_ns.h"
	.file 88 "/mnt/disk/jenkins/ci/workspace/chipset_pipeline_release/opensource/component_code/vendor/huawei/extra/build/build_script/kirin_kernel_release/kernel/include/linux/sysfs.h"
	.file 89 "/mnt/disk/jenkins/ci/workspace/chipset_pipeline_release/opensource/component_code/vendor/huawei/extra/build/build_script/kirin_kernel_release/kernel/include/linux/kobject.h"
	.file 90 "/mnt/disk/jenkins/ci/workspace/chipset_pipeline_release/opensource/component_code/vendor/huawei/extra/build/build_script/kirin_kernel_release/kernel/include/linux/kref.h"
	.file 91 "/mnt/disk/jenkins/ci/workspace/chipset_pipeline_release/opensource/component_code/vendor/huawei/extra/build/build_script/kirin_kernel_release/kernel/include/linux/moduleparam.h"
	.file 92 "/mnt/disk/jenkins/ci/workspace/chipset_pipeline_release/opensource/component_code/vendor/huawei/extra/build/build_script/kirin_kernel_release/kernel/include/linux/module.h"
	.file 93 "/mnt/disk/jenkins/ci/workspace/chipset_pipeline_release/opensource/component_code/vendor/huawei/extra/build/build_script/kirin_kernel_release/kernel/include/linux/rbtree_latch.h"
	.file 94 "/mnt/disk/jenkins/ci/workspace/chipset_pipeline_release/opensource/component_code/vendor/huawei/extra/build/build_script/kirin_kernel_release/kernel/arch/arm64/include/asm/module.h"
	.file 95 "/mnt/disk/jenkins/ci/workspace/chipset_pipeline_release/opensource/component_code/vendor/huawei/extra/build/build_script/kirin_kernel_release/kernel/arch/arm64/include/asm/uaccess.h"
	.file 96 "/mnt/disk/jenkins/ci/workspace/chipset_pipeline_release/opensource/component_code/vendor/huawei/extra/build/build_script/kirin_kernel_release/kernel/include/linux/trace_events.h"
	.file 97 "/mnt/disk/jenkins/ci/workspace/chipset_pipeline_release/opensource/component_code/vendor/huawei/extra/build/build_script/kirin_kernel_release/kernel/include/linux/tracepoint.h"
	.file 98 "/mnt/disk/jenkins/ci/workspace/chipset_pipeline_release/opensource/component_code/vendor/huawei/extra/build/build_script/kirin_kernel_release/kernel/include/linux/percpu_counter.h"
	.file 99 "/mnt/disk/jenkins/ci/workspace/chipset_pipeline_release/opensource/component_code/vendor/huawei/extra/build/build_script/kirin_kernel_release/kernel/include/linux/quota.h"
	.file 100 "/mnt/disk/jenkins/ci/workspace/chipset_pipeline_release/opensource/component_code/vendor/huawei/extra/build/build_script/kirin_kernel_release/kernel/include/linux/projid.h"
	.file 101 "/mnt/disk/jenkins/ci/workspace/chipset_pipeline_release/opensource/component_code/vendor/huawei/extra/build/build_script/kirin_kernel_release/kernel/include/linux/path.h"
	.file 102 "/mnt/disk/jenkins/ci/workspace/chipset_pipeline_release/opensource/component_code/vendor/huawei/extra/build/build_script/kirin_kernel_release/kernel/include/linux/list_bl.h"
	.file 103 "/mnt/disk/jenkins/ci/workspace/chipset_pipeline_release/opensource/component_code/vendor/huawei/extra/build/build_script/kirin_kernel_release/kernel/include/linux/lockref.h"
	.file 104 "/mnt/disk/jenkins/ci/workspace/chipset_pipeline_release/opensource/component_code/vendor/huawei/extra/build/build_script/kirin_kernel_release/kernel/include/linux/dcache.h"
	.file 105 "/mnt/disk/jenkins/ci/workspace/chipset_pipeline_release/opensource/component_code/vendor/huawei/extra/build/build_script/kirin_kernel_release/kernel/include/linux/list_lru.h"
	.file 106 "/mnt/disk/jenkins/ci/workspace/chipset_pipeline_release/opensource/component_code/vendor/huawei/extra/build/build_script/kirin_kernel_release/kernel/include/linux/radix-tree.h"
	.file 107 "/mnt/disk/jenkins/ci/workspace/chipset_pipeline_release/opensource/component_code/vendor/huawei/extra/build/build_script/kirin_kernel_release/kernel/include/uapi/linux/fiemap.h"
	.file 108 "/mnt/disk/jenkins/ci/workspace/chipset_pipeline_release/opensource/component_code/vendor/huawei/extra/build/build_script/kirin_kernel_release/kernel/include/linux/migrate_mode.h"
	.file 109 "/mnt/disk/jenkins/ci/workspace/chipset_pipeline_release/opensource/component_code/vendor/huawei/extra/build/build_script/kirin_kernel_release/kernel/include/linux/bvec.h"
	.file 110 "/mnt/disk/jenkins/ci/workspace/chipset_pipeline_release/opensource/component_code/vendor/huawei/extra/build/build_script/kirin_kernel_release/kernel/include/linux/delayed_call.h"
	.file 111 "/mnt/disk/jenkins/ci/workspace/chipset_pipeline_release/opensource/component_code/vendor/huawei/extra/build/build_script/kirin_kernel_release/kernel/include/linux/uio.h"
	.file 112 "/mnt/disk/jenkins/ci/workspace/chipset_pipeline_release/opensource/component_code/vendor/huawei/extra/build/build_script/kirin_kernel_release/kernel/include/linux/nfs_fs_i.h"
	.file 113 "/mnt/disk/jenkins/ci/workspace/chipset_pipeline_release/opensource/component_code/vendor/huawei/extra/build/build_script/kirin_kernel_release/kernel/include/linux/poll.h"
	.file 114 "/mnt/disk/jenkins/ci/workspace/chipset_pipeline_release/opensource/component_code/vendor/huawei/extra/build/build_script/kirin_kernel_release/kernel/include/linux/seq_buf.h"
	.file 115 "/mnt/disk/jenkins/ci/workspace/chipset_pipeline_release/opensource/component_code/vendor/huawei/extra/build/build_script/kirin_kernel_release/kernel/include/linux/trace_seq.h"
	.file 116 "/mnt/disk/jenkins/ci/workspace/chipset_pipeline_release/opensource/component_code/vendor/huawei/extra/build/build_script/kirin_kernel_release/kernel/include/uapi/linux/perf_event.h"
	.file 117 "/mnt/disk/jenkins/ci/workspace/chipset_pipeline_release/opensource/component_code/vendor/huawei/extra/build/build_script/kirin_kernel_release/kernel/include/asm-generic/local.h"
	.file 118 "/mnt/disk/jenkins/ci/workspace/chipset_pipeline_release/opensource/component_code/vendor/huawei/extra/build/build_script/kirin_kernel_release/kernel/include/asm-generic/local64.h"
	.file 119 "/mnt/disk/jenkins/ci/workspace/chipset_pipeline_release/opensource/component_code/vendor/huawei/extra/build/build_script/kirin_kernel_release/kernel/include/linux/cgroup.h"
	.file 120 "/mnt/disk/jenkins/ci/workspace/chipset_pipeline_release/opensource/component_code/vendor/huawei/extra/build/build_script/kirin_kernel_release/kernel/include/linux/ns_common.h"
	.file 121 "/mnt/disk/jenkins/ci/workspace/chipset_pipeline_release/opensource/component_code/vendor/huawei/extra/build/build_script/kirin_kernel_release/kernel/include/uapi/linux/uio.h"
	.file 122 "/mnt/disk/jenkins/ci/workspace/chipset_pipeline_release/opensource/component_code/vendor/huawei/extra/build/build_script/kirin_kernel_release/kernel/include/linux/klist.h"
	.file 123 "/mnt/disk/jenkins/ci/workspace/chipset_pipeline_release/opensource/component_code/vendor/huawei/extra/build/build_script/kirin_kernel_release/kernel/include/linux/pinctrl/devinfo.h"
	.file 124 "/mnt/disk/jenkins/ci/workspace/chipset_pipeline_release/opensource/component_code/vendor/huawei/extra/build/build_script/kirin_kernel_release/kernel/include/linux/pm.h"
	.file 125 "/mnt/disk/jenkins/ci/workspace/chipset_pipeline_release/opensource/component_code/vendor/huawei/extra/build/build_script/kirin_kernel_release/kernel/include/linux/device.h"
	.file 126 "/mnt/disk/jenkins/ci/workspace/chipset_pipeline_release/opensource/component_code/vendor/huawei/extra/build/build_script/kirin_kernel_release/kernel/include/linux/pm_wakeup.h"
	.file 127 "/mnt/disk/jenkins/ci/workspace/chipset_pipeline_release/opensource/component_code/vendor/huawei/extra/build/build_script/kirin_kernel_release/kernel/arch/arm64/include/asm/device.h"
	.file 128 "/mnt/disk/jenkins/ci/workspace/chipset_pipeline_release/opensource/component_code/vendor/huawei/extra/build/build_script/kirin_kernel_release/kernel/include/linux/irq_work.h"
	.file 129 "/mnt/disk/jenkins/ci/workspace/chipset_pipeline_release/opensource/component_code/vendor/huawei/extra/build/build_script/kirin_kernel_release/kernel/include/linux/perf_regs.h"
	.file 130 "/mnt/disk/jenkins/ci/workspace/chipset_pipeline_release/opensource/component_code/vendor/huawei/extra/build/build_script/kirin_kernel_release/kernel/drivers/vcodec/hi_vcodec/vdec/vfmw/vfmw_v4.0/firmware/common/mem_manage.h"
	.file 131 "/mnt/disk/jenkins/ci/workspace/chipset_pipeline_release/opensource/component_code/vendor/huawei/extra/build/build_script/kirin_kernel_release/kernel/drivers/vcodec/hi_vcodec/vdec/vfmw/vfmw_v4.0/firmware/driver/HiSCDV200/scd_drv.h"
	.file 132 "/mnt/disk/jenkins/ci/workspace/chipset_pipeline_release/opensource/component_code/vendor/huawei/extra/build/build_script/kirin_kernel_release/kernel/drivers/vcodec/hi_vcodec/vdec/vfmw/vfmw_v4.0/firmware/common/syn_cmn.h"
	.file 133 "/mnt/disk/jenkins/ci/workspace/chipset_pipeline_release/opensource/component_code/vendor/huawei/extra/build/build_script/kirin_kernel_release/kernel/drivers/vcodec/hi_vcodec/vdec/vfmw/vfmw_v4.0/firmware/common/decparam.h"
	.file 134 "/mnt/disk/jenkins/ci/workspace/chipset_pipeline_release/opensource/component_code/vendor/huawei/extra/build/build_script/kirin_kernel_release/kernel/drivers/vcodec/hi_vcodec/vdec/vfmw/vfmw_v4.0/firmware/common/vdm_hal.h"
	.file 135 "/mnt/disk/jenkins/ci/workspace/chipset_pipeline_release/opensource/component_code/vendor/huawei/extra/build/build_script/kirin_kernel_release/kernel/drivers/vcodec/hi_vcodec/vdec/vfmw/vfmw_v4.0/firmware/common/public.h"
	.file 136 "/mnt/disk/jenkins/ci/workspace/chipset_pipeline_release/opensource/component_code/vendor/huawei/extra/build/build_script/kirin_kernel_release/kernel/drivers/vcodec/hi_vcodec/vdec/vfmw/vfmw_v4.0/firmware/common/bitstream.h"
	.file 137 "/mnt/disk/jenkins/ci/workspace/chipset_pipeline_release/opensource/component_code/vendor/huawei/extra/build/build_script/kirin_kernel_release/kernel/drivers/vcodec/hi_vcodec/vdec/vfmw/vfmw_v4.0/firmware/common/syntax/mpeg2.h"
	.file 138 "/mnt/disk/jenkins/ci/workspace/chipset_pipeline_release/opensource/component_code/vendor/huawei/extra/build/build_script/kirin_kernel_release/kernel/drivers/vcodec/hi_vcodec/vdec/vfmw/vfmw_v4.0/firmware/common/syntax/mpeg4.h"
	.file 139 "/mnt/disk/jenkins/ci/workspace/chipset_pipeline_release/opensource/component_code/vendor/huawei/extra/build/build_script/kirin_kernel_release/kernel/drivers/vcodec/hi_vcodec/vdec/vfmw/vfmw_v4.0/firmware/common/syntax/h264.h"
	.file 140 "/mnt/disk/jenkins/ci/workspace/chipset_pipeline_release/opensource/component_code/vendor/huawei/extra/build/build_script/kirin_kernel_release/kernel/drivers/vcodec/hi_vcodec/vdec/vfmw/vfmw_v4.0/firmware/common/syntax/hevc.h"
	.file 141 "/mnt/disk/jenkins/ci/workspace/chipset_pipeline_release/opensource/component_code/vendor/huawei/extra/build/build_script/kirin_kernel_release/kernel/drivers/vcodec/hi_vcodec/vdec/vfmw/vfmw_v4.0/firmware/common/syntax/vc1.h"
	.file 142 "/mnt/disk/jenkins/ci/workspace/chipset_pipeline_release/opensource/component_code/vendor/huawei/extra/build/build_script/kirin_kernel_release/kernel/drivers/vcodec/hi_vcodec/vdec/vfmw/vfmw_v4.0/firmware/common/syntax/real8.h"
	.file 143 "/mnt/disk/jenkins/ci/workspace/chipset_pipeline_release/opensource/component_code/vendor/huawei/extra/build/build_script/kirin_kernel_release/kernel/drivers/vcodec/hi_vcodec/vdec/vfmw/vfmw_v4.0/firmware/common/syntax/real9.h"
	.file 144 "/mnt/disk/jenkins/ci/workspace/chipset_pipeline_release/opensource/component_code/vendor/huawei/extra/build/build_script/kirin_kernel_release/kernel/drivers/vcodec/hi_vcodec/vdec/vfmw/vfmw_v4.0/firmware/common/syntax/divx3.h"
	.file 145 "/mnt/disk/jenkins/ci/workspace/chipset_pipeline_release/opensource/component_code/vendor/huawei/extra/build/build_script/kirin_kernel_release/kernel/drivers/vcodec/hi_vcodec/vdec/vfmw/vfmw_v4.0/firmware/common/syntax/vp6.h"
	.file 146 "/mnt/disk/jenkins/ci/workspace/chipset_pipeline_release/opensource/component_code/vendor/huawei/extra/build/build_script/kirin_kernel_release/kernel/drivers/vcodec/hi_vcodec/vdec/vfmw/vfmw_v4.0/firmware/common/syntax/vp8.h"
	.file 147 "/mnt/disk/jenkins/ci/workspace/chipset_pipeline_release/opensource/component_code/vendor/huawei/extra/build/build_script/kirin_kernel_release/kernel/drivers/vcodec/hi_vcodec/vdec/vfmw/vfmw_v4.0/firmware/common/syntax/syntax.h"
	.file 148 "/mnt/disk/jenkins/ci/workspace/chipset_pipeline_release/opensource/component_code/vendor/huawei/extra/build/build_script/kirin_kernel_release/kernel/drivers/vcodec/hi_vcodec/vdec/vfmw/vfmw_v4.0/firmware/common/fsp.h"
	.file 149 "/mnt/disk/jenkins/ci/workspace/chipset_pipeline_release/opensource/component_code/vendor/huawei/extra/build/build_script/kirin_kernel_release/kernel/drivers/vcodec/hi_vcodec/vdec/vfmw/vfmw_v4.0/firmware/common/vfmw_ctrl.h"
	.file 150 "/mnt/disk/jenkins/ci/workspace/chipset_pipeline_release/opensource/component_code/vendor/huawei/extra/build/build_script/kirin_kernel_release/kernel/arch/arm64/include/asm/cachetype.h"
	.file 151 "/mnt/disk/jenkins/ci/workspace/chipset_pipeline_release/opensource/component_code/vendor/huawei/extra/build/build_script/kirin_kernel_release/kernel/include/linux/printk.h"
	.file 152 "/mnt/disk/jenkins/ci/workspace/chipset_pipeline_release/opensource/component_code/vendor/huawei/extra/build/build_script/kirin_kernel_release/kernel/include/linux/kernel.h"
	.file 153 "/mnt/disk/jenkins/ci/workspace/chipset_pipeline_release/opensource/component_code/vendor/huawei/extra/build/build_script/kirin_kernel_release/kernel/arch/arm64/include/asm/stack_pointer.h"
	.file 154 "/mnt/disk/jenkins/ci/workspace/chipset_pipeline_release/opensource/component_code/vendor/huawei/extra/build/build_script/kirin_kernel_release/kernel/arch/arm64/include/asm/hwcap.h"
	.file 155 "/mnt/disk/jenkins/ci/workspace/chipset_pipeline_release/opensource/component_code/vendor/huawei/extra/build/build_script/kirin_kernel_release/kernel/arch/arm64/include/asm/cpufeature.h"
	.file 156 "/mnt/disk/jenkins/ci/workspace/chipset_pipeline_release/opensource/component_code/vendor/huawei/extra/build/build_script/kirin_kernel_release/kernel/arch/arm64/include/asm/virt.h"
	.file 157 "/mnt/disk/jenkins/ci/workspace/chipset_pipeline_release/opensource/component_code/vendor/huawei/extra/build/build_script/kirin_kernel_release/kernel/include/linux/jiffies.h"
	.file 158 "/mnt/disk/jenkins/ci/workspace/chipset_pipeline_release/opensource/component_code/vendor/huawei/extra/build/build_script/kirin_kernel_release/kernel/include/linux/highuid.h"
	.file 159 "/mnt/disk/jenkins/ci/workspace/chipset_pipeline_release/opensource/component_code/vendor/huawei/extra/build/build_script/kirin_kernel_release/kernel/arch/arm64/include/asm/memory.h"
	.file 160 "/mnt/disk/jenkins/ci/workspace/chipset_pipeline_release/opensource/component_code/vendor/huawei/extra/build/build_script/kirin_kernel_release/kernel/include/asm-generic/percpu.h"
	.file 161 "/mnt/disk/jenkins/ci/workspace/chipset_pipeline_release/opensource/component_code/vendor/huawei/extra/build/build_script/kirin_kernel_release/kernel/include/linux/debug_locks.h"
	.file 162 "/mnt/disk/jenkins/ci/workspace/chipset_pipeline_release/opensource/component_code/vendor/huawei/extra/build/build_script/kirin_kernel_release/kernel/include/asm-generic/pgtable.h"
	.file 163 "/mnt/disk/jenkins/ci/workspace/chipset_pipeline_release/opensource/component_code/vendor/huawei/extra/build/build_script/kirin_kernel_release/kernel/arch/arm64/include/asm/irq.h"
	.file 164 "/mnt/disk/jenkins/ci/workspace/chipset_pipeline_release/opensource/component_code/vendor/huawei/extra/build/build_script/kirin_kernel_release/kernel/arch/arm64/include/asm/hardirq.h"
	.file 165 "/mnt/disk/jenkins/ci/workspace/chipset_pipeline_release/opensource/component_code/vendor/huawei/extra/build/build_script/kirin_kernel_release/kernel/include/linux/slab.h"
	.file 166 "/mnt/disk/jenkins/ci/workspace/chipset_pipeline_release/opensource/component_code/vendor/huawei/extra/build/build_script/kirin_kernel_release/kernel/include/linux/interrupt.h"