	.cpu generic+fp+simd
	.file	"syntax.c"
	.text
.Ltext0:
	.cfi_sections	.debug_frame
	.align	2
	.global	InitVoQueue
	.type	InitVoQueue, %function
InitVoQueue:
.LFB2648:
	.file 1 "/mnt/disk/jenkins/ci/workspace/chipset_pipeline_release/opensource/component_code/vendor/huawei/extra/build/build_script/kirin_kernel_release/kernel/drivers/vcodec/hi_vcodec/vdec/vfmw/vfmw_v4.0/firmware/common/syntax/syntax.c"
	.loc 1 31 0
	.cfi_startproc
.LVL0:
	stp	x29, x30, [sp, -32]!
	.cfi_def_cfa_offset 32
	.cfi_offset 29, -32
	.cfi_offset 30, -24
	.loc 1 32 0
	adrp	x1, .LC0
	.loc 1 31 0
	add	x29, sp, 0
	.cfi_def_cfa_register 29
	str	x19, [sp,16]
	.cfi_offset 19, -16
	.loc 1 32 0
	add	x1, x1, :lo12:.LC0
	.loc 1 31 0
	mov	x19, x0
	.loc 1 32 0
	mov	w0, 12
.LVL1:
	bl	dprint_linux_kernel
.LVL2:
	.loc 1 45 0
	mov	w1, -1
	.loc 1 36 0
	strh	wzr, [x19,2]
	.loc 1 37 0
	strh	wzr, [x19,4]
	.loc 1 35 0
	mov	w0, 64
	.loc 1 38 0
	strh	wzr, [x19,6]
	.loc 1 35 0
	strh	w0, [x19]
	.loc 1 54 0
	mov	w0, 1
	.loc 1 39 0
	strh	wzr, [x19,8]
	.loc 1 42 0
	str	wzr, [x19,608]
	.loc 1 45 0
	str	w1, [x19,528]
	.loc 1 46 0
	str	w1, [x19,548]
	.loc 1 47 0
	str	w1, [x19,544]
	.loc 1 48 0
	str	w1, [x19,540]
	.loc 1 49 0
	str	w1, [x19,532]
	.loc 1 50 0
	str	w1, [x19,536]
	.loc 1 51 0
	str	wzr, [x19,572]
	.loc 1 54 0
	ldr	x19, [sp,16]
	.cfi_restore 19
.LVL3:
	ldp	x29, x30, [sp], 32
	.cfi_restore 30
	.cfi_restore 29
	.cfi_def_cfa 31, 0
	ret
	.cfi_endproc
.LFE2648:
	.size	InitVoQueue, .-InitVoQueue
	.align	2
	.global	PrintVoQueue
	.type	PrintVoQueue, %function
PrintVoQueue:
.LFB2649:
	.loc 1 57 0
	.cfi_startproc
.LVL4:
	stp	x29, x30, [sp, -64]!
	.cfi_def_cfa_offset 64
	.cfi_offset 29, -64
	.cfi_offset 30, -56
	.loc 1 60 0
	adrp	x1, .LC1
	.loc 1 57 0
	add	x29, sp, 0
	.cfi_def_cfa_register 29
	stp	x19, x20, [sp,16]
	.cfi_offset 19, -48
	.cfi_offset 20, -40
	mov	x20, x0
	str	x23, [sp,48]
	stp	x21, x22, [sp,32]
	.cfi_offset 23, -16
	.cfi_offset 21, -32
	.cfi_offset 22, -24
	.loc 1 60 0
	mov	w0, 1
.LVL5:
	add	x1, x1, :lo12:.LC1
	ldrh	w2, [x20,6]
	adrp	x23, .LC2
	ldrh	w3, [x20,4]
	.loc 1 74 0
	adrp	x21, .LC3
	.loc 1 60 0
	ldrh	w4, [x20,8]
	.loc 1 72 0
	add	x22, x23, :lo12:.LC2
	.loc 1 74 0
	add	x21, x21, :lo12:.LC3
	.loc 1 60 0
	bl	dprint_linux_kernel
.LVL6:
	.loc 1 63 0
	ldrh	w0, [x20,4]
	.loc 1 66 0
	ldrh	w2, [x20,8]
	.loc 1 65 0
	and	w19, w0, 63
	.loc 1 66 0
	cmp	w2, w19
	bne	.L7
	b	.L5
.L4:
	.loc 1 74 0
	uxtw	x2, w19
	mov	w0, 1
	add	x2, x2, 2
	mov	x1, x21
	ldr	x2, [x20,x2,lsl 3]
	ldr	w2, [x2,80]
	bl	dprint_linux_kernel
.LVL7:
	.loc 1 63 0
	add	w0, w19, 1
	.loc 1 66 0
	ldrh	w2, [x20,8]
	.loc 1 65 0
	and	w19, w0, 63
	.loc 1 66 0
	cmp	w2, w19
	beq	.L5
.L7:
	.loc 1 70 0
	and	w0, w0, 7
	cbnz	w0, .L4
	.loc 1 72 0
	mov	x1, x22
	mov	w0, 1
	bl	dprint_linux_kernel
.LVL8:
	b	.L4
.L5:
	.loc 1 76 0
	add	x1, x23, :lo12:.LC2
	mov	w0, 1
	bl	dprint_linux_kernel
.LVL9:
	.loc 1 79 0
	ldr	x23, [sp,48]
	.cfi_restore 23
	ldp	x19, x20, [sp,16]
	.cfi_restore 20
	.cfi_restore 19
.LVL10:
	ldp	x21, x22, [sp,32]
	.cfi_restore 22
	.cfi_restore 21
	ldp	x29, x30, [sp], 64
	.cfi_restore 30
	.cfi_restore 29
	.cfi_def_cfa 31, 0
	ret
	.cfi_endproc
.LFE2649:
	.size	PrintVoQueue, .-PrintVoQueue
	.align	2
	.global	ResetVoQueue
	.type	ResetVoQueue, %function
ResetVoQueue:
.LFB2650:
	.loc 1 82 0
	.cfi_startproc
.LVL11:
	stp	x29, x30, [sp, -32]!
	.cfi_def_cfa_offset 32
	.cfi_offset 29, -32
	.cfi_offset 30, -24
	add	x29, sp, 0
	.cfi_def_cfa_register 29
	stp	x19, x20, [sp,16]
	.cfi_offset 19, -16
	.cfi_offset 20, -8
	.loc 1 84 0
	adrp	x20, g_vfmw_osal_fun_ptr
	.loc 1 82 0
	mov	x19, x0
	.loc 1 84 0
	add	x1, x20, :lo12:g_vfmw_osal_fun_ptr
	mov	w0, 2
.LVL12:
	ldr	x1, [x1,24]
	blr	x1
.LVL13:
	.loc 1 86 0
	ldrh	w2, [x19,6]
	ldrh	w3, [x19,4]
	ldrh	w4, [x19,8]
	cmp	w2, w3
	beq	.L14
.L12:
	.loc 1 89 0
	adrp	x1, .LC4
	mov	w0, 1
	add	x1, x1, :lo12:.LC4
	bl	dprint_linux_kernel
.LVL14:
.L13:
	.loc 1 116 0
	add	x20, x20, :lo12:g_vfmw_osal_fun_ptr
	.loc 1 93 0
	strh	wzr, [x19,2]
	.loc 1 94 0
	strh	wzr, [x19,4]
	.loc 1 92 0
	mov	w0, 64
	.loc 1 95 0
	strh	wzr, [x19,6]
	.loc 1 102 0
	mov	w1, -1
	.loc 1 92 0
	strh	w0, [x19]
	.loc 1 116 0
	mov	w0, 2
	.loc 1 96 0
	strh	wzr, [x19,8]
	.loc 1 99 0
	ldr	w2, [x19,608]
	.loc 1 116 0
	ldr	x3, [x20,32]
	.loc 1 99 0
	add	w2, w2, 100
	.loc 1 102 0
	str	w1, [x19,528]
	.loc 1 99 0
	str	w2, [x19,608]
	.loc 1 103 0
	str	w1, [x19,548]
	.loc 1 104 0
	str	w1, [x19,544]
	.loc 1 105 0
	str	w1, [x19,540]
	.loc 1 106 0
	str	w1, [x19,532]
	.loc 1 107 0
	str	w1, [x19,536]
	.loc 1 112 0
	mov	x1, -1
	.loc 1 108 0
	str	wzr, [x19,572]
	.loc 1 112 0
	str	x1, [x19,592]
	.loc 1 113 0
	str	xzr, [x19,584]
	.loc 1 114 0
	str	xzr, [x19,600]
	.loc 1 116 0
	blr	x3
.LVL15:
	.loc 1 119 0
	ldp	x19, x20, [sp,16]
	.cfi_remember_state
	.cfi_restore 20
	.cfi_restore 19
.LVL16:
	ldp	x29, x30, [sp], 32
	.cfi_restore 30
	.cfi_restore 29
	.cfi_def_cfa 31, 0
	ret
.LVL17:
.L14:
	.cfi_restore_state
	.loc 1 87 0
	cmp	w2, w4
	bne	.L12
	b	.L13
	.cfi_endproc
.LFE2650:
	.size	ResetVoQueue, .-ResetVoQueue
	.align	2
	.global	ReturnImageToSyntax
	.type	ReturnImageToSyntax, %function
ReturnImageToSyntax:
.LFB2651:
	.loc 1 123 0
	.cfi_startproc
.LVL18:
	stp	x29, x30, [sp, -16]!
	.cfi_def_cfa_offset 16
	.cfi_offset 29, -16
	.cfi_offset 30, -8
	.loc 1 124 0
	cmp	w0, 16
	.loc 1 123 0
	mov	w3, w0
	add	x29, sp, 0
	.cfi_def_cfa_register 29
	.loc 1 124 0
	bhi	.L15
	mov	x0, x1
	adrp	x1, .L18
.LVL19:
	add	x1, x1, :lo12:.L18
	ldrb	w1, [x1,w3,uxtw]
	adr	x3, .Lrtx18
	add	x1, x3, w1, sxtb #2
	br	x1
.Lrtx18:
.LVL20:
	.section	.rodata
	.align	0
	.align	2
.L18:
	.byte	(.L17 - .Lrtx18) / 4
	.byte	(.L19 - .Lrtx18) / 4
	.byte	(.L20 - .Lrtx18) / 4
	.byte	(.L21 - .Lrtx18) / 4
	.byte	(.L15 - .Lrtx18) / 4
	.byte	(.L22 - .Lrtx18) / 4
	.byte	(.L15 - .Lrtx18) / 4
	.byte	(.L15 - .Lrtx18) / 4
	.byte	(.L23 - .Lrtx18) / 4
	.byte	(.L24 - .Lrtx18) / 4
	.byte	(.L25 - .Lrtx18) / 4
	.byte	(.L25 - .Lrtx18) / 4
	.byte	(.L25 - .Lrtx18) / 4
	.byte	(.L26 - .Lrtx18) / 4
	.byte	(.L15 - .Lrtx18) / 4
	.byte	(.L15 - .Lrtx18) / 4
	.byte	(.L27 - .Lrtx18) / 4
	.text
.L25:
	.loc 1 185 0
	ldr	w1, [x2,80]
	bl	VP6DEC_RecycleImage
.LVL21:
.L15:
	.loc 1 193 0
	ldp	x29, x30, [sp], 16
	.cfi_remember_state
	.cfi_restore 30
	.cfi_restore 29
	.cfi_def_cfa 31, 0
	ret
.LVL22:
.L27:
	.cfi_restore_state
	.loc 1 133 0
	ldr	w1, [x2,80]
	bl	HEVC_DECRecycleImage
.LVL23:
	.loc 1 134 0
	b	.L15
.LVL24:
.L17:
	.loc 1 128 0
	ldr	w1, [x2,80]
	bl	H264DEC_RecycleImage
.LVL25:
	.loc 1 129 0
	b	.L15
.LVL26:
.L19:
	.loc 1 158 0
	ldr	w1, [x2,80]
	bl	VC1DEC_RecycleImage
.LVL27:
	.loc 1 159 0
	b	.L15
.LVL28:
.L20:
	.loc 1 148 0
	ldr	w1, [x2,80]
	bl	MPEG4DEC_RecycleImage
.LVL29:
	.loc 1 149 0
	b	.L15
.LVL30:
.L21:
	.loc 1 143 0
	ldr	w1, [x2,80]
	bl	MPEG2DEC_RecycleImage
.LVL31:
	.loc 1 144 0
	b	.L15
.LVL32:
.L22:
	.loc 1 173 0
	ldr	w1, [x2,80]
	bl	DIVX3DEC_RecycleImage
.LVL33:
	.loc 1 174 0
	b	.L15
.LVL34:
.L23:
	.loc 1 163 0
	ldr	w1, [x2,80]
	bl	REAL8DEC_RecycleImage
.LVL35:
	.loc 1 164 0
	b	.L15
.LVL36:
.L24:
	.loc 1 168 0
	ldr	w1, [x2,80]
	bl	REAL9DEC_RecycleImage
.LVL37:
	.loc 1 169 0
	b	.L15
.LVL38:
.L26:
	.loc 1 178 0
	ldr	w1, [x2,80]
	bl	VP8DEC_RecycleImage
.LVL39:
	.loc 1 179 0
	b	.L15
	.cfi_endproc
.LFE2651:
	.size	ReturnImageToSyntax, .-ReturnImageToSyntax
	.align	2
	.global	ProduceTimeStamp
	.type	ProduceTimeStamp, %function
ProduceTimeStamp:
.LFB2652:
	.loc 1 197 0
	.cfi_startproc
.LVL40:
	stp	x29, x30, [sp, -48]!
	.cfi_def_cfa_offset 48
	.cfi_offset 29, -48
	.cfi_offset 30, -40
	.loc 1 203 0
	adrp	x4, s_pstVfmwChan
	.loc 1 197 0
	add	x29, sp, 0
	.cfi_def_cfa_register 29
	.loc 1 203 0
	add	x4, x4, :lo12:s_pstVfmwChan
	.loc 1 197 0
	stp	x19, x20, [sp,16]
	str	x21, [sp,32]
	.cfi_offset 19, -32
	.cfi_offset 20, -24
	.cfi_offset 21, -16
	.loc 1 203 0
	ldr	x0, [x4,w0,sxtw 3]
.LVL41:
	.loc 1 198 0
	ldr	x19, [x2,224]
.LVL42:
	.loc 1 203 0
	ldrsb	w0, [x0,38]
	cmp	w0, 1
	beq	.L54
	.loc 1 226 0
	ldr	x0, [x1,592]
	.loc 1 230 0
	sub	w3, w3, #8
.LVL43:
	.loc 1 226 0
	sub	x1, x19, x0
.LVL44:
	.loc 1 226 0 is_stmt 0 discriminator 1
	cmp	x1, 5
	bhi	.L41
	cmn	x0, #1
	beq	.L41
	.loc 1 230 0 is_stmt 1
	cmp	w3, 1
	.loc 1 229 0
	mov	x19, -1
	.loc 1 230 0
	bls	.L39
.LVL45:
.L30:
	.loc 1 239 0
	mov	x0, x19
	ldr	x21, [sp,32]
	.cfi_remember_state
	.cfi_restore 21
	ldp	x19, x20, [sp,16]
	.cfi_restore 20
	.cfi_restore 19
.LVL46:
	ldp	x29, x30, [sp], 48
	.cfi_restore 30
	.cfi_restore 29
	.cfi_def_cfa 31, 0
	ret
.LVL47:
.L41:
	.cfi_restore_state
	.loc 1 227 0
	cmp	w3, 1
	bhi	.L30
	.loc 1 227 0 is_stmt 0 discriminator 1
	ldr	w0, [x2,44]
	and	w0, w0, 3
	cmp	w0, 2
	bne	.L30
.L39:
	.loc 1 232 0 is_stmt 1
	mov	x19, -1
.LVL48:
	str	x19, [x2,216]
	b	.L30
.LVL49:
.L54:
	.loc 1 205 0
	sub	w3, w3, #8
.LVL50:
	cmp	w3, 1
	bhi	.L30
	mov	x20, x2
	.loc 1 208 0
	ldr	w2, [x2,44]
.LVL51:
	add	x21, x1, 528
	ldr	x6, [x21,64]
	and	w2, w2, 3
	cmp	w2, 2
	beq	.L32
	.loc 1 209 0
	cmn	x6, #1
	beq	.L33
	.loc 1 209 0 is_stmt 0 discriminator 1
	sub	x0, x19, x6
	.loc 1 209 0 discriminator 2
	cmp	x0, 5
	bls	.L32
	cmp	x19, x6
	bcc	.L32
.L33:
	.loc 1 219 0 is_stmt 1
	ldr	x0, [x20,232]
	str	x0, [x21,56]
	.loc 1 239 0
	mov	x0, x19
	.loc 1 220 0
	str	x19, [x21,64]
	.loc 1 239 0
	ldp	x19, x20, [sp,16]
	.cfi_remember_state
	.cfi_restore 19
	.cfi_restore 20
.LVL52:
	ldr	x21, [sp,32]
	.cfi_restore 21
	ldp	x29, x30, [sp], 48
	.cfi_restore 29
	.cfi_restore 30
	.cfi_def_cfa 31, 0
	ret
.LVL53:
.L32:
	.cfi_restore_state
	.loc 1 212 0
	ldr	x4, [x20,232]
	ldr	x5, [x21,56]
	cmp	x4, x5
	bhi	.L35
	ldr	x19, [x21,72]
.LVL54:
.L36:
	.loc 1 217 0
	adrp	x1, .LC5
.LVL55:
	mov	x3, x6
	add	x1, x1, :lo12:.LC5
	mov	w0, 29
	.loc 1 216 0
	add	x19, x19, x6
.LVL56:
	.loc 1 217 0
	bl	dprint_linux_kernel
.LVL57:
	b	.L33
.LVL58:
.L35:
	.loc 1 214 0
	sub	x19, x4, x5
.LVL59:
	str	x19, [x21,72]
	ldr	w2, [x20,44]
	ldr	x4, [x20,232]
	and	w2, w2, 3
	b	.L36
	.cfi_endproc
.LFE2652:
	.size	ProduceTimeStamp, .-ProduceTimeStamp
	.align	2
	.global	InsertImgToVoQueue
	.type	InsertImgToVoQueue, %function
InsertImgToVoQueue:
.LFB2653:
	.loc 1 254 0
	.cfi_startproc
.LVL60:
	stp	x29, x30, [sp, -128]!
	.cfi_def_cfa_offset 128
	.cfi_offset 29, -128
	.cfi_offset 30, -120
	add	x29, sp, 0
	.cfi_def_cfa_register 29
	stp	x21, x22, [sp,32]
	.cfi_offset 21, -96
	.cfi_offset 22, -88
	adrp	x22, __stack_chk_guard
	stp	x25, x26, [sp,64]
	.cfi_offset 25, -64
	.cfi_offset 26, -56
	mov	w25, w0
	ldr	x0, [x22,#:lo12:__stack_chk_guard]
.LVL61:
	stp	x23, x24, [sp,48]
	stp	x27, x28, [sp,80]
	stp	x19, x20, [sp,16]
	.cfi_offset 23, -80
	.cfi_offset 24, -72
	.cfi_offset 27, -48
	.cfi_offset 28, -40
	.cfi_offset 19, -112
	.cfi_offset 20, -104
	.loc 1 254 0
	str	x0, [x29,120]
	mov	x27, x4
	mov	w23, w1
	mov	x24, x2
	mov	x28, x3
	.loc 1 265 0
	cbz	x4, .L122
	.loc 1 271 0
	adrp	x20, g_vfmw_osal_fun_ptr
	mov	w0, 2
	add	x1, x20, :lo12:g_vfmw_osal_fun_ptr
	ldr	x1, [x1,24]
	blr	x1
.LVL62:
	.loc 1 276 0
	ldrh	w19, [x28,4]
	.loc 1 278 0
	ldrh	w1, [x28,8]
	.loc 1 276 0
	and	w19, w19, 63
	.loc 1 278 0
	cmp	w1, w19
	beq	.L62
	.loc 1 290 0
	adrp	x21, .LC7
	.loc 1 291 0
	mov	w26, 1000
	.loc 1 290 0
	add	x21, x21, :lo12:.LC7
	b	.L119
.L61:
	.loc 1 274 0
	add	w19, w19, 1
	.loc 1 276 0
	and	w19, w19, 63
	.loc 1 278 0
	cmp	w1, w19
	beq	.L62
.L119:
	.loc 1 283 0
	sxtw	x0, w19
	add	x0, x0, 2
	ldr	x0, [x28,x0,lsl 3]
	cbz	x0, .L61
	.loc 1 288 0
	ldr	w2, [x0,80]
	ldr	w0, [x27,80]
	cmp	w2, w0
	bne	.L61
	.loc 1 290 0
	mov	x1, x21
	mov	w0, 0
	.loc 1 274 0
	add	w19, w19, 1
	.loc 1 290 0
	bl	dprint_linux_kernel
.LVL63:
	.loc 1 291 0
	str	w26, [x27,84]
	.loc 1 276 0
	and	w19, w19, 63
	ldrh	w1, [x28,8]
	.loc 1 278 0
	cmp	w1, w19
	bne	.L119
.L62:
	.loc 1 296 0
	ldr	w2, [x27,84]
	cmp	w2, 100
	bhi	.L123
	.loc 1 296 0 is_stmt 0 discriminator 1
	ldr	w3, [x27,48]
	ldr	w4, [x27,52]
	cmp	w3, 31
	bhi	.L124
.L64:
	.loc 1 298 0 is_stmt 1
	adrp	x1, .LC8
	mov	w0, 0
	add	x1, x1, :lo12:.LC8
	bl	dprint_linux_kernel
.LVL64:
	.loc 1 304 0
	ldr	w0, [x27,84]
	cmp	w0, 1000
	beq	.L67
	.loc 1 306 0
	mov	w0, w23
	mov	x1, x24
	mov	x2, x27
	bl	ReturnImageToSyntax
.LVL65:
.L67:
	.loc 1 308 0
	add	x20, x20, :lo12:g_vfmw_osal_fun_ptr
	mov	w0, 2
	ldr	x1, [x20,32]
	blr	x1
.LVL66:
	.loc 1 309 0
	mov	w0, 1
.LVL67:
.L57:
	.loc 1 430 0
	ldr	x2, [x29,120]
	ldr	x1, [x22,#:lo12:__stack_chk_guard]
.LVL68:
	cmp	x2, x1
	bne	.L125
	ldp	x19, x20, [sp,16]
	.cfi_remember_state
	.cfi_restore 20
	.cfi_restore 19
	ldp	x21, x22, [sp,32]
	.cfi_restore 22
	.cfi_restore 21
	ldp	x23, x24, [sp,48]
	.cfi_restore 24
	.cfi_restore 23
.LVL69:
	ldp	x25, x26, [sp,64]
	.cfi_restore 26
	.cfi_restore 25
.LVL70:
	ldp	x27, x28, [sp,80]
	.cfi_restore 28
	.cfi_restore 27
.LVL71:
	ldp	x29, x30, [sp], 128
	.cfi_restore 30
	.cfi_restore 29
	.cfi_def_cfa 31, 0
	ret
.LVL72:
.L124:
	.cfi_restore_state
	.loc 1 296 0 discriminator 2
	cmp	w4, 31
	bls	.L64
	.loc 1 313 0
	ldr	x0, [x27,224]
	.loc 1 315 0
	mov	x1, x28
	mov	x2, x27
	mov	w3, w23
	.loc 1 313 0
	str	x0, [x27,216]
	.loc 1 315 0
	mov	w0, w25
	bl	ProduceTimeStamp
.LVL73:
	mov	x3, x0
	.loc 1 316 0
	ldr	x2, [x27,216]
	adrp	x1, .LC9
	.loc 1 315 0
	str	x0, [x27,224]
	.loc 1 316 0
	add	x1, x1, :lo12:.LC9
	mov	w0, 29
	bl	dprint_linux_kernel
.LVL74:
	.loc 1 330 0
	ldr	w0, [x27,56]
	cbz	w0, .L68
	.loc 1 330 0 is_stmt 0 discriminator 1
	ldr	w0, [x27,60]
	cbnz	w0, .L126
.L68:
	.loc 1 332 0 is_stmt 1
	ldr	w0, [x27,48]
	.loc 1 333 0
	ldr	w1, [x27,52]
	.loc 1 332 0
	lsr	w3, w0, 1
	.loc 1 334 0
	str	w0, [x27,56]
	.loc 1 333 0
	lsr	w2, w1, 1
	.loc 1 332 0
	str	w3, [x27,64]
	.loc 1 333 0
	str	w2, [x27,68]
	.loc 1 335 0
	str	w1, [x27,60]
.L70:
	.loc 1 339 0
	add	x19, x28, 528
	str	w0, [x19,28]
	.loc 1 350 0
	ldr	w3, [x19,8]
	.loc 1 340 0
	ldr	w0, [x27,52]
	str	w0, [x19,32]
	.loc 1 341 0
	ldr	w0, [x27,44]
	ubfx	x0, x0, 5, 3
	str	w0, [x19,36]
	.loc 1 342 0
	ldr	w0, [x27,44]
	str	w0, [x19,40]
	.loc 1 350 0
	ldr	w2, [x27,88]
	.loc 1 346 0
	ldr	w0, [x27,60]
	.loc 1 347 0
	ldr	w1, [x27,64]
	.loc 1 350 0
	cmp	w2, w3
	.loc 1 344 0
	ldr	w24, [x27,44]
.LVL75:
	.loc 1 346 0
	ldrh	w23, [x27,56]
.LVL76:
	.loc 1 347 0
	ldrh	w26, [x27,68]
	.loc 1 344 0
	ubfx	x4, x24, 14, 3
.LVL77:
	.loc 1 345 0
	ubfx	x21, x24, 8, 2
.LVL78:
	.loc 1 346 0
	orr	w23, w23, w0, lsl 16
.LVL79:
	.loc 1 347 0
	orr	w26, w26, w1, lsl 16
.LVL80:
	.loc 1 350 0
	beq	.L71
	.loc 1 352 0
	str	w2, [x19,48]
.L71:
	.loc 1 354 0
	ldr	w0, [x19,44]
	.loc 1 359 0
	adrp	x24, g_event_report
	.loc 1 354 0
	add	w1, w0, 1
	str	w1, [x19,44]
	str	w0, [x27,92]
	.loc 1 357 0
	ldr	w0, [x28,528]
	cmp	w0, w4
	beq	.L72
	.loc 1 359 0
	ldr	x5, [x24,#:lo12:g_event_report]
	cbz	x5, .L73
.LBB6:
	.loc 1 359 0 is_stmt 0 discriminator 1
	and	w0, w0, 255
	str	w4, [x29,116]
	str	w0, [x29,112]
	mov	w1, 7
	mov	w0, w25
	add	x2, x29, 112
	mov	w3, 8
	str	x4, [x29,104]
	blr	x5
.LVL81:
	ldr	x4, [x29,104]
.LVL82:
.L73:
.LBE6:
	.loc 1 360 0 is_stmt 1
	str	w4, [x28,528]
.L72:
	.loc 1 362 0
	ldr	w0, [x19,4]
	cmp	w0, w21
	beq	.L74
	.loc 1 364 0
	ldr	x4, [x24,#:lo12:g_event_report]
.LVL83:
	cbz	x4, .L75
.LBB7:
	.loc 1 364 0 is_stmt 0 discriminator 1
	add	x2, x29, 128
	mov	w1, 4
	mov	w0, w25
	mov	w3, w1
	str	w21, [x2,-16]!
	blr	x4
.LVL84:
.L75:
.LBE7:
	.loc 1 365 0 is_stmt 1
	str	w21, [x19,4]
.LVL85:
.L74:
	.loc 1 367 0
	ldr	w0, [x19,16]
	cmp	w0, w23
	beq	.L127
.L76:
	.loc 1 371 0
	ldr	x4, [x24,#:lo12:g_event_report]
.LVL86:
	.loc 1 369 0
	str	w23, [x19,16]
	.loc 1 370 0
	str	w26, [x19,20]
	.loc 1 371 0
	cbz	x4, .L77
.LBB8:
	.loc 1 371 0 is_stmt 0 discriminator 1
	ldr	w8, [x27,56]
	mov	w0, w25
	ldr	w7, [x27,60]
	mov	w1, 1
	ldr	w6, [x27,64]
	add	x2, x29, 112
	ldr	w5, [x27,68]
	mov	w3, 8
	strh	w8, [x29,112]
	strh	w7, [x29,114]
	strh	w6, [x29,116]
	strh	w5, [x29,118]
	blr	x4
.LVL87:
.L77:
.LBE8:
	.loc 1 377 0 is_stmt 1
	ldr	w3, [x27,172]
	.loc 1 386 0
	adrp	x1, .LC10
	.loc 1 375 0
	ldr	w21, [x27,168]
.LVL88:
	.loc 1 386 0
	add	x1, x1, :lo12:.LC10
	.loc 1 376 0
	ldr	w2, [x27,76]
	.loc 1 386 0
	mov	w0, 12
	.loc 1 375 0
	str	w21, [x27,136]
	.loc 1 394 0
	adrp	x23, g_VfmwChanStat
.LVL89:
	.loc 1 377 0
	str	w3, [x27,140]
	.loc 1 376 0
	add	w21, w2, w21
	.loc 1 383 0
	str	wzr, [x27,128]
	.loc 1 378 0
	add	w2, w3, w2
	.loc 1 376 0
	str	w21, [x27,144]
	.loc 1 394 0
	sxtw	x21, w25
.LVL90:
	.loc 1 378 0
	str	w2, [x27,148]
	.loc 1 386 0
	ldr	w5, [x27,80]
	ldrh	w2, [x28,4]
	ldrh	w3, [x28,6]
	ldrh	w4, [x28,8]
.LVL91:
	bl	dprint_linux_kernel
.LVL92:
	.loc 1 389 0
	ldrh	w1, [x28,8]
	.loc 1 394 0
	lsl	x3, x21, 4
	add	x3, x3, x21, lsl 2
	add	x2, x23, :lo12:g_VfmwChanStat
	.loc 1 392 0
	add	w4, w1, 1
	.loc 1 389 0
	add	x1, x1, 2
	.loc 1 394 0
	add	x2, x2, x3, lsl 4
	.loc 1 392 0
	and	w4, w4, 63
	.loc 1 394 0
	sub	x2, x2, x3
	.loc 1 398 0
	add	x3, x20, :lo12:g_vfmw_osal_fun_ptr
	.loc 1 389 0
	str	x27, [x28,x1,lsl 3]
	.loc 1 398 0
	mov	w0, 2
	.loc 1 392 0
	strh	w4, [x28,8]
	.loc 1 394 0
	ldr	w1, [x27,32]
	str	w1, [x2,20]
	.loc 1 398 0
	ldr	x2, [x3,32]
	.loc 1 396 0
	ldr	w1, [x27,80]
	add	w1, w1, w0
	str	w1, [x19,24]
	.loc 1 398 0
	blr	x2
.LVL93:
	.loc 1 401 0
	ldr	x4, [x24,#:lo12:g_event_report]
	cbz	x4, .L79
.LVL94:
	.loc 1 401 0 is_stmt 0 discriminator 1
	mov	w0, w25
	mov	w1, 5
	mov	x2, 0
	mov	w3, 0
	blr	x4
.LVL95:
.L79:
	.loc 1 403 0 is_stmt 1
	mov	w0, 8
	bl	CHECK_REC_POS_ENABLE
.LVL96:
	cbnz	w0, .L128
.L81:
	.loc 1 415 0
	lsl	x0, x21, 4
	.loc 1 416 0
	ldr	x1, [x20,#:lo12:g_vfmw_osal_fun_ptr]
	.loc 1 415 0
	add	x0, x0, x21, lsl 2
	add	x19, x23, :lo12:g_VfmwChanStat
	lsl	x20, x0, 4
	sub	x20, x20, x0
	add	x24, x19, x20
	ldr	w0, [x24,4]
	add	w0, w0, 1
	str	w0, [x24,4]
	.loc 1 416 0
	blr	x1
.LVL97:
	mov	w2, w0
	.loc 1 417 0
	ldr	w1, [x19,x20]
	.loc 1 429 0
	mov	w0, 1
	.loc 1 417 0
	sub	w1, w2, w1
.LVL98:
	.loc 1 418 0
	cmp	w1, 999
	bls	.L57
	.loc 1 420 0
	ldr	w0, [x24,4]
	cbz	w0, .L83
	.loc 1 422 0
	mov	w3, 10000
	mul	w0, w0, w3
	udiv	w1, w0, w1
.LVL99:
	str	w1, [x24,8]
.LVL100:
.L83:
	.loc 1 425 0
	lsl	x19, x21, 4
	add	x23, x23, :lo12:g_VfmwChanStat
	add	x19, x19, x21, lsl 2
	.loc 1 429 0
	mov	w0, 1
	.loc 1 425 0
	lsl	x1, x19, 4
.LVL101:
	sub	x19, x1, x19
	add	x1, x23, x19
	str	w2, [x23,x19]
	.loc 1 426 0
	str	wzr, [x1,4]
	b	.L57
.LVL102:
.L123:
	ldr	w3, [x27,48]
	ldr	w4, [x27,52]
	b	.L64
.L126:
	.loc 1 330 0 discriminator 2
	sub	w0, w23, #15
	.loc 1 330 0 is_stmt 0 discriminator 3
	cmp	w0, 1
	bls	.L86
	cbnz	w23, .L68
.L86:
	ldr	w0, [x27,48]
	b	.L70
.LVL103:
.L128:
	.loc 1 405 0 is_stmt 1
	ldr	x0, [x20,#:lo12:g_vfmw_osal_fun_ptr]
	blr	x0
.LVL104:
	.loc 1 406 0
	adrp	x1, .LANCHOR0
	adrp	x2, g_TraceFramePeriod
	add	x1, x1, :lo12:.LANCHOR0
	ldr	w3, [x2,#:lo12:g_TraceFramePeriod]
	ldr	w2, [x1,w25,sxtw 2]
	sub	w2, w0, w2
	cmp	w2, w3
	bls	.L81
	.loc 1 408 0
	str	w0, [x1,w25,sxtw 2]
	b	.L81
.LVL105:
.L127:
	.loc 1 367 0 discriminator 1
	ldr	w0, [x19,20]
	cmp	w0, w26
	bne	.L76
	b	.L77
.LVL106:
.L122:
	.loc 1 267 0
	adrp	x1, .LC6
	mov	w0, 0
	add	x1, x1, :lo12:.LC6
	bl	dprint_linux_kernel
.LVL107:
	.loc 1 268 0
	mov	w0, -2
	b	.L57
.LVL108:
.L125:
	.loc 1 430 0
	bl	__stack_chk_fail
.LVL109:
	.cfi_endproc
.LFE2653:
	.size	InsertImgToVoQueue, .-InsertImgToVoQueue
	.align	2
	.global	GetQueueImgNum
	.type	GetQueueImgNum, %function
GetQueueImgNum:
.LFB2654:
	.loc 1 445 0
	.cfi_startproc
.LVL110:
	stp	x29, x30, [sp, -48]!
	.cfi_def_cfa_offset 48
	.cfi_offset 29, -48
	.cfi_offset 30, -40
	add	x29, sp, 0
	.cfi_def_cfa_register 29
	stp	x19, x20, [sp,16]
	.cfi_offset 19, -32
	.cfi_offset 20, -24
	.loc 1 448 0
	adrp	x19, g_vfmw_osal_fun_ptr
	.loc 1 445 0
	mov	x20, x0
	.loc 1 448 0
	add	x3, x19, :lo12:g_vfmw_osal_fun_ptr
	mov	w0, 2
.LVL111:
	.loc 1 445 0
	str	x1, [x29,32]
	str	x2, [x29,40]
	.loc 1 448 0
	ldr	x3, [x3,24]
	blr	x3
.LVL112:
	.loc 1 450 0
	ldrh	w3, [x20,6]
	ldrh	w4, [x20,4]
	ldr	x2, [x29,40]
.LVL113:
	cmp	w3, w4
	ldr	x1, [x29,32]
.LVL114:
	bcc	.L130
	.loc 1 450 0 is_stmt 0 discriminator 1
	sub	w4, w3, w4
.LVL115:
.L131:
	.loc 1 453 0 is_stmt 1
	ldrh	w0, [x20,8]
	cmp	w3, w0
	bls	.L134
	.loc 1 454 0
	add	w0, w0, 64
.L134:
	.loc 1 456 0
	str	w4, [x1]
	.loc 1 459 0
	add	x19, x19, :lo12:g_vfmw_osal_fun_ptr
	.loc 1 453 0 discriminator 2
	sub	w0, w0, w3
.LVL116:
	.loc 1 457 0
	str	w0, [x2]
	.loc 1 459 0
	mov	w0, 2
.LVL117:
	ldr	x1, [x19,32]
.LVL118:
	blr	x1
.LVL119:
	.loc 1 462 0
	ldp	x19, x20, [sp,16]
	.cfi_remember_state
	.cfi_restore 20
	.cfi_restore 19
.LVL120:
	ldp	x29, x30, [sp], 48
	.cfi_restore 30
	.cfi_restore 29
	.cfi_def_cfa 31, 0
	ret
.LVL121:
.L130:
	.cfi_restore_state
	.loc 1 451 0
	add	w0, w3, 64
	.loc 1 450 0 discriminator 2
	sub	w4, w0, w4
.LVL122:
	b	.L131
	.cfi_endproc
.LFE2654:
	.size	GetQueueImgNum, .-GetQueueImgNum
	.align	2
	.global	SYNTAX_ReceiveImage
	.type	SYNTAX_ReceiveImage, %function
SYNTAX_ReceiveImage:
.LFB2655:
	.loc 1 468 0
	.cfi_startproc
.LVL123:
	stp	x29, x30, [sp, -64]!
	.cfi_def_cfa_offset 64
	.cfi_offset 29, -64
	.cfi_offset 30, -56
	add	x29, sp, 0
	.cfi_def_cfa_register 29
	stp	x19, x20, [sp,16]
	stp	x21, x22, [sp,32]
	str	x23, [sp,48]
	.cfi_offset 19, -48
	.cfi_offset 20, -40
	.cfi_offset 21, -32
	.cfi_offset 22, -24
	.cfi_offset 23, -16
	.loc 1 473 0
	cbz	x1, .L153
	cbz	x0, .L153
	.loc 1 479 0
	ldr	w2, [x0]
	cmp	w2, 16
	bls	.L158
.L153:
	.loc 1 544 0
	mov	w0, -2
.LVL124:
	b	.L136
.LVL125:
.L158:
	mov	x20, x1
	.loc 1 479 0
	adrp	x1, .L138
.LVL126:
	add	x1, x1, :lo12:.L138
	ldrb	w1, [x1,w2,uxtw]
	adr	x2, .Lrtx138
	add	x1, x2, w1, sxtb #2
	br	x1
.Lrtx138:
	.section	.rodata
	.align	0
	.align	2
.L138:
	.byte	(.L145 - .Lrtx138) / 4
	.byte	(.L145 - .Lrtx138) / 4
	.byte	(.L145 - .Lrtx138) / 4
	.byte	(.L145 - .Lrtx138) / 4
	.byte	(.L153 - .Lrtx138) / 4
	.byte	(.L145 - .Lrtx138) / 4
	.byte	(.L153 - .Lrtx138) / 4
	.byte	(.L153 - .Lrtx138) / 4
	.byte	(.L145 - .Lrtx138) / 4
	.byte	(.L145 - .Lrtx138) / 4
	.byte	(.L145 - .Lrtx138) / 4
	.byte	(.L145 - .Lrtx138) / 4
	.byte	(.L145 - .Lrtx138) / 4
	.byte	(.L145 - .Lrtx138) / 4
	.byte	(.L153 - .Lrtx138) / 4
	.byte	(.L153 - .Lrtx138) / 4
	.byte	(.L145 - .Lrtx138) / 4
	.text
.L145:
	.loc 1 540 0
	add	x0, x0, 8
.LVL127:
	bl	VCTRL_GetChanIDByCtx
.LVL128:
	.loc 1 547 0
	cmp	w0, 1
	.loc 1 540 0
	mov	w23, w0
.LVL129:
	.loc 1 547 0
	ble	.L159
	.loc 1 554 0
	adrp	x21, g_vfmw_osal_fun_ptr
	mov	w0, 2
	add	x22, x21, :lo12:g_vfmw_osal_fun_ptr
	ldr	x1, [x22,24]
	blr	x1
.LVL130:
	.loc 1 555 0
	mov	w0, w23
	bl	VCTRL_GetChanVoQue
.LVL131:
	mov	x19, x0
.LVL132:
	.loc 1 556 0
	cbz	x0, .L160
	.loc 1 564 0
	ldrh	w0, [x0,6]
	ldrh	w1, [x19,8]
	cmp	w1, w0
	beq	.L155
	.loc 1 564 0 is_stmt 0 discriminator 1
	add	x0, x0, 2
	ldr	x1, [x19,x0,lsl 3]
	cbz	x1, .L155
	.loc 1 567 0 is_stmt 1
	mov	x2, 280
	mov	x0, x20
	.loc 1 584 0
	mov	w22, 1
.LVL133:
	.loc 1 567 0
	bl	memcpy
.LVL134:
	.loc 1 569 0
	ldrh	w2, [x19,4]
	adrp	x1, .LC13
	ldrh	w3, [x19,6]
	add	x1, x1, :lo12:.LC13
	ldrh	w4, [x19,8]
	mov	w0, 12
	ldr	w5, [x20,80]
	bl	dprint_linux_kernel
.LVL135:
	.loc 1 572 0
	ldr	w2, [x20,80]
	.loc 1 579 0
	mov	w0, w23
	.loc 1 572 0
	ldr	w1, [x19,608]
	add	w1, w2, w1
	str	w1, [x20,80]
	.loc 1 575 0
	ldrh	w1, [x19,6]
	.loc 1 577 0
	ldrh	w2, [x19,8]
	.loc 1 575 0
	add	w1, w1, w22
.LVL136:
	and	w1, w1, 63
	strh	w1, [x19,6]
	.loc 1 577 0
	cmp	w2, w1
	cset	w1, eq
	str	w1, [x20,28]
	.loc 1 579 0
	bl	FSP_IsOmxBypassMode
.LVL137:
	cbnz	w0, .L161
.LVL138:
.L151:
	.loc 1 591 0
	add	x21, x21, :lo12:g_vfmw_osal_fun_ptr
	mov	w0, 2
	ldr	x1, [x21,32]
	blr	x1
.LVL139:
	.loc 1 593 0
	mov	w0, w22
.L136:
	.loc 1 594 0
	ldp	x19, x20, [sp,16]
	.cfi_remember_state
	.cfi_restore 20
	.cfi_restore 19
.LVL140:
	ldp	x21, x22, [sp,32]
	.cfi_restore 22
	.cfi_restore 21
.LVL141:
	ldr	x23, [sp,48]
	.cfi_restore 23
.LVL142:
	ldp	x29, x30, [sp], 64
	.cfi_restore 30
	.cfi_restore 29
	.cfi_def_cfa 31, 0
	ret
.LVL143:
.L155:
	.cfi_restore_state
	.loc 1 588 0
	mov	w22, -3
.LVL144:
	b	.L151
.LVL145:
.L161:
	.loc 1 581 0
	mov	w0, w23
.LVL146:
	mov	w1, w22
	add	x2, x20, 136
	bl	FSP_ExtBufHandler
.LVL147:
	b	.L151
.LVL148:
.L159:
	.loc 1 549 0
	adrp	x1, .LC11
	adrp	x2, .LANCHOR1
	mov	w0, 0
	add	x1, x1, :lo12:.LC11
	add	x2, x2, :lo12:.LANCHOR1
	mov	w3, w23
	bl	dprint_linux_kernel
.LVL149:
	.loc 1 550 0
	mov	w0, -2
	b	.L136
.LVL150:
.L160:
	.loc 1 558 0
	adrp	x1, .LC12
	adrp	x2, .LANCHOR1
	add	x1, x1, :lo12:.LC12
	add	x2, x2, :lo12:.LANCHOR1
	mov	w0, 0
.LVL151:
	bl	dprint_linux_kernel
.LVL152:
	.loc 1 559 0
	ldr	x1, [x22,32]
	mov	w0, 2
	blr	x1
.LVL153:
	.loc 1 560 0
	mov	w0, -2
	b	.L136
	.cfi_endproc
.LFE2655:
	.size	SYNTAX_ReceiveImage, .-SYNTAX_ReceiveImage
	.align	2
	.global	SYNTAX_ReleaseImage
	.type	SYNTAX_ReleaseImage, %function
SYNTAX_ReleaseImage:
.LFB2656:
	.loc 1 601 0
	.cfi_startproc
.LVL154:
	stp	x29, x30, [sp, -80]!
	.cfi_def_cfa_offset 80
	.cfi_offset 29, -80
	.cfi_offset 30, -72
	add	x29, sp, 0
	.cfi_def_cfa_register 29
	stp	x23, x24, [sp,48]
	stp	x25, x26, [sp,64]
	stp	x19, x20, [sp,16]
	stp	x21, x22, [sp,32]
	.cfi_offset 23, -32
	.cfi_offset 24, -24
	.cfi_offset 25, -16
	.cfi_offset 26, -8
	.cfi_offset 19, -64
	.cfi_offset 20, -56
	.cfi_offset 21, -48
	.cfi_offset 22, -40
	.loc 1 601 0
	mov	x26, x1
	mov	x23, x0
	.loc 1 607 0
	cbz	x1, .L241
	.loc 1 614 0
	ldr	w3, [x0]
	cmp	w3, 16
	bls	.L242
.L165:
	.loc 1 680 0
	adrp	x2, .LANCHOR1
	adrp	x1, .LC15
	add	x2, x2, :lo12:.LANCHOR1
	mov	w0, 0
	add	x1, x1, :lo12:.LC15
	add	x2, x2, 24
	bl	dprint_linux_kernel
.LVL155:
	.loc 1 681 0
	mov	w0, -2
.L237:
	.loc 1 835 0
	ldp	x19, x20, [sp,16]
	.cfi_remember_state
	.cfi_restore 20
	.cfi_restore 19
	ldp	x21, x22, [sp,32]
	.cfi_restore 22
	.cfi_restore 21
	ldp	x23, x24, [sp,48]
	.cfi_restore 24
	.cfi_restore 23
.LVL156:
	ldp	x25, x26, [sp,64]
	.cfi_restore 26
	.cfi_restore 25
.LVL157:
	ldp	x29, x30, [sp], 80
	.cfi_restore 30
	.cfi_restore 29
	.cfi_def_cfa 31, 0
	ret
.LVL158:
.L242:
	.cfi_restore_state
	.loc 1 614 0
	adrp	x0, .L167
.LVL159:
	add	x0, x0, :lo12:.L167
	ldrb	w0, [x0,w3,uxtw]
	adr	x1, .Lrtx167
	add	x0, x1, w0, sxtb #2
	br	x0
.Lrtx167:
.LVL160:
	.section	.rodata
	.align	0
	.align	2
.L167:
	.byte	(.L166 - .Lrtx167) / 4
	.byte	(.L168 - .Lrtx167) / 4
	.byte	(.L169 - .Lrtx167) / 4
	.byte	(.L170 - .Lrtx167) / 4
	.byte	(.L165 - .Lrtx167) / 4
	.byte	(.L171 - .Lrtx167) / 4
	.byte	(.L165 - .Lrtx167) / 4
	.byte	(.L165 - .Lrtx167) / 4
	.byte	(.L172 - .Lrtx167) / 4
	.byte	(.L173 - .Lrtx167) / 4
	.byte	(.L174 - .Lrtx167) / 4
	.byte	(.L174 - .Lrtx167) / 4
	.byte	(.L174 - .Lrtx167) / 4
	.byte	(.L175 - .Lrtx167) / 4
	.byte	(.L165 - .Lrtx167) / 4
	.byte	(.L165 - .Lrtx167) / 4
	.byte	(.L176 - .Lrtx167) / 4
	.text
.L176:
	.loc 1 623 0
	add	x25, x23, 57344
	add	x25, x25, 1960
.LVL161:
.L177:
	.loc 1 684 0
	adrp	x22, g_vfmw_osal_fun_ptr
	mov	w0, 2
	add	x1, x22, :lo12:g_vfmw_osal_fun_ptr
	ldr	x1, [x1,24]
	blr	x1
.LVL162:
	.loc 1 687 0
	ldr	w0, [x26,80]
	ldr	w3, [x25,608]
	sub	w3, w0, w3
	str	w3, [x26,80]
	.loc 1 692 0
	ldrh	w20, [x25,4]
	.loc 1 693 0
	ldrh	w4, [x25,6]
	.loc 1 692 0
	and	w20, w20, 63
	.loc 1 693 0
	cmp	w4, w20
	beq	.L199
	.loc 1 713 0
	adrp	x21, .LANCHOR1
	adrp	x24, .LC17
	add	x21, x21, :lo12:.LANCHOR1
	add	x24, x24, :lo12:.LC17
	add	x21, x21, 24
	b	.L225
.LVL163:
.L182:
	.loc 1 690 0
	add	w20, w20, 1
	.loc 1 692 0
	and	w20, w20, 63
	.loc 1 693 0
	cmp	w4, w20
	beq	.L243
.L225:
	.loc 1 700 0
	sxtw	x19, w20
	add	x2, x19, 2
	ldr	x2, [x25,x2,lsl 3]
	cbz	x2, .L180
	.loc 1 702 0
	ldr	w1, [x26,80]
	ldr	w0, [x2,80]
	cmp	w1, w0
	bne	.L182
	.loc 1 704 0
	mov	w5, 1
.L181:
	ldrh	w4, [x25,4]
	mov	w3, 63
	b	.L183
.L202:
	.loc 1 730 0
	mov	w20, w1
	mov	x19, x0
.L183:
	cmp	w20, wzr
	.loc 1 722 0 discriminator 1
	sub	w1, w20, #1
	csel	w1, w1, w3, ne
	.loc 1 723 0
	add	x19, x19, 2
	.loc 1 724 0
	cmp	w20, w4
	.loc 1 723 0
	sxtw	x0, w1
	add	x2, x0, 2
	ldr	x2, [x25,x2,lsl 3]
	str	x2, [x25,x19,lsl 3]
	.loc 1 724 0
	bne	.L202
	.loc 1 733 0
	add	w2, w20, 1
	.loc 1 736 0
	cmp	w5, 1
	.loc 1 734 0
	and	w2, w2, 63
	strh	w2, [x25,4]
	.loc 1 736 0
	beq	.L238
	ldrh	w4, [x25,6]
	.loc 1 690 0
	add	w20, w20, 1
	.loc 1 692 0
	and	w20, w20, 63
	.loc 1 693 0
	cmp	w4, w20
	bne	.L225
.L243:
	ldr	w3, [x26,80]
.L199:
	.loc 1 695 0
	adrp	x2, .LANCHOR1
	adrp	x1, .LC16
	add	x2, x2, :lo12:.LANCHOR1
	mov	w0, 1
	add	x1, x1, :lo12:.LC16
	add	x2, x2, 24
	.loc 1 602 0
	mov	w19, -2
	.loc 1 695 0
	bl	dprint_linux_kernel
.LVL164:
.L179:
	.loc 1 832 0
	add	x22, x22, :lo12:g_vfmw_osal_fun_ptr
	mov	w0, 2
	ldr	x1, [x22,32]
	blr	x1
.LVL165:
	.loc 1 834 0
	mov	w0, w19
	.loc 1 835 0
	ldp	x19, x20, [sp,16]
	.cfi_remember_state
	.cfi_restore 19
	.cfi_restore 20
	ldp	x21, x22, [sp,32]
	.cfi_restore 21
	.cfi_restore 22
	ldp	x23, x24, [sp,48]
	.cfi_restore 23
	.cfi_restore 24
.LVL166:
	ldp	x25, x26, [sp,64]
	.cfi_restore 25
	.cfi_restore 26
.LVL167:
	ldp	x29, x30, [sp], 80
	.cfi_restore 29
	.cfi_restore 30
	.cfi_def_cfa 31, 0
	ret
.LVL168:
.L166:
	.cfi_restore_state
	.loc 1 618 0
	add	x25, x23, 24
.LVL169:
	.loc 1 619 0
	b	.L177
.LVL170:
.L168:
	.loc 1 648 0
	add	x25, x23, 114688
	add	x25, x25, 2200
.LVL171:
	.loc 1 649 0
	b	.L177
.LVL172:
.L169:
	.loc 1 638 0
	add	x25, x23, 20480
	add	x25, x25, 2200
.LVL173:
	.loc 1 639 0
	b	.L177
.LVL174:
.L170:
	.loc 1 633 0
	add	x25, x23, 65536
	add	x25, x25, 152
.LVL175:
	.loc 1 634 0
	b	.L177
.LVL176:
.L171:
	.loc 1 663 0
	add	x25, x23, 16384
	add	x25, x25, 3184
.LVL177:
	.loc 1 664 0
	b	.L177
.LVL178:
.L172:
	.loc 1 653 0
	add	x25, x23, 28672
	add	x25, x25, 3240
.LVL179:
	.loc 1 654 0
	b	.L177
.LVL180:
.L173:
	.loc 1 658 0
	add	x25, x23, 28672
	add	x25, x25, 3216
.LVL181:
	.loc 1 659 0
	b	.L177
.LVL182:
.L174:
	.loc 1 675 0
	add	x25, x23, 12288
	add	x25, x25, 448
.LVL183:
	.loc 1 676 0
	b	.L177
.LVL184:
.L175:
	.loc 1 668 0
	add	x25, x23, 8192
	add	x25, x25, 8
.LVL185:
	.loc 1 669 0
	b	.L177
.LVL186:
.L180:
	.loc 1 713 0
	mov	w0, 0
	mov	x1, x24
	mov	x2, x21
	mov	w3, w20
	bl	dprint_linux_kernel
.LVL187:
	.loc 1 714 0
	mov	w5, 2
.LVL188:
	b	.L181
.L238:
	.loc 1 738 0
	ldrh	w3, [x25,6]
	adrp	x1, .LC18
	ldrh	w4, [x25,8]
	mov	w0, 12
	ldr	w5, [x26,80]
.LVL189:
	add	x1, x1, :lo12:.LC18
	bl	dprint_linux_kernel
.LVL190:
	.loc 1 742 0
	ldr	w3, [x23]
	cmp	w3, 16
	bls	.L244
.L184:
	.loc 1 819 0
	adrp	x20, .LANCHOR1
	adrp	x1, .LC19
	add	x2, x20, :lo12:.LANCHOR1
	mov	w0, 0
	add	x1, x1, :lo12:.LC19
	add	x2, x2, 24
	.loc 1 820 0
	mov	w19, -2
	.loc 1 819 0
	bl	dprint_linux_kernel
.LVL191:
.L200:
	.loc 1 825 0
	add	x2, x20, :lo12:.LANCHOR1
	adrp	x1, .LC20
	add	x1, x1, :lo12:.LC20
	add	x2, x2, 24
	mov	w0, 0
	bl	dprint_linux_kernel
.LVL192:
	b	.L179
.L244:
	.loc 1 742 0
	adrp	x0, .L186
	add	x0, x0, :lo12:.L186
	ldrb	w0, [x0,w3,uxtw]
	adr	x1, .Lrtx186
	add	x0, x1, w0, sxtb #2
	br	x0
.Lrtx186:
	.section	.rodata
	.align	0
	.align	2
.L186:
	.byte	(.L185 - .Lrtx186) / 4
	.byte	(.L187 - .Lrtx186) / 4
	.byte	(.L188 - .Lrtx186) / 4
	.byte	(.L189 - .Lrtx186) / 4
	.byte	(.L184 - .Lrtx186) / 4
	.byte	(.L190 - .Lrtx186) / 4
	.byte	(.L184 - .Lrtx186) / 4
	.byte	(.L184 - .Lrtx186) / 4
	.byte	(.L191 - .Lrtx186) / 4
	.byte	(.L192 - .Lrtx186) / 4
	.byte	(.L193 - .Lrtx186) / 4
	.byte	(.L193 - .Lrtx186) / 4
	.byte	(.L193 - .Lrtx186) / 4
	.byte	(.L194 - .Lrtx186) / 4
	.byte	(.L184 - .Lrtx186) / 4
	.byte	(.L184 - .Lrtx186) / 4
	.byte	(.L195 - .Lrtx186) / 4
	.text
.L195:
	.loc 1 752 0
	ldr	w1, [x26,80]
	add	x0, x23, 8
	bl	HEVC_DECRecycleImage
.LVL193:
	.loc 1 753 0
	cbnz	w0, .L197
.L196:
	.loc 1 602 0
	mov	w19, 1
	b	.L179
.L194:
	.loc 1 806 0
	ldr	w1, [x26,80]
	add	x0, x23, 8
	bl	VP8DEC_RecycleImage
.LVL194:
	.loc 1 807 0
	cmp	w0, 1
	beq	.L196
.L197:
	.loc 1 730 0
	mov	w19, -20
	adrp	x20, .LANCHOR1
	b	.L200
.L193:
	.loc 1 814 0
	ldr	w1, [x26,80]
	add	x0, x23, 8
	bl	VP6DEC_RecycleImage
.LVL195:
	.loc 1 815 0
	cmp	w0, 1
	bne	.L197
	b	.L196
.L192:
	.loc 1 794 0
	ldr	w1, [x26,80]
	add	x0, x23, 8
	bl	REAL9DEC_RecycleImage
.LVL196:
	.loc 1 795 0
	cmp	w0, 1
	bne	.L197
	b	.L196
.L191:
	.loc 1 788 0
	ldr	w1, [x26,80]
	add	x0, x23, 8
	bl	REAL8DEC_RecycleImage
.LVL197:
	.loc 1 789 0
	cmp	w0, 1
	bne	.L197
	b	.L196
.L190:
	.loc 1 800 0
	ldr	w1, [x26,80]
	add	x0, x23, 8
	bl	DIVX3DEC_RecycleImage
.LVL198:
	.loc 1 801 0
	cmp	w0, 1
	bne	.L197
	b	.L196
.L189:
	.loc 1 770 0
	ldr	w1, [x26,80]
	add	x0, x23, 8
	bl	MPEG2DEC_RecycleImage
.LVL199:
	.loc 1 771 0
	cmp	w0, 1
	bne	.L197
	b	.L196
.L188:
	.loc 1 776 0
	ldr	w1, [x26,80]
	add	x0, x23, 8
	bl	MPEG4DEC_RecycleImage
.LVL200:
	.loc 1 777 0
	cmp	w0, 1
	bne	.L197
	b	.L196
.L187:
	.loc 1 782 0
	ldr	w1, [x26,80]
	add	x0, x23, 8
	bl	VC1DEC_RecycleImage
.LVL201:
	.loc 1 783 0
	cmp	w0, 1
	bne	.L197
	b	.L196
.L185:
	.loc 1 746 0
	ldr	w1, [x26,80]
	add	x0, x23, 8
	bl	H264DEC_RecycleImage
.LVL202:
	.loc 1 747 0
	cbnz	w0, .L197
	.loc 1 602 0
	mov	w19, 1
	b	.L179
.LVL203:
.L241:
	.loc 1 609 0
	adrp	x2, .LANCHOR1
	adrp	x1, .LC14
.LVL204:
	add	x2, x2, :lo12:.LANCHOR1
	mov	w0, 0
	add	x1, x1, :lo12:.LC14
	add	x2, x2, 24
	bl	dprint_linux_kernel
.LVL205:
	.loc 1 610 0
	mov	w0, -2
	b	.L237
	.cfi_endproc
.LFE2656:
	.size	SYNTAX_ReleaseImage, .-SYNTAX_ReleaseImage
	.align	2
	.global	SYNTAX_ReturnImage
	.type	SYNTAX_ReturnImage, %function
SYNTAX_ReturnImage:
.LFB2657:
	.loc 1 838 0
	.cfi_startproc
.LVL206:
	stp	x29, x30, [sp, -32]!
	.cfi_def_cfa_offset 32
	.cfi_offset 29, -32
	.cfi_offset 30, -24
	add	x29, sp, 0
	.cfi_def_cfa_register 29
	stp	x19, x20, [sp,16]
	.cfi_offset 19, -16
	.cfi_offset 20, -8
	.loc 1 842 0
	ldr	w1, [x0]
	cmp	w1, 16
	bls	.L260
.L259:
	.loc 1 908 0
	mov	w0, -2
.LVL207:
	b	.L246
.LVL208:
.L260:
	.loc 1 842 0
	adrp	x2, .L248
	add	x2, x2, :lo12:.L248
	ldrb	w1, [x2,w1,uxtw]
	adr	x2, .Lrtx248
	add	x1, x2, w1, sxtb #2
	br	x1
.Lrtx248:
	.section	.rodata
	.align	0
	.align	2
.L248:
	.byte	(.L247 - .Lrtx248) / 4
	.byte	(.L249 - .Lrtx248) / 4
	.byte	(.L250 - .Lrtx248) / 4
	.byte	(.L251 - .Lrtx248) / 4
	.byte	(.L259 - .Lrtx248) / 4
	.byte	(.L252 - .Lrtx248) / 4
	.byte	(.L259 - .Lrtx248) / 4
	.byte	(.L259 - .Lrtx248) / 4
	.byte	(.L253 - .Lrtx248) / 4
	.byte	(.L254 - .Lrtx248) / 4
	.byte	(.L255 - .Lrtx248) / 4
	.byte	(.L255 - .Lrtx248) / 4
	.byte	(.L255 - .Lrtx248) / 4
	.byte	(.L256 - .Lrtx248) / 4
	.byte	(.L259 - .Lrtx248) / 4
	.byte	(.L259 - .Lrtx248) / 4
	.byte	(.L257 - .Lrtx248) / 4
	.text
.L247:
	.loc 1 846 0
	add	x19, x0, 24
.LVL209:
.L258:
	.loc 1 912 0
	adrp	x20, g_vfmw_osal_fun_ptr
	mov	w0, 2
.LVL210:
	add	x20, x20, :lo12:g_vfmw_osal_fun_ptr
	ldr	x1, [x20,24]
	blr	x1
.LVL211:
	.loc 1 913 0
	ldrh	w1, [x19,6]
	.loc 1 914 0
	mov	w0, 2
	.loc 1 913 0
	sub	w1, w1, #1
	and	w1, w1, 63
	strh	w1, [x19,6]
	.loc 1 914 0
	ldr	x1, [x20,32]
	blr	x1
.LVL212:
	.loc 1 916 0
	mov	w0, 1
.L246:
	.loc 1 917 0
	ldp	x19, x20, [sp,16]
	.cfi_remember_state
	.cfi_restore 20
	.cfi_restore 19
.LVL213:
	ldp	x29, x30, [sp], 32
	.cfi_restore 30
	.cfi_restore 29
	.cfi_def_cfa 31, 0
	ret
.LVL214:
.L249:
	.cfi_restore_state
	.loc 1 876 0
	add	x19, x0, 114688
	add	x19, x19, 2200
.LVL215:
	.loc 1 877 0
	b	.L258
.LVL216:
.L250:
	.loc 1 866 0
	add	x19, x0, 20480
	add	x19, x19, 2200
.LVL217:
	.loc 1 867 0
	b	.L258
.LVL218:
.L251:
	.loc 1 861 0
	add	x19, x0, 65536
	add	x19, x19, 152
.LVL219:
	.loc 1 862 0
	b	.L258
.LVL220:
.L252:
	.loc 1 891 0
	add	x19, x0, 16384
	add	x19, x19, 3184
.LVL221:
	.loc 1 892 0
	b	.L258
.LVL222:
.L253:
	.loc 1 881 0
	add	x19, x0, 28672
	add	x19, x19, 3240
.LVL223:
	.loc 1 882 0
	b	.L258
.LVL224:
.L254:
	.loc 1 886 0
	add	x19, x0, 28672
	add	x19, x19, 3216
.LVL225:
	.loc 1 887 0
	b	.L258
.LVL226:
.L255:
	.loc 1 903 0
	add	x19, x0, 12288
	add	x19, x19, 448
.LVL227:
	.loc 1 904 0
	b	.L258
.LVL228:
.L256:
	.loc 1 896 0
	add	x19, x0, 8192
	add	x19, x19, 8
.LVL229:
	.loc 1 897 0
	b	.L258
.LVL230:
.L257:
	.loc 1 851 0
	add	x19, x0, 57344
	add	x19, x19, 1960
.LVL231:
	.loc 1 852 0
	b	.L258
	.cfi_endproc
.LFE2657:
	.size	SYNTAX_ReturnImage, .-SYNTAX_ReturnImage
	.align	2
	.global	SegMan
	.type	SegMan, %function
SegMan:
.LFB2659:
	.loc 1 1375 0
	.cfi_startproc
.LVL232:
	stp	x29, x30, [sp, -48]!
	.cfi_def_cfa_offset 48
	.cfi_offset 29, -48
	.cfi_offset 30, -40
	add	x29, sp, 0
	.cfi_def_cfa_register 29
	stp	x19, x20, [sp,16]
	stp	x21, x22, [sp,32]
	.cfi_offset 19, -32
	.cfi_offset 20, -24
	.cfi_offset 21, -16
	.cfi_offset 22, -8
	.loc 1 1375 0
	mov	x19, x1
	mov	w20, w0
	.loc 1 1379 0
	cbz	x1, .L262
	.loc 1 1379 0 is_stmt 0 discriminator 1
	ldr	x0, [x1,72]
	cbz	x0, .L262
	.loc 1 1385 0 is_stmt 1
	adrp	x0, s_pstVfmwChan
	add	x0, x0, :lo12:s_pstVfmwChan
	ldr	x1, [x0,w20,sxtw 3]
	ldr	w0, [x1,1104]
	cmp	w0, 1
	beq	.L282
.L265:
	.loc 1 1396 0
	ldrb	w0, [x19,9]
	.loc 1 1395 0
	strb	wzr, [x19,408]
	.loc 1 1396 0
	cmp	w0, 1
	beq	.L283
	.loc 1 1403 0
	cbz	w0, .L284
.L281:
	.loc 1 1418 0
	mov	w0, -1
.L264:
	.loc 1 1456 0
	ldp	x19, x20, [sp,16]
	.cfi_remember_state
	.cfi_restore 20
	.cfi_restore 19
.LVL233:
	ldp	x21, x22, [sp,32]
	.cfi_restore 22
	.cfi_restore 21
	ldp	x29, x30, [sp], 48
	.cfi_restore 30
	.cfi_restore 29
	.cfi_def_cfa 31, 0
	ret
.LVL234:
.L284:
	.cfi_restore_state
	.loc 1 1405 0
	add	x0, x19, 8
	add	x22, x19, 88
	.loc 1 1406 0
	add	x21, x19, 168
	.loc 1 1405 0
	ldp	x2, x3, [x0]
	stp	x2, x3, [x22]
	ldp	x2, x3, [x0,16]
	stp	x2, x3, [x22,16]
	ldp	x2, x3, [x0,32]
	stp	x2, x3, [x22,32]
	ldp	x2, x3, [x0,48]
	stp	x2, x3, [x22,48]
	ldp	x0, x1, [x0,64]
	stp	x0, x1, [x22,64]
	.loc 1 1406 0
	stp	xzr, xzr, [x21]
	stp	xzr, xzr, [x21,16]
	stp	xzr, xzr, [x21,32]
	stp	xzr, xzr, [x21,48]
	stp	xzr, xzr, [x21,64]
	.loc 1 1407 0
	ldrb	w0, [x19,2]
	add	w0, w0, 1
	uxtb	w0, w0
	strb	w0, [x19,2]
	.loc 1 1408 0
	cmp	w0, 1
	bls	.L281
	.loc 1 1410 0
	ldr	w1, [x19,100]
	mov	w0, w20
	bl	SM_ReleaseStreamSeg
.LVL235:
	.loc 1 1411 0
	ldr	w1, [x19,180]
	mov	w0, w20
	bl	SM_ReleaseStreamSeg
.LVL236:
	.loc 1 1414 0
	adrp	x1, .LC22
	mov	w0, 1
	.loc 1 1412 0
	stp	xzr, xzr, [x22]
	stp	xzr, xzr, [x22,16]
	stp	xzr, xzr, [x22,32]
	stp	xzr, xzr, [x22,48]
	stp	xzr, xzr, [x22,64]
	.loc 1 1413 0
	stp	xzr, xzr, [x21]
	stp	xzr, xzr, [x21,16]
	stp	xzr, xzr, [x21,32]
	stp	xzr, xzr, [x21,48]
	stp	xzr, xzr, [x21,64]
	.loc 1 1414 0
	add	x1, x1, :lo12:.LC22
	bl	dprint_linux_kernel
.LVL237:
	.loc 1 1415 0
	adrp	x0, g_event_report
	ldr	x4, [x0,#:lo12:g_event_report]
	cbz	x4, .L270
	.loc 1 1415 0 is_stmt 0 discriminator 1
	mov	w0, w20
	mov	w1, 113
	mov	x2, 0
	mov	w3, 0
	blr	x4
.LVL238:
.L270:
	.loc 1 1416 0 is_stmt 1
	strb	wzr, [x19,2]
	b	.L281
.L282:
	.loc 1 1385 0 discriminator 1
	ldr	w0, [x1,1200]
	cmp	w0, 1
	bne	.L265
	.loc 1 1386 0
	ldrb	w0, [x19,408]
	cmp	w0, 1
	bne	.L265
	.loc 1 1389 0
	add	x0, x19, 88
	add	x1, x19, 248
	mov	x2, 160
	bl	memcpy
.LVL239:
	.loc 1 1390 0
	strb	wzr, [x19,408]
	.loc 1 1391 0
	mov	w0, 0
	b	.L264
.L283:
	.loc 1 1396 0 discriminator 1
	ldrb	w21, [x19,2]
	cbz	w21, .L285
	.loc 1 1420 0 discriminator 1
	cmp	w21, 1
	bne	.L281
	.loc 1 1422 0
	ldr	w0, [x1,20]
	.loc 1 1428 0
	mov	w2, 1024
	.loc 1 1430 0
	ldr	w1, [x19,96]
	.loc 1 1428 0
	cmp	w0, 6
	mov	w0, 1047552
	csel	w0, w0, w2, eq
.LVL240:
	.loc 1 1430 0
	cmp	w0, w1
	.loc 1 1432 0
	mov	w0, 22
.LVL241:
	.loc 1 1430 0
	ble	.L272
	.loc 1 1432 0
	adrp	x1, .LC23
	add	x1, x1, :lo12:.LC23
	bl	dprint_linux_kernel
.LVL242:
	.loc 1 1433 0
	ldrsw	x0, [x19,96]
	ldr	x3, [x19,72]
	ldr	x1, [x19,152]
	mov	x2, x0
	sub	x0, x3, x0
	bl	memcpy
.LVL243:
	.loc 1 1437 0
	strb	w21, [x19,89]
	.loc 1 1434 0
	ldr	w4, [x19,96]
	.loc 1 1438 0
	mov	w0, w20
	.loc 1 1435 0
	ldr	w3, [x19,12]
	.loc 1 1436 0
	ldr	w20, [x19,16]
.LVL244:
	.loc 1 1438 0
	ldr	w1, [x19,100]
	.loc 1 1435 0
	sub	w3, w3, w4
	.loc 1 1434 0
	ldr	x2, [x19,72]
	.loc 1 1436 0
	add	w20, w4, w20
	.loc 1 1434 0
	sub	x2, x2, x4, sxtw
	.loc 1 1435 0
	str	w3, [x19,92]
	.loc 1 1434 0
	str	x2, [x19,152]
	.loc 1 1436 0
	str	w20, [x19,96]
	.loc 1 1438 0
	bl	SM_ReleaseStreamSeg
.LVL245:
	.loc 1 1439 0
	ldr	w0, [x19,20]
	str	w0, [x19,100]
	.loc 1 1440 0
	add	x0, x19, 168
	stp	xzr, xzr, [x0]
	stp	xzr, xzr, [x0,16]
	stp	xzr, xzr, [x0,32]
	stp	xzr, xzr, [x0,48]
	stp	xzr, xzr, [x0,64]
.LVL246:
.L273:
	.loc 1 1450 0
	mov	w1, 1
	.loc 1 1449 0
	strb	wzr, [x19,2]
	.loc 1 1450 0
	strb	w1, [x19,408]
	.loc 1 1451 0
	add	x0, x19, 248
	add	x1, x19, 88
	mov	x2, 160
	bl	memcpy
.LVL247:
	mov	w0, 0
	b	.L264
.L285:
	.loc 1 1398 0
	add	x3, x19, 8
	add	x2, x19, 88
	.loc 1 1399 0
	add	x1, x19, 168
	.loc 1 1401 0
	mov	w0, 0
	.loc 1 1398 0
	ldp	x4, x5, [x3]
	stp	x4, x5, [x2]
	ldp	x4, x5, [x3,16]
	stp	x4, x5, [x2,16]
	ldp	x4, x5, [x3,32]
	stp	x4, x5, [x2,32]
	ldp	x4, x5, [x3,48]
	stp	x4, x5, [x2,48]
	ldp	x4, x5, [x3,64]
	stp	x4, x5, [x2,64]
	.loc 1 1399 0
	stp	xzr, xzr, [x1]
	stp	xzr, xzr, [x1,16]
	stp	xzr, xzr, [x1,32]
	stp	xzr, xzr, [x1,48]
	stp	xzr, xzr, [x1,64]
	.loc 1 1400 0
	strb	wzr, [x19,2]
	.loc 1 1401 0
	b	.L264
.L272:
	.loc 1 1445 0
	adrp	x1, .LC24
	add	x1, x1, :lo12:.LC24
	bl	dprint_linux_kernel
.LVL248:
	.loc 1 1446 0
	add	x1, x19, 8
	add	x0, x19, 168
	ldp	x2, x3, [x1]
	stp	x2, x3, [x0]
	ldp	x2, x3, [x1,16]
	stp	x2, x3, [x0,16]
	ldp	x2, x3, [x1,32]
	stp	x2, x3, [x0,32]
	ldp	x2, x3, [x1,48]
	stp	x2, x3, [x0,48]
	ldp	x2, x3, [x1,64]
	stp	x2, x3, [x0,64]
	b	.L273
.LVL249:
.L262:
	.loc 1 1381 0
	adrp	x1, .LC21
.LVL250:
	mov	w0, 1
	add	x1, x1, :lo12:.LC21
	bl	dprint_linux_kernel
.LVL251:
	.loc 1 1382 0
	mov	w0, -1
	b	.L264
	.cfi_endproc
.LFE2659:
	.size	SegMan, .-SegMan
	.align	2
	.global	DecodeStream
	.type	DecodeStream, %function
DecodeStream:
.LFB2658:
	.loc 1 923 0
	.cfi_startproc
.LVL252:
	stp	x29, x30, [sp, -112]!
	.cfi_def_cfa_offset 112
	.cfi_offset 29, -112
	.cfi_offset 30, -104
	.loc 1 939 0
	cmp	w1, 16
	.loc 1 923 0
	add	x29, sp, 0
	.cfi_def_cfa_register 29
	stp	x21, x22, [sp,32]
	.cfi_offset 21, -80
	.cfi_offset 22, -72
	adrp	x21, __stack_chk_guard
	str	x23, [sp,48]
	stp	x19, x20, [sp,16]
	.cfi_offset 23, -64
	.cfi_offset 19, -96
	.cfi_offset 20, -88
	.loc 1 923 0
	mov	x19, x0
	mov	x20, x2
	ldr	x0, [x21,#:lo12:__stack_chk_guard]
.LVL253:
	str	x0, [x29,104]
	.loc 1 939 0
	bhi	.L286
	adrp	x0, .L289
	add	x0, x0, :lo12:.L289
	ldrh	w0, [x0,w1,uxtw #1]
	adr	x1, .Lrtx289
	add	x0, x1, w0, sxth #2
	br	x0
.Lrtx289:
.LVL254:
	.section	.rodata
	.align	0
	.align	2
.L289:
	.2byte	(.L288 - .Lrtx289) / 4
	.2byte	(.L290 - .Lrtx289) / 4
	.2byte	(.L291 - .Lrtx289) / 4
	.2byte	(.L292 - .Lrtx289) / 4
	.2byte	(.L286 - .Lrtx289) / 4
	.2byte	(.L293 - .Lrtx289) / 4
	.2byte	(.L286 - .Lrtx289) / 4
	.2byte	(.L286 - .Lrtx289) / 4
	.2byte	(.L294 - .Lrtx289) / 4
	.2byte	(.L295 - .Lrtx289) / 4
	.2byte	(.L296 - .Lrtx289) / 4
	.2byte	(.L296 - .Lrtx289) / 4
	.2byte	(.L296 - .Lrtx289) / 4
	.2byte	(.L297 - .Lrtx289) / 4
	.2byte	(.L286 - .Lrtx289) / 4
	.2byte	(.L286 - .Lrtx289) / 4
	.2byte	(.L298 - .Lrtx289) / 4
	.text
.L290:
	.loc 1 1022 0
	ldr	x1, [x2]
	.loc 1 1021 0
	add	x0, x2, 114688
	.loc 1 1022 0
	ldr	w3, [x1,552]
	.loc 1 1021 0
	ldr	w22, [x0,2808]
	.loc 1 1022 0
	cmp	w3, 1
	bhi	.L363
	.loc 1 1027 0
	ldr	w0, [x1,556]
	cmp	w0, 8
	bgt	.L364
	.loc 1 1033 0
	add	x0, x2, 81920
	.loc 1 1036 0
	cmp	w3, 1
	.loc 1 1033 0
	add	x2, x0, 1496
	strb	w3, [x0,1496]
	.loc 1 1034 0
	ldr	w1, [x1,556]
	strb	w1, [x0,1498]
	.loc 1 1036 0
	beq	.L365
	.loc 1 1063 0
	ldrb	w0, [x19,10]
	cmp	w0, 1
	beq	.L366
	.loc 1 1070 0
	add	x1, x19, 8
	add	x23, x19, 88
	.loc 1 1071 0
	add	x0, x19, 168
	.loc 1 1070 0
	ldp	x4, x5, [x1]
	stp	x4, x5, [x23]
	ldp	x4, x5, [x1,16]
	stp	x4, x5, [x23,16]
	ldp	x4, x5, [x1,32]
	stp	x4, x5, [x23,32]
	ldp	x4, x5, [x1,48]
	stp	x4, x5, [x23,48]
	ldp	x4, x5, [x1,64]
	stp	x4, x5, [x23,64]
	.loc 1 1071 0
	stp	xzr, xzr, [x0]
	stp	xzr, xzr, [x0,16]
	stp	xzr, xzr, [x0,32]
	stp	xzr, xzr, [x0,48]
	stp	xzr, xzr, [x0,64]
	.loc 1 1074 0
	ldr	w0, [x19,96]
	cmp	w0, 15
	bgt	.L308
	.loc 1 1076 0
	adrp	x1, .LC27
	mov	w0, 0
	add	x1, x1, :lo12:.LC27
.L352:
	.loc 1 1094 0
	bl	dprint_linux_kernel
.LVL255:
	.loc 1 1095 0
	ldr	w1, [x19,100]
	mov	w0, w22
	bl	SM_ReleaseStreamSeg
.LVL256:
	.loc 1 1096 0
	adrp	x0, g_event_report
	ldr	x4, [x0,#:lo12:g_event_report]
	cbz	x4, .L286
	.loc 1 1096 0 is_stmt 0 discriminator 1
	mov	w0, w22
	mov	w1, 113
	mov	x2, 0
	mov	w3, 0
	blr	x4
.LVL257:
.L286:
	.loc 1 1372 0 is_stmt 1
	ldr	x1, [x29,104]
.LVL258:
	ldr	x0, [x21,#:lo12:__stack_chk_guard]
	cmp	x1, x0
	bne	.L367
	ldp	x19, x20, [sp,16]
	.cfi_remember_state
	.cfi_restore 20
	.cfi_restore 19
.LVL259:
	ldp	x21, x22, [sp,32]
	.cfi_restore 22
	.cfi_restore 21
	ldr	x23, [sp,48]
	.cfi_restore 23
	ldp	x29, x30, [sp], 112
	.cfi_restore 30
	.cfi_restore 29
	.cfi_def_cfa 31, 0
	ret
.LVL260:
.L298:
	.cfi_restore_state
	.loc 1 977 0
	mov	x0, x2
	.loc 1 970 0
	ldr	x8, [x19,24]
	.loc 1 971 0
	ldr	x7, [x19,72]
	.loc 1 977 0
	add	x1, x29, 64
	.loc 1 972 0
	ldr	w6, [x19,12]
	.loc 1 973 0
	ldr	w5, [x19,16]
	.loc 1 974 0
	ldrb	w4, [x19,9]
	.loc 1 975 0
	ldr	w3, [x19,20]
	.loc 1 976 0
	ldrb	w2, [x19,11]
	.loc 1 969 0
	ldr	w22, [x20,240]
	.loc 1 970 0
	str	x8, [x29,96]
	.loc 1 971 0
	str	x7, [x29,72]
	.loc 1 972 0
	str	w6, [x29,80]
	.loc 1 973 0
	str	w5, [x29,84]
	.loc 1 974 0
	strb	w4, [x29,64]
	.loc 1 975 0
	str	w3, [x29,88]
	.loc 1 976 0
	strb	w2, [x29,65]
	.loc 1 977 0
	bl	HEVCDEC_DecodePacket
.LVL261:
	.loc 1 978 0
	cmn	w0, #2
	cset	w0, eq
	strb	w0, [x19,1]
	.loc 1 987 0
	ldr	x0, [x20,2344]
	cbnz	x0, .L286
	.loc 1 987 0 is_stmt 0 discriminator 1
	ldrb	w0, [x20,7]
	cmp	w0, 1
	bne	.L286
	.loc 1 989 0 is_stmt 1
	mov	w0, w22
	bl	VCTRL_OutputLastFrame
.LVL262:
	.loc 1 990 0
	strb	wzr, [x20,7]
	b	.L286
.L288:
	.loc 1 943 0
	add	x2, x2, 57344
	.loc 1 944 0
	ldr	x9, [x19,24]
	.loc 1 945 0
	ldr	x8, [x19,72]
	.loc 1 951 0
	mov	x0, x20
	.loc 1 946 0
	ldr	w7, [x19,12]
	.loc 1 951 0
	add	x1, x29, 64
	.loc 1 947 0
	ldr	w6, [x19,16]
	.loc 1 948 0
	ldrb	w5, [x19,9]
	.loc 1 949 0
	ldr	w4, [x19,20]
	.loc 1 950 0
	ldrb	w3, [x19,11]
	.loc 1 943 0
	ldr	w22, [x2,668]
	.loc 1 944 0
	str	x9, [x29,96]
	.loc 1 945 0
	str	x8, [x29,72]
	.loc 1 946 0
	str	w7, [x29,80]
	.loc 1 947 0
	str	w6, [x29,84]
	.loc 1 948 0
	strb	w5, [x29,64]
	.loc 1 949 0
	str	w4, [x29,88]
	.loc 1 950 0
	strb	w3, [x29,65]
	.loc 1 951 0
	bl	H264DEC_DecodePacket
.LVL263:
	.loc 1 952 0
	cmn	w0, #2
	cset	w0, eq
	strb	w0, [x19,1]
	.loc 1 960 0
	ldr	x0, [x20,632]
	cbnz	x0, .L286
	.loc 1 960 0 is_stmt 0 discriminator 1
	add	x20, x20, 20480
.LVL264:
	ldrb	w0, [x20,1120]
	cmp	w0, 1
	bne	.L286
	.loc 1 962 0 is_stmt 1
	mov	w0, w22
	bl	VCTRL_OutputLastFrame
.LVL265:
	.loc 1 963 0
	strb	wzr, [x20,1120]
	b	.L286
.LVL266:
.L291:
	.loc 1 1142 0
	add	x1, x2, 20480
	.loc 1 1143 0
	mov	x0, x2
	.loc 1 1142 0
	ldr	w22, [x1,2808]
	.loc 1 1143 0
	bl	MP4_GetPacketState
.LVL267:
	cmp	w0, 3
	beq	.L368
.L314:
	.loc 1 1153 0
	mov	w0, w22
	mov	x1, x19
	bl	SegMan
.LVL268:
	.loc 1 1154 0
	cbz	w0, .L369
.L316:
	.loc 1 1160 0
	ldr	x0, [x20,1040]
	cbnz	x0, .L286
	.loc 1 1160 0 is_stmt 0 discriminator 1
	add	x20, x20, 40960
.LVL269:
	ldrb	w0, [x20,2352]
	cmp	w0, 1
	bne	.L286
	.loc 1 1162 0 is_stmt 1
	mov	w0, w22
	bl	VCTRL_OutputLastFrame
.LVL270:
	.loc 1 1163 0
	strb	wzr, [x20,2352]
	b	.L286
.LVL271:
.L292:
	.loc 1 1104 0
	add	x22, x2, 86016
	.loc 1 1105 0
	mov	x0, x2
	.loc 1 1104 0
	ldr	w23, [x22,264]
	.loc 1 1105 0
	bl	MP2_GetPacketState
.LVL272:
	cmp	w0, 2
	beq	.L370
.L310:
	.loc 1 1115 0
	mov	w0, w23
	mov	x1, x19
	bl	SegMan
.LVL273:
	.loc 1 1116 0
	cbz	w0, .L371
.L312:
	.loc 1 1132 0
	ldr	x0, [x20,8]
	cbnz	x0, .L286
	.loc 1 1132 0 is_stmt 0 discriminator 1
	ldrb	w0, [x22,282]
	cmp	w0, 1
	bne	.L286
	.loc 1 1134 0 is_stmt 1
	mov	w0, w23
	bl	VCTRL_OutputLastFrame
.LVL274:
	.loc 1 1135 0
	strb	wzr, [x22,282]
	b	.L286
.L293:
	.loc 1 1278 0
	ldrb	w1, [x19,10]
	.loc 1 1277 0
	add	x0, x2, 36864
	.loc 1 1278 0
	cmp	w1, 1
	.loc 1 1277 0
	ldr	w23, [x0,3296]
	.loc 1 1278 0
	beq	.L349
	.loc 1 1284 0
	add	x3, x19, 8
	add	x22, x19, 88
	.loc 1 1285 0
	add	x2, x19, 168
	.loc 1 1284 0
	ldp	x0, x1, [x3]
	stp	x0, x1, [x22]
	.loc 1 1287 0
	mov	x0, x20
	mov	x1, x22
	.loc 1 1284 0
	ldp	x4, x5, [x3,16]
	stp	x4, x5, [x22,16]
	ldp	x4, x5, [x3,32]
	stp	x4, x5, [x22,32]
	ldp	x4, x5, [x3,48]
	stp	x4, x5, [x22,48]
	ldp	x4, x5, [x3,64]
	stp	x4, x5, [x22,64]
	.loc 1 1285 0
	stp	xzr, xzr, [x2]
	stp	xzr, xzr, [x2,16]
	stp	xzr, xzr, [x2,32]
	stp	xzr, xzr, [x2,48]
	stp	xzr, xzr, [x2,64]
	.loc 1 1287 0
	bl	DIVX3DEC_Decode
.LVL275:
.L359:
	.loc 1 1350 0
	cmn	w0, #2
	cset	w0, eq
	strb	w0, [x19,1]
	.loc 1 1359 0
	ldr	x0, [x20,8]
	cbnz	x0, .L286
	.loc 1 1361 0
	stp	xzr, xzr, [x22]
	stp	xzr, xzr, [x22,16]
	stp	xzr, xzr, [x22,32]
	stp	xzr, xzr, [x22,48]
	stp	xzr, xzr, [x22,64]
	stp	xzr, xzr, [x22,80]
	stp	xzr, xzr, [x22,96]
	stp	xzr, xzr, [x22,112]
	stp	xzr, xzr, [x22,128]
	stp	xzr, xzr, [x22,144]
	.loc 1 1362 0
	mov	w0, w23
	ldr	w1, [x19,20]
	bl	SM_ReleaseStreamSeg
.LVL276:
	.loc 1 1363 0
	adrp	x0, g_event_report
	ldr	x4, [x0,#:lo12:g_event_report]
	cbz	x4, .L286
	.loc 1 1363 0 is_stmt 0 discriminator 1
	mov	w0, w23
	mov	w1, 113
	mov	x2, 0
	mov	w3, 0
	blr	x4
.LVL277:
	b	.L286
.L294:
	.loc 1 1199 0 is_stmt 1
	ldrb	w1, [x19,10]
	.loc 1 1198 0
	add	x0, x2, 49152
	.loc 1 1199 0
	cmp	w1, 1
	.loc 1 1198 0
	ldr	w23, [x0,3352]
	.loc 1 1199 0
	beq	.L349
	.loc 1 1206 0
	add	x1, x19, 8
	add	x22, x19, 88
	.loc 1 1207 0
	add	x0, x19, 168
	.loc 1 1206 0
	ldp	x2, x3, [x1]
	stp	x2, x3, [x22]
	ldp	x2, x3, [x1,16]
	stp	x2, x3, [x22,16]
	ldp	x2, x3, [x1,32]
	stp	x2, x3, [x22,32]
	ldp	x2, x3, [x1,48]
	stp	x2, x3, [x22,48]
	ldp	x2, x3, [x1,64]
	stp	x2, x3, [x22,64]
	.loc 1 1207 0
	stp	xzr, xzr, [x0]
	stp	xzr, xzr, [x0,16]
	stp	xzr, xzr, [x0,32]
	stp	xzr, xzr, [x0,48]
	stp	xzr, xzr, [x0,64]
	.loc 1 1210 0
	adrp	x0, s_pstVfmwChan
	.loc 1 1212 0
	mov	x1, x22
	.loc 1 1210 0
	add	x0, x0, :lo12:s_pstVfmwChan
	ldr	x0, [x0,w23,sxtw 3]
	ldrsb	w0, [x0,312]
	cmp	w0, 1
	.loc 1 1212 0
	mov	x0, x20
	.loc 1 1210 0
	beq	.L372
	.loc 1 1216 0
	bl	REAL8DEC_Decode
.LVL278:
	b	.L359
.L296:
	.loc 1 1340 0
	ldrb	w0, [x19,10]
	.loc 1 1339 0
	ldr	w23, [x2,13344]
	.loc 1 1340 0
	cmp	w0, 1
	beq	.L349
	.loc 1 1346 0
	add	x3, x19, 8
	add	x22, x19, 88
	.loc 1 1347 0
	add	x2, x19, 168
	.loc 1 1346 0
	ldp	x0, x1, [x3]
	stp	x0, x1, [x22]
	.loc 1 1349 0
	mov	x0, x20
	mov	x1, x22
	.loc 1 1346 0
	ldp	x4, x5, [x3,16]
	stp	x4, x5, [x22,16]
	ldp	x4, x5, [x3,32]
	stp	x4, x5, [x22,32]
	ldp	x4, x5, [x3,48]
	stp	x4, x5, [x22,48]
	ldp	x4, x5, [x3,64]
	stp	x4, x5, [x22,64]
	.loc 1 1347 0
	stp	xzr, xzr, [x2]
	stp	xzr, xzr, [x2,16]
	stp	xzr, xzr, [x2,32]
	stp	xzr, xzr, [x2,48]
	stp	xzr, xzr, [x2,64]
	.loc 1 1349 0
	bl	VP6DEC_Decode
.LVL279:
	b	.L359
.L297:
	.loc 1 1308 0
	ldrb	w0, [x19,10]
	.loc 1 1307 0
	ldr	w23, [x2,8808]
	.loc 1 1308 0
	cmp	w0, 1
	beq	.L349
	.loc 1 1314 0
	add	x3, x19, 8
	add	x22, x19, 88
	.loc 1 1315 0
	add	x2, x19, 168
	.loc 1 1314 0
	ldp	x0, x1, [x3]
	stp	x0, x1, [x22]
	.loc 1 1317 0
	mov	x0, x20
	mov	x1, x22
	.loc 1 1314 0
	ldp	x4, x5, [x3,16]
	stp	x4, x5, [x22,16]
	ldp	x4, x5, [x3,32]
	stp	x4, x5, [x22,32]
	ldp	x4, x5, [x3,48]
	stp	x4, x5, [x22,48]
	ldp	x4, x5, [x3,64]
	stp	x4, x5, [x22,64]
	.loc 1 1315 0
	stp	xzr, xzr, [x2]
	stp	xzr, xzr, [x2,16]
	stp	xzr, xzr, [x2,32]
	stp	xzr, xzr, [x2,48]
	stp	xzr, xzr, [x2,64]
	.loc 1 1317 0
	bl	VP8DEC_Decode
.LVL280:
	b	.L359
.L295:
	.loc 1 1239 0
	ldrb	w1, [x19,10]
	.loc 1 1238 0
	add	x0, x2, 49152
	.loc 1 1239 0
	cmp	w1, 1
	.loc 1 1238 0
	ldr	w23, [x0,3328]
	.loc 1 1239 0
	beq	.L349
	.loc 1 1245 0
	add	x1, x19, 8
	add	x22, x19, 88
	.loc 1 1246 0
	add	x0, x19, 168
	.loc 1 1245 0
	ldp	x2, x3, [x1]
	stp	x2, x3, [x22]
	ldp	x2, x3, [x1,16]
	stp	x2, x3, [x22,16]
	ldp	x2, x3, [x1,32]
	stp	x2, x3, [x22,32]
	ldp	x2, x3, [x1,48]
	stp	x2, x3, [x22,48]
	ldp	x2, x3, [x1,64]
	stp	x2, x3, [x22,64]
	.loc 1 1246 0
	stp	xzr, xzr, [x0]
	stp	xzr, xzr, [x0,16]
	stp	xzr, xzr, [x0,32]
	stp	xzr, xzr, [x0,48]
	stp	xzr, xzr, [x0,64]
	.loc 1 1249 0
	adrp	x0, s_pstVfmwChan
	.loc 1 1251 0
	mov	x1, x22
	.loc 1 1249 0
	add	x0, x0, :lo12:s_pstVfmwChan
	ldr	x0, [x0,w23,sxtw 3]
	ldrsb	w0, [x0,312]
	cmp	w0, 1
	.loc 1 1251 0
	mov	x0, x20
	.loc 1 1249 0
	beq	.L373
	.loc 1 1255 0
	bl	REAL9DEC_Decode
.LVL281:
	b	.L359
.LVL282:
.L349:
	.loc 1 1342 0
	mov	w0, w23
	bl	VCTRL_OutputLastFrame
.LVL283:
	.loc 1 1343 0
	ldr	w1, [x19,20]
	mov	w0, w23
	bl	SM_ReleaseStreamSeg
.LVL284:
	.loc 1 1344 0
	b	.L286
.LVL285:
.L364:
	.loc 1 1029 0
	adrp	x1, .LC26
	mov	w0, 0
	add	x1, x1, :lo12:.LC26
	bl	dprint_linux_kernel
.LVL286:
	.loc 1 1030 0
	b	.L286
.LVL287:
.L363:
	.loc 1 1024 0
	adrp	x1, .LC25
	mov	w0, 0
	add	x1, x1, :lo12:.LC25
	bl	dprint_linux_kernel
.LVL288:
	.loc 1 1025 0
	b	.L286
.L371:
	.loc 1 1118 0
	mov	x0, x20
	add	x1, x19, 88
	bl	MPEG2DEC_Decode
.LVL289:
	.loc 1 1119 0
	ldrb	w0, [x22,281]
	.loc 1 1121 0
	cmp	w0, 1
	csel	w0, w0, wzr, eq
	strb	w0, [x19,1]
	b	.L312
.L369:
	.loc 1 1156 0
	mov	x0, x20
	add	x1, x19, 88
	bl	MPEG4DEC_Decode
.LVL290:
	b	.L316
.L370:
	.loc 1 1107 0
	adrp	x0, s_pstVfmwChan
	add	x0, x0, :lo12:s_pstVfmwChan
	ldr	x0, [x0,w23,sxtw 3]
	ldr	w1, [x0,1104]
	cmp	w1, 1
	bne	.L311
	.loc 1 1107 0 is_stmt 0 discriminator 1
	ldr	w0, [x0,1200]
	cbnz	w0, .L310
.L311:
	.loc 1 1111 0 is_stmt 1
	add	x1, x20, 61440
	mov	x0, x20
	add	x1, x1, 3704
	bl	MPEG2DEC_Decode
.LVL291:
	b	.L310
.L368:
	.loc 1 1145 0
	adrp	x0, s_pstVfmwChan
	add	x0, x0, :lo12:s_pstVfmwChan
	ldr	x0, [x0,w22,sxtw 3]
	ldr	w1, [x0,1104]
	cmp	w1, 1
	bne	.L315
	.loc 1 1145 0 is_stmt 0 discriminator 1
	ldr	w0, [x0,1200]
	cbnz	w0, .L314
.L315:
	.loc 1 1149 0 is_stmt 1
	add	x1, x20, 12288
	mov	x0, x20
	add	x1, x1, 3432
	bl	MPEG4DEC_Decode
.LVL292:
	b	.L314
.L373:
	.loc 1 1251 0
	bl	REAL9DEC_Decode_User
.LVL293:
	b	.L359
.L372:
	.loc 1 1212 0
	bl	REAL8DEC_Decode_User
.LVL294:
	b	.L359
.L308:
	.loc 1 1083 0
	ldr	x0, [x19,152]
	mov	w1, 16
	bl	Vc1SMPSeqHdr
.LVL295:
	cbz	w0, .L374
	.loc 1 1094 0
	adrp	x1, .LC28
	mov	w0, 0
	add	x1, x1, :lo12:.LC28
	b	.L352
.L366:
	.loc 1 1065 0
	mov	w0, w22
	bl	VCTRL_OutputLastFrame
.LVL296:
	.loc 1 1066 0
	ldr	w1, [x19,20]
	mov	w0, w22
	bl	SM_ReleaseStreamSeg
.LVL297:
	.loc 1 1067 0
	b	.L286
.L365:
	.loc 1 1038 0
	mov	x0, x20
	bl	VC1_GetPacketState
.LVL298:
	cmp	w0, 2
	beq	.L375
.L304:
	.loc 1 1048 0
	mov	w0, w22
	mov	x1, x19
	bl	SegMan
.LVL299:
	.loc 1 1049 0
	cbz	w0, .L376
.L306:
	.loc 1 1055 0
	ldr	x0, [x20,8]
	cbnz	x0, .L286
	.loc 1 1055 0 is_stmt 0 discriminator 1
	add	x20, x20, 77824
.LVL300:
	ldrb	w0, [x20,2495]
	cmp	w0, 1
	bne	.L286
	.loc 1 1057 0 is_stmt 1
	mov	w0, w22
	bl	VCTRL_OutputLastFrame
.LVL301:
	.loc 1 1058 0
	strb	wzr, [x20,2495]
	b	.L286
.LVL302:
.L374:
	.loc 1 1085 0
	ldr	w3, [x19,96]
	.loc 1 1089 0
	mov	x0, x20
	.loc 1 1087 0
	ldr	w2, [x19,92]
	.loc 1 1089 0
	mov	x1, x23
	.loc 1 1086 0
	ldr	x20, [x19,152]
.LVL303:
	.loc 1 1085 0
	sub	w3, w3, #16
	.loc 1 1087 0
	add	w2, w2, 16
	.loc 1 1085 0
	str	w3, [x19,96]
	.loc 1 1086 0
	add	x20, x20, 16
	.loc 1 1087 0
	str	w2, [x19,92]
	.loc 1 1086 0
	str	x20, [x19,152]
	.loc 1 1089 0
	bl	VC1DEC_Decode
.LVL304:
	.loc 1 1090 0
	stp	xzr, xzr, [x23]
	stp	xzr, xzr, [x23,16]
	stp	xzr, xzr, [x23,32]
	stp	xzr, xzr, [x23,48]
	stp	xzr, xzr, [x23,64]
	stp	xzr, xzr, [x23,80]
	stp	xzr, xzr, [x23,96]
	stp	xzr, xzr, [x23,112]
	stp	xzr, xzr, [x23,128]
	stp	xzr, xzr, [x23,144]
	b	.L286
.LVL305:
.L376:
	.loc 1 1051 0
	add	x19, x19, 88
.LVL306:
	mov	x0, x20
	mov	x1, x19
	bl	VC1DEC_Decode
.LVL307:
	.loc 1 1052 0
	stp	xzr, xzr, [x19]
	stp	xzr, xzr, [x19,16]
	stp	xzr, xzr, [x19,32]
	stp	xzr, xzr, [x19,48]
	stp	xzr, xzr, [x19,64]
	stp	xzr, xzr, [x19,80]
	stp	xzr, xzr, [x19,96]
	stp	xzr, xzr, [x19,112]
	stp	xzr, xzr, [x19,128]
	stp	xzr, xzr, [x19,144]
	b	.L306
.LVL308:
.L375:
	.loc 1 1040 0
	adrp	x0, s_pstVfmwChan
	add	x0, x0, :lo12:s_pstVfmwChan
	ldr	x0, [x0,w22,sxtw 3]
	ldr	w1, [x0,1104]
	cmp	w1, 1
	bne	.L305
	.loc 1 1040 0 is_stmt 0 discriminator 1
	ldr	w0, [x0,1200]
	cbnz	w0, .L304
.L305:
	.loc 1 1044 0 is_stmt 1
	add	x1, x20, 77824
	mov	x0, x20
	add	x1, x1, 2328
	bl	VC1DEC_Decode
.LVL309:
	b	.L304
.L367:
	.loc 1 1372 0
	bl	__stack_chk_fail
.LVL310:
	.cfi_endproc
.LFE2658:
	.size	DecodeStream, .-DecodeStream
	.align	2
	.global	ReleasePacket
	.type	ReleasePacket, %function
ReleasePacket:
.LFB2660:
	.loc 1 1459 0
	.cfi_startproc
.LVL311:
	stp	x29, x30, [sp, -48]!
	.cfi_def_cfa_offset 48
	.cfi_offset 29, -48
	.cfi_offset 30, -40
	.loc 1 1462 0
	cmp	w0, 16
	.loc 1 1459 0
	mov	w2, w0
	add	x29, sp, 0
	.cfi_def_cfa_register 29
	stp	x19, x20, [sp,16]
	str	x21, [sp,32]
	.cfi_offset 19, -32
	.cfi_offset 20, -24
	.cfi_offset 21, -16
	.loc 1 1462 0
	bls	.L401
.L378:
	.loc 1 1567 0
	adrp	x1, .LC31
.LVL312:
	mov	w0, 0
	add	x1, x1, :lo12:.LC31
	bl	dprint_linux_kernel
.LVL313:
.L377:
	.loc 1 1573 0
	ldp	x19, x20, [sp,16]
	.cfi_remember_state
	.cfi_restore 20
	.cfi_restore 19
	ldr	x21, [sp,32]
	.cfi_restore 21
	ldp	x29, x30, [sp], 48
	.cfi_restore 30
	.cfi_restore 29
	.cfi_def_cfa 31, 0
	ret
.L401:
	.cfi_restore_state
	.loc 1 1462 0
	adrp	x0, .L380
	add	x0, x0, :lo12:.L380
	ldrb	w0, [x0,w2,uxtw]
	adr	x3, .Lrtx380
	add	x0, x3, w0, sxtb #2
	br	x0
.Lrtx380:
	.section	.rodata
	.align	0
	.align	2
.L380:
	.byte	(.L377 - .Lrtx380) / 4
	.byte	(.L377 - .Lrtx380) / 4
	.byte	(.L381 - .Lrtx380) / 4
	.byte	(.L377 - .Lrtx380) / 4
	.byte	(.L378 - .Lrtx380) / 4
	.byte	(.L382 - .Lrtx380) / 4
	.byte	(.L378 - .Lrtx380) / 4
	.byte	(.L378 - .Lrtx380) / 4
	.byte	(.L383 - .Lrtx380) / 4
	.byte	(.L384 - .Lrtx380) / 4
	.byte	(.L385 - .Lrtx380) / 4
	.byte	(.L385 - .Lrtx380) / 4
	.byte	(.L385 - .Lrtx380) / 4
	.byte	(.L386 - .Lrtx380) / 4
	.byte	(.L378 - .Lrtx380) / 4
	.byte	(.L378 - .Lrtx380) / 4
	.byte	(.L377 - .Lrtx380) / 4
	.text
.L384:
	.loc 1 1520 0
	ldr	x19, [x1]
	.loc 1 1521 0
	ldrb	w0, [x19,225]
	cmp	w0, 1
	beq	.L402
.L393:
	.loc 1 1563 0
	add	x0, x19, 224
	stp	xzr, xzr, [x19,224]
	stp	xzr, xzr, [x19,240]
.L400:
	stp	xzr, xzr, [x0,32]
	stp	xzr, xzr, [x0,48]
	stp	xzr, xzr, [x0,64]
	stp	xzr, xzr, [x0,80]
	stp	xzr, xzr, [x0,96]
	stp	xzr, xzr, [x0,112]
	stp	xzr, xzr, [x0,128]
	stp	xzr, xzr, [x0,144]
	.loc 1 1573 0
	ldp	x19, x20, [sp,16]
	.cfi_remember_state
	.cfi_restore 19
	.cfi_restore 20
	ldr	x21, [sp,32]
	.cfi_restore 21
	ldp	x29, x30, [sp], 48
	.cfi_restore 29
	.cfi_restore 30
	.cfi_def_cfa 31, 0
	ret
.L386:
	.cfi_restore_state
	.loc 1 1544 0
	ldr	x19, [x1]
	.loc 1 1545 0
	ldr	w0, [x1,8808]
	ldr	w1, [x19,236]
.LVL314:
	bl	SM_ReleaseStreamSeg
.LVL315:
	.loc 1 1546 0
	ldrb	w0, [x19,225]
	cmp	w0, 1
	beq	.L393
	.loc 1 1548 0
	adrp	x1, .LC29
	mov	w0, 1
	add	x1, x1, :lo12:.LC29
	bl	dprint_linux_kernel
.LVL316:
	b	.L393
.LVL317:
.L381:
	.loc 1 1484 0
	ldr	x20, [x1,22088]
	.loc 1 1485 0
	add	x21, x20, 136
	ldrb	w0, [x21,89]
	cmp	w0, 1
	beq	.L403
	.loc 1 1491 0
	add	x19, x1, 20480
	ldr	w1, [x21,100]
.LVL318:
	ldr	w0, [x19,2808]
	bl	SM_ReleaseStreamSeg
.LVL319:
	.loc 1 1492 0
	ldr	w0, [x19,2808]
	ldr	w1, [x21,180]
	bl	SM_ReleaseStreamSeg
.LVL320:
.L388:
	.loc 1 1494 0
	add	x0, x20, 224
	stp	xzr, xzr, [x20,224]
	stp	xzr, xzr, [x20,240]
	b	.L400
.LVL321:
.L385:
	.loc 1 1557 0
	ldr	x19, [x1]
	.loc 1 1558 0
	ldr	w0, [x1,13344]
	ldr	w1, [x19,236]
.LVL322:
	bl	SM_ReleaseStreamSeg
.LVL323:
	.loc 1 1559 0
	ldrb	w0, [x19,225]
	cmp	w0, 1
	beq	.L393
	.loc 1 1561 0
	adrp	x1, .LC30
	mov	w0, 1
	add	x1, x1, :lo12:.LC30
	bl	dprint_linux_kernel
.LVL324:
	b	.L393
.LVL325:
.L382:
	.loc 1 1530 0
	ldr	x19, [x1]
	.loc 1 1531 0
	ldrb	w0, [x19,225]
	cmp	w0, 1
	bne	.L393
	.loc 1 1533 0
	add	x0, x1, 36864
	ldr	w1, [x19,236]
.LVL326:
	ldr	w0, [x0,3296]
	bl	SM_ReleaseStreamSeg
.LVL327:
	b	.L393
.LVL328:
.L383:
	.loc 1 1510 0
	ldr	x19, [x1]
	.loc 1 1511 0
	ldrb	w0, [x19,225]
	cmp	w0, 1
	bne	.L393
	.loc 1 1513 0
	add	x0, x1, 49152
	ldr	w1, [x19,236]
.LVL329:
	ldr	w0, [x0,3352]
	bl	SM_ReleaseStreamSeg
.LVL330:
	b	.L393
.LVL331:
.L403:
	.loc 1 1487 0
	add	x0, x1, 20480
	ldr	w1, [x21,100]
.LVL332:
	ldr	w0, [x0,2808]
	bl	SM_ReleaseStreamSeg
.LVL333:
	b	.L388
.LVL334:
.L402:
	.loc 1 1523 0
	add	x0, x1, 49152
	ldr	w1, [x19,236]
.LVL335:
	ldr	w0, [x0,3328]
	bl	SM_ReleaseStreamSeg
.LVL336:
	b	.L393
	.cfi_endproc
.LFE2660:
	.size	ReleasePacket, .-ReleasePacket
	.align	2
	.global	IsNewpicSeg
	.type	IsNewpicSeg, %function
IsNewpicSeg:
.LFB2661:
	.loc 1 1576 0
	.cfi_startproc
.LVL337:
	stp	x29, x30, [sp, -16]!
	.cfi_def_cfa_offset 16
	.cfi_offset 29, -16
	.cfi_offset 30, -8
	.loc 1 1584 0
	cmp	w1, 2
	.loc 1 1576 0
	add	x29, sp, 0
	.cfi_def_cfa_register 29
	.loc 1 1581 0
	ldr	x5, [x2,64]
.LVL338:
	.loc 1 1584 0
	beq	.L442
.L405:
	.loc 1 1590 0 discriminator 1
	ldrb	w2, [x5]
.LVL339:
	mov	x6, x0
	ldrb	w3, [x5,1]
	ldrb	w4, [x5,2]
	cbnz	w2, .L408
	.loc 1 1590 0 is_stmt 0 discriminator 2
	cbnz	w3, .L408
	.loc 1 1590 0 discriminator 3
	cmp	w4, 1
	bne	.L408
	.loc 1 1599 0 is_stmt 1
	cmp	w1, 16
	bls	.L443
.L428:
	.loc 1 1577 0
	mov	w1, -1
.LVL340:
.L434:
	.loc 1 1687 0
	mov	w0, w1
	ldp	x29, x30, [sp], 16
	.cfi_remember_state
	.cfi_restore 30
	.cfi_restore 29
	.cfi_def_cfa 31, 0
	ret
.LVL341:
.L443:
	.cfi_restore_state
	.loc 1 1599 0
	adrp	x2, .L412
	add	x2, x2, :lo12:.L412
	ldrb	w1, [x2,w1,uxtw]
	adr	x2, .Lrtx412
	add	x1, x2, w1, sxtb #2
	br	x1
.Lrtx412:
.LVL342:
	.section	.rodata
	.align	0
	.align	2
.L412:
	.byte	(.L411 - .Lrtx412) / 4
	.byte	(.L413 - .Lrtx412) / 4
	.byte	(.L414 - .Lrtx412) / 4
	.byte	(.L415 - .Lrtx412) / 4
	.byte	(.L428 - .Lrtx412) / 4
	.byte	(.L428 - .Lrtx412) / 4
	.byte	(.L428 - .Lrtx412) / 4
	.byte	(.L428 - .Lrtx412) / 4
	.byte	(.L428 - .Lrtx412) / 4
	.byte	(.L428 - .Lrtx412) / 4
	.byte	(.L428 - .Lrtx412) / 4
	.byte	(.L428 - .Lrtx412) / 4
	.byte	(.L428 - .Lrtx412) / 4
	.byte	(.L428 - .Lrtx412) / 4
	.byte	(.L428 - .Lrtx412) / 4
	.byte	(.L428 - .Lrtx412) / 4
	.byte	(.L416 - .Lrtx412) / 4
	.text
.L442:
	.loc 1 1585 0
	ldrb	w2, [x2,72]
.LVL343:
	.loc 1 1584 0 discriminator 1
	tbz	x2, 0, .L405
.L406:
	.loc 1 1644 0
	mov	w1, 1
.LVL344:
	str	w1, [x0]
	.loc 1 1645 0
	mov	w1, 0
.LVL345:
	ldrb	w2, [x5,3]
.L426:
	.loc 1 1647 0
	cmp	w2, 182
	bne	.L434
	.loc 1 1649 0
	str	wzr, [x0]
	b	.L434
.LVL346:
.L415:
	.loc 1 1627 0
	ldrb	w2, [x5,3]
	cmp	w2, 179
	cset	w1, eq
	cmp	w2, wzr
	cset	w0, eq
	.loc 1 1627 0 is_stmt 0 discriminator 4
	orr	w0, w1, w0
	cbnz	w0, .L431
	add	w0, w2, 73
	.loc 1 1577 0 is_stmt 1
	mov	w1, -1
.LVL347:
	.loc 1 1627 0 discriminator 4
	uxtb	w0, w0
	cmp	w0, 1
	bhi	.L434
.L431:
	.loc 1 1627 0 is_stmt 0 discriminator 5
	ldr	w0, [x6]
	.loc 1 1577 0 is_stmt 1
	mov	w1, -1
	.loc 1 1627 0 discriminator 5
	cbnz	w0, .L419
	.loc 1 1629 0
	mov	w0, 1
	str	w0, [x6]
	.loc 1 1630 0
	mov	w1, 0
	ldrb	w2, [x5,3]
.L419:
	.loc 1 1632 0
	cbnz	w2, .L434
	.loc 1 1676 0
	str	wzr, [x6]
.L444:
	.loc 1 1687 0
	mov	w0, w1
	ldp	x29, x30, [sp], 16
	.cfi_remember_state
	.cfi_restore 29
	.cfi_restore 30
	.cfi_def_cfa 31, 0
	ret
.LVL348:
.L416:
	.cfi_restore_state
	.loc 1 1611 0
	mov	x1, x5
	mov	x0, x6
	bl	HEVC_IsNewPicNal
.LVL349:
	cmp	w0, wzr
	csetm	w1, ne
.LVL350:
	.loc 1 1687 0
	mov	w0, w1
	ldp	x29, x30, [sp], 16
	.cfi_remember_state
	.cfi_restore 29
	.cfi_restore 30
	.cfi_def_cfa 31, 0
	ret
.LVL351:
.L413:
	.cfi_restore_state
	.loc 1 1668 0
	ldrb	w2, [x5,3]
	sub	w0, w2, #12
	uxtb	w0, w0
	.loc 1 1668 0 is_stmt 0 discriminator 3
	cmp	w0, 3
	bls	.L432
	cmp	w2, 10
	.loc 1 1577 0 is_stmt 1
	mov	w1, -1
.LVL352:
	.loc 1 1668 0 discriminator 3
	bne	.L434
.L432:
	.loc 1 1669 0
	ldr	w0, [x6]
	.loc 1 1577 0
	mov	w1, -1
	.loc 1 1669 0
	cbnz	w0, .L424
	.loc 1 1671 0
	mov	w0, 1
	str	w0, [x6]
	.loc 1 1672 0
	mov	w1, 0
	ldrb	w2, [x5,3]
.L424:
	.loc 1 1674 0
	cmp	w2, 13
	bne	.L434
	.loc 1 1676 0
	str	wzr, [x6]
	b	.L444
.LVL353:
.L411:
	.loc 1 1603 0
	mov	x1, x5
	mov	x0, x6
	bl	H264_IsNewPicNal
.LVL354:
	cmp	w0, wzr
	csetm	w1, ne
.LVL355:
	.loc 1 1687 0
	mov	w0, w1
	ldp	x29, x30, [sp], 16
	.cfi_remember_state
	.cfi_restore 29
	.cfi_restore 30
	.cfi_def_cfa 31, 0
	ret
.LVL356:
.L414:
	.cfi_restore_state
	.loc 1 1641 0
	ldrb	w2, [x5,3]
	.loc 1 1641 0 is_stmt 0 discriminator 1
	cmp	w2, 176
	cset	w4, eq
	.loc 1 1641 0
	cmp	w2, 179
	cset	w1, eq
	.loc 1 1641 0 discriminator 2
	cmp	w2, 254
	cset	w3, eq
	orr	w1, w4, w1
	.loc 1 1641 0 discriminator 3
	cmp	w2, 47
	orr	w1, w3, w1
	cset	w3, ls
	orr	w1, w3, w1
	cbnz	w1, .L420
	.loc 1 1641 0
	add	w1, w2, 75
	uxtb	w1, w1
	.loc 1 1641 0 discriminator 3
	cmp	w1, 1
	bls	.L420
	.loc 1 1577 0 is_stmt 1
	mov	w1, -1
.LVL357:
	b	.L426
.LVL358:
.L420:
	.loc 1 1642 0
	ldr	w1, [x6]
	cbz	w1, .L406
	.loc 1 1577 0
	mov	w1, -1
.LVL359:
	b	.L426
.LVL360:
.L408:
	.loc 1 1593 0
	adrp	x1, .LC32
.LVL361:
	mov	w0, 22
	add	x1, x1, :lo12:.LC32
	bl	dprint_linux_kernel
.LVL362:
	.loc 1 1594 0
	mov	w1, -1
.LVL363:
	.loc 1 1687 0
	mov	w0, w1
	ldp	x29, x30, [sp], 16
	.cfi_restore 29
	.cfi_restore 30
	.cfi_def_cfa 31, 0
	ret
	.cfi_endproc
.LFE2661:
	.size	IsNewpicSeg, .-IsNewpicSeg
	.align	2
	.global	OpenUsdPool
	.type	OpenUsdPool, %function
OpenUsdPool:
.LFB2662:
	.loc 1 1704 0
	.cfi_startproc
.LVL364:
	stp	x29, x30, [sp, -32]!
	.cfi_def_cfa_offset 32
	.cfi_offset 29, -32
	.cfi_offset 30, -24
	add	x29, sp, 0
	.cfi_def_cfa_register 29
	stp	x19, x20, [sp,16]
	.cfi_offset 19, -16
	.cfi_offset 20, -8
	.loc 1 1707 0
	adrp	x19, .LANCHOR0
	add	x19, x19, :lo12:.LANCHOR0
	add	x19, x19, 128
	ldr	x1, [x19,w0,sxtw 3]
	cbz	x1, .L451
.L446:
	add	x2, x1, 204800
.LBB9:
.LBB10:
	.loc 1 1765 0
	str	wzr, [x1]
	add	x0, x1, 1044
.LVL365:
	add	x2, x2, 532
.L448:
	.loc 1 1768 0
	str	wzr, [x0,4]
	.loc 1 1769 0
	str	wzr, [x0]
	add	x0, x0, 1064
	.loc 1 1766 0 discriminator 1
	cmp	x0, x2
	bne	.L448
	.loc 1 1772 0
	mov	w0, 0
.L447:
.LBE10:
.LBE9:
	.loc 1 1715 0
	ldp	x19, x20, [sp,16]
	.cfi_remember_state
	.cfi_restore 20
	.cfi_restore 19
.LVL366:
	ldp	x29, x30, [sp], 32
	.cfi_restore 30
	.cfi_restore 29
	.cfi_def_cfa 31, 0
	ret
.LVL367:
.L451:
	.cfi_restore_state
	.loc 1 1709 0
	adrp	x1, g_vfmw_osal_fun_ptr+192
	mov	w20, w0
	mov	w0, 7688
.LVL368:
	movk	w0, 0x3, lsl 16
	ldr	x1, [x1,#:lo12:g_vfmw_osal_fun_ptr+192]
	blr	x1
.LVL369:
	str	x0, [x19,w20,sxtw 3]
.LBB12:
.LBB11:
	.loc 1 1762 0
	cbz	x0, .L449
	mov	x1, x0
	b	.L446
.L449:
	.loc 1 1776 0
	mov	w0, -1
	b	.L447
.LBE11:
.LBE12:
	.cfi_endproc
.LFE2662:
	.size	OpenUsdPool, .-OpenUsdPool
	.align	2
	.global	CloseUsdPool
	.type	CloseUsdPool, %function
CloseUsdPool:
.LFB2663:
	.loc 1 1718 0
	.cfi_startproc
.LVL370:
	stp	x29, x30, [sp, -32]!
	.cfi_def_cfa_offset 32
	.cfi_offset 29, -32
	.cfi_offset 30, -24
	add	x29, sp, 0
	.cfi_def_cfa_register 29
	stp	x19, x20, [sp,16]
	.cfi_offset 19, -16
	.cfi_offset 20, -8
	.loc 1 1720 0
	adrp	x19, .LANCHOR0
	add	x19, x19, :lo12:.LANCHOR0
	add	x19, x19, 128
	ldr	x1, [x19,w0,sxtw 3]
	cbz	x1, .L452
	mov	w20, w0
	.loc 1 1722 0
	mov	x0, x1
.LVL371:
	adrp	x1, g_vfmw_osal_fun_ptr+200
	ldr	x1, [x1,#:lo12:g_vfmw_osal_fun_ptr+200]
	blr	x1
.LVL372:
	.loc 1 1723 0
	str	xzr, [x19,w20,sxtw 3]
.L452:
	.loc 1 1727 0
	ldp	x19, x20, [sp,16]
	.cfi_restore 20
	.cfi_restore 19
.LVL373:
	ldp	x29, x30, [sp], 32
	.cfi_restore 30
	.cfi_restore 29
	.cfi_def_cfa 31, 0
	ret
	.cfi_endproc
.LFE2663:
	.size	CloseUsdPool, .-CloseUsdPool
	.align	2
	.global	OpenUsdPool_WithMem
	.type	OpenUsdPool_WithMem, %function
OpenUsdPool_WithMem:
.LFB2664:
	.loc 1 1730 0
	.cfi_startproc
.LVL374:
	.loc 1 1733 0
	adrp	x3, .LANCHOR0
	add	x3, x3, :lo12:.LANCHOR0
	add	x3, x3, 128
	ldr	x2, [x3,w0,sxtw 3]
	cbz	x2, .L463
.L458:
	add	x1, x2, 204800
.LVL375:
.LBB13:
.LBB14:
	.loc 1 1765 0
	str	wzr, [x2]
	add	x0, x2, 1044
.LVL376:
	add	x1, x1, 532
.L460:
	.loc 1 1768 0
	str	wzr, [x0,4]
	.loc 1 1769 0
	str	wzr, [x0]
	add	x0, x0, 1064
	.loc 1 1766 0 discriminator 1
	cmp	x0, x1
	bne	.L460
	.loc 1 1772 0
	mov	w0, 0
.LBE14:
.LBE13:
	.loc 1 1741 0
	ret
.LVL377:
.L463:
	.loc 1 1735 0
	str	x1, [x3,w0,sxtw 3]
.LBB16:
.LBB15:
	.loc 1 1762 0
	cbz	x1, .L461
	mov	x2, x1
	b	.L458
.L461:
	.loc 1 1776 0
	mov	w0, -1
.LVL378:
.LBE15:
.LBE16:
	.loc 1 1741 0
	ret
	.cfi_endproc
.LFE2664:
	.size	OpenUsdPool_WithMem, .-OpenUsdPool_WithMem
	.align	2
	.global	CloseUsdPool_WithMem
	.type	CloseUsdPool_WithMem, %function
CloseUsdPool_WithMem:
.LFB2665:
	.loc 1 1744 0
	.cfi_startproc
.LVL379:
	.loc 1 1746 0
	adrp	x1, .LANCHOR0
	add	x1, x1, :lo12:.LANCHOR0
	add	x1, x1, 128
	ldr	x2, [x1,w0,sxtw 3]
	cbz	x2, .L464
	.loc 1 1749 0
	str	xzr, [x1,w0,sxtw 3]
.L464:
	.loc 1 1753 0
	ret
	.cfi_endproc
.LFE2665:
	.size	CloseUsdPool_WithMem, .-CloseUsdPool_WithMem
	.align	2
	.global	InitUsdPool
	.type	InitUsdPool, %function
InitUsdPool:
.LFB2666:
	.loc 1 1758 0
	.cfi_startproc
.LVL380:
	.loc 1 1762 0
	adrp	x1, .LANCHOR0
	add	x1, x1, :lo12:.LANCHOR0
	add	x1, x1, 128
	ldr	x0, [x1,w0,sxtw 3]
.LVL381:
	cbz	x0, .L472
	add	x1, x0, 204800
	.loc 1 1765 0
	str	wzr, [x0]
	add	x1, x1, 532
	add	x0, x0, 1044
.L471:
	.loc 1 1768 0
	str	wzr, [x0,4]
	.loc 1 1769 0
	str	wzr, [x0]
	add	x0, x0, 1064
	.loc 1 1766 0 discriminator 1
	cmp	x0, x1
	bne	.L471
	.loc 1 1772 0
	mov	w0, 0
	.loc 1 1780 0
	ret
.L472:
	.loc 1 1776 0
	mov	w0, -1
	.loc 1 1780 0
	ret
	.cfi_endproc
.LFE2666:
	.size	InitUsdPool, .-InitUsdPool
	.align	2
	.global	GetUsd
	.type	GetUsd, %function
GetUsd:
.LFB2667:
	.loc 1 1784 0
	.cfi_startproc
.LVL382:
	.loc 1 1789 0
	adrp	x1, .LANCHOR0
	add	x1, x1, :lo12:.LANCHOR0
	add	x1, x1, 128
	ldr	x3, [x1,w0,sxtw 3]
	cbz	x3, .L478
	add	x0, x3, 1044
.LVL383:
	mov	w1, 0
.LVL384:
	b	.L477
.L476:
	.loc 1 1792 0 discriminator 2
	add	w1, w1, 1
	add	x0, x0, 1064
	.loc 1 1792 0 is_stmt 0 discriminator 1
	cmp	w1, 192
	beq	.L478
.L477:
	.loc 1 1794 0 is_stmt 1
	ldr	w2, [x0,4]
	cbnz	w2, .L476
	.loc 1 1794 0 is_stmt 0 discriminator 1
	ldr	w2, [x0]
	cbnz	w2, .L476
	.loc 1 1796 0 is_stmt 1
	sxtw	x1, w1
	lsl	x0, x1, 7
	add	x0, x0, x1, lsl 2
	add	x1, x0, x1
.LVL385:
	add	x1, x3, x1, lsl 3
	add	x0, x1, 8
.LVL386:
	.loc 1 1797 0
	str	wzr, [x1,1044]
	.loc 1 1798 0
	str	xzr, [x1,1064]
	.loc 1 1799 0
	str	wzr, [x1,1060]
	.loc 1 1800 0
	str	wzr, [x1,1056]
	str	wzr, [x1,1052]
	.loc 1 1801 0
	strb	wzr, [x1,1034]
	.loc 1 1802 0
	strb	wzr, [x1,1035]
	.loc 1 1803 0
	strb	wzr, [x1,1036]
	.loc 1 1804 0
	strh	wzr, [x1,1038]
.LVL387:
	.loc 1 1811 0
	ret
.LVL388:
.L478:
	.loc 1 1787 0
	mov	x0, 0
.LVL389:
.LVL390:
	.loc 1 1811 0
	ret
	.cfi_endproc
.LFE2667:
	.size	GetUsd, .-GetUsd
	.align	2
	.global	FreeUsdByDec
	.type	FreeUsdByDec, %function
FreeUsdByDec:
.LFB2668:
	.loc 1 1816 0
	.cfi_startproc
.LVL391:
	.loc 1 1817 0
	cbz	x1, .L480
	.loc 1 1819 0
	str	wzr, [x1,1040]
.L480:
	.loc 1 1823 0
	ret
	.cfi_endproc
.LFE2668:
	.size	FreeUsdByDec, .-FreeUsdByDec
	.align	2
	.global	MarkUsdByDnr
	.type	MarkUsdByDnr, %function
MarkUsdByDnr:
.LFB2669:
	.loc 1 1828 0
	.cfi_startproc
.LVL392:
	.loc 1 1829 0
	cbz	x1, .L485
	.loc 1 1831 0
	mov	w0, 1
.LVL393:
	str	w0, [x1,1036]
.LVL394:
.L485:
	.loc 1 1835 0
	ret
	.cfi_endproc
.LFE2669:
	.size	MarkUsdByDnr, .-MarkUsdByDnr
	.align	2
	.global	UnMarkUsdByDnr
	.type	UnMarkUsdByDnr, %function
UnMarkUsdByDnr:
.LFB2670:
	.loc 1 1839 0
	.cfi_startproc
.LVL395:
	.loc 1 1840 0
	cbz	x1, .L490
	.loc 1 1842 0
	str	wzr, [x1,1036]
.L490:
	.loc 1 1846 0
	ret
	.cfi_endproc
.LFE2670:
	.size	UnMarkUsdByDnr, .-UnMarkUsdByDnr
	.align	2
	.global	IsImageInVoQueue
	.type	IsImageInVoQueue, %function
IsImageInVoQueue:
.LFB2671:
	.loc 1 1850 0
	.cfi_startproc
.LVL396:
	stp	x29, x30, [sp, -16]!
	.cfi_def_cfa_offset 16
	.cfi_offset 29, -16
	.cfi_offset 30, -8
	add	x29, sp, 0
	.cfi_def_cfa_register 29
	.loc 1 1853 0
	cbz	x1, .L506
	.loc 1 1861 0
	ldrh	w2, [x0,4]
	.loc 1 1862 0
	ldrh	w5, [x0,8]
	.loc 1 1861 0
	and	w2, w2, 63
	.loc 1 1862 0
	cmp	w5, w2
	beq	.L500
.L499:
	.loc 1 1866 0
	sxtw	x3, w2
	.loc 1 1859 0
	add	w2, w2, 1
	.loc 1 1866 0
	add	x3, x3, 2
	.loc 1 1861 0
	and	w2, w2, 63
	.loc 1 1866 0
	ldr	x3, [x0,x3,lsl 3]
	cbz	x3, .L498
	.loc 1 1868 0
	ldr	w4, [x3,80]
	ldr	w3, [x1,80]
	cmp	w4, w3
	beq	.L501
.L498:
	.loc 1 1862 0
	cmp	w2, w5
	bne	.L499
.L500:
	.loc 1 1875 0
	mov	w0, -1
.LVL397:
.L497:
	.loc 1 1877 0
	ldp	x29, x30, [sp], 16
	.cfi_remember_state
	.cfi_restore 30
	.cfi_restore 29
	.cfi_def_cfa 31, 0
	ret
.LVL398:
.L501:
	.cfi_restore_state
	.loc 1 1870 0
	mov	w0, 0
.LVL399:
	.loc 1 1877 0
	ldp	x29, x30, [sp], 16
	.cfi_remember_state
	.cfi_restore 29
	.cfi_restore 30
	.cfi_def_cfa 31, 0
	ret
.LVL400:
.L506:
	.cfi_restore_state
	.loc 1 1855 0
	adrp	x1, .LC6
.LVL401:
	mov	w0, 0
.LVL402:
	add	x1, x1, :lo12:.LC6
	bl	dprint_linux_kernel
.LVL403:
	.loc 1 1856 0
	mov	w0, -1
	b	.L497
	.cfi_endproc
.LFE2671:
	.size	IsImageInVoQueue, .-IsImageInVoQueue
	.align	2
	.global	IsVoQueueEmpty
	.type	IsVoQueueEmpty, %function
IsVoQueueEmpty:
.LFB2672:
	.loc 1 1881 0
	.cfi_startproc
.LVL404:
	stp	x29, x30, [sp, -16]!
	.cfi_def_cfa_offset 16
	.cfi_offset 29, -16
	.cfi_offset 30, -8
	add	x29, sp, 0
	.cfi_def_cfa_register 29
	.loc 1 1882 0
	cbz	x0, .L511
	.loc 1 1888 0
	ldrh	w3, [x0,6]
	.loc 1 1893 0
	mov	w1, 0
	.loc 1 1888 0
	ldrh	w2, [x0,8]
	cmp	w2, w3
	beq	.L512
.L509:
	.loc 1 1894 0
	mov	w0, w1
.LVL405:
	ldp	x29, x30, [sp], 16
	.cfi_remember_state
	.cfi_restore 30
	.cfi_restore 29
	.cfi_def_cfa 31, 0
	ret
.LVL406:
.L512:
	.cfi_restore_state
	.loc 1 1888 0 discriminator 1
	ldrh	w0, [x0,4]
.LVL407:
	.loc 1 1894 0
	ldp	x29, x30, [sp], 16
	.cfi_remember_state
	.cfi_restore 29
	.cfi_restore 30
	.cfi_def_cfa 31, 0
	.loc 1 1888 0 discriminator 1
	cmp	w0, w2
	cset	w1, eq
	.loc 1 1894 0
	mov	w0, w1
	ret
.LVL408:
.L511:
	.cfi_restore_state
	.loc 1 1884 0
	adrp	x2, .LANCHOR1
	adrp	x1, .LC33
	add	x2, x2, :lo12:.LANCHOR1
	add	x1, x1, :lo12:.LC33
	add	x2, x2, 48
	bl	dprint_linux_kernel
.LVL409:
	.loc 1 1885 0
	mov	w1, 0
	b	.L509
	.cfi_endproc
.LFE2672:
	.size	IsVoQueueEmpty, .-IsVoQueueEmpty
	.align	2
	.global	SetAspectRatio
	.type	SetAspectRatio, %function
SetAspectRatio:
.LFB2673:
	.loc 1 1897 0
	.cfi_startproc
.LVL410:
	stp	x29, x30, [sp, -16]!
	.cfi_def_cfa_offset 16
	.cfi_offset 29, -16
	.cfi_offset 30, -8
	.loc 1 1898 0
	cmp	w1, 5
	.loc 1 1897 0
	add	x29, sp, 0
	.cfi_def_cfa_register 29
	.loc 1 1898 0
	bls	.L523
	mov	x3, x0
	mov	w2, w1
	.loc 1 1925 0
	str	wzr, [x0]
	.loc 1 1926 0
	mov	w1, 1
.LVL411:
	.loc 1 1927 0
	mov	w0, w1
.LVL412:
	.loc 1 1926 0
	str	w1, [x3,4]
	.loc 1 1927 0
	adrp	x1, .LC34
	add	x1, x1, :lo12:.LC34
	bl	dprint_linux_kernel
.LVL413:
	.loc 1 1932 0
	ldp	x29, x30, [sp], 16
	.cfi_remember_state
	.cfi_restore 30
	.cfi_restore 29
	.cfi_def_cfa 31, 0
	ret
.LVL414:
.L523:
	.cfi_restore_state
	.loc 1 1898 0
	adrp	x2, .L516
	add	x2, x2, :lo12:.L516
	ldrb	w1, [x2,w1,uxtw]
	adr	x2, .Lrtx516
	add	x1, x2, w1, sxtb #2
	br	x1
.Lrtx516:
.LVL415:
	.section	.rodata
	.align	0
	.align	2
.L516:
	.byte	(.L515 - .Lrtx516) / 4
	.byte	(.L517 - .Lrtx516) / 4
	.byte	(.L518 - .Lrtx516) / 4
	.byte	(.L519 - .Lrtx516) / 4
	.byte	(.L520 - .Lrtx516) / 4
	.byte	(.L521 - .Lrtx516) / 4
	.text
.L520:
	.loc 1 1917 0
	mov	w1, 235
	str	w1, [x0]
	.loc 1 1918 0
	mov	w1, 100
	str	w1, [x0,4]
	.loc 1 1932 0
	ldp	x29, x30, [sp], 16
	.cfi_remember_state
	.cfi_restore 29
	.cfi_restore 30
	.cfi_def_cfa 31, 0
	ret
.L521:
	.cfi_restore_state
	.loc 1 1921 0
	str	wzr, [x0]
	.loc 1 1922 0
	mov	w1, 2
	str	w1, [x0,4]
	.loc 1 1932 0
	ldp	x29, x30, [sp], 16
	.cfi_remember_state
	.cfi_restore 29
	.cfi_restore 30
	.cfi_def_cfa 31, 0
	ret
.L515:
	.cfi_restore_state
	.loc 1 1901 0
	str	wzr, [x0]
	.loc 1 1902 0
	mov	w1, 1
	str	w1, [x0,4]
	.loc 1 1932 0
	ldp	x29, x30, [sp], 16
	.cfi_remember_state
	.cfi_restore 29
	.cfi_restore 30
	.cfi_def_cfa 31, 0
	ret
.L517:
	.cfi_restore_state
	.loc 1 1905 0
	mov	w1, 4
	str	w1, [x0]
	.loc 1 1906 0
	mov	w1, 3
	str	w1, [x0,4]
	.loc 1 1932 0
	ldp	x29, x30, [sp], 16
	.cfi_remember_state
	.cfi_restore 29
	.cfi_restore 30
	.cfi_def_cfa 31, 0
	ret
.L518:
	.cfi_restore_state
	.loc 1 1909 0
	mov	w1, 16
	str	w1, [x0]
	.loc 1 1910 0
	mov	w1, 9
	str	w1, [x0,4]
	.loc 1 1932 0
	ldp	x29, x30, [sp], 16
	.cfi_remember_state
	.cfi_restore 29
	.cfi_restore 30
	.cfi_def_cfa 31, 0
	ret
.L519:
	.cfi_restore_state
	.loc 1 1913 0
	mov	w1, 221
	str	w1, [x0]
	.loc 1 1914 0
	mov	w1, 100
	str	w1, [x0,4]
	.loc 1 1932 0
	ldp	x29, x30, [sp], 16
	.cfi_restore 29
	.cfi_restore 30
	.cfi_def_cfa 31, 0
	ret
	.cfi_endproc
.LFE2673:
	.size	SetAspectRatio, .-SetAspectRatio
	.align	2
	.global	GetVoLastImageID
	.type	GetVoLastImageID, %function
GetVoLastImageID:
.LFB2674:
	.loc 1 1935 0
	.cfi_startproc
.LVL416:
	.loc 1 1938 0
	ldr	w0, [x0,552]
.LVL417:
	.loc 1 1940 0
	cmp	w0, 1
	.loc 1 1944 0
	csinv	w0, w0, wzr, hi
	ret
	.cfi_endproc
.LFE2674:
	.size	GetVoLastImageID, .-GetVoLastImageID
	.global	pstVdecUsdPool
	.section	.rodata
	.align	3
.LANCHOR1 = . + 0
	.type	__func__.42332, %object
	.size	__func__.42332, 20
__func__.42332:
	.string	"SYNTAX_ReceiveImage"
	.zero	4
	.type	__func__.42342, %object
	.size	__func__.42342, 20
__func__.42342:
	.string	"SYNTAX_ReleaseImage"
	.zero	4
	.type	__func__.42512, %object
	.size	__func__.42512, 15
__func__.42512:
	.string	"IsVoQueueEmpty"
	.section	.rodata.str1.8,"aMS",%progbits,1
	.align	3
.LC0:
	.string	"Initializing VO queue\n"
	.zero	1
.LC1:
	.string	"VoQueue state: head(%d) history(%d) tail(%d)"
	.zero	3
.LC2:
	.string	"\n"
	.zero	6
.LC3:
	.string	"%d "
	.zero	4
.LC4:
	.string	"ResetVoQueue but queue not empty: head(%d) history(%d) tail(%d)\n"
	.zero	7
.LC5:
	.string	"frame type %d: converse pts: %lld + %lld - %lld\n"
	.zero	7
.LC6:
	.string	"image point NULL\n"
	.zero	6
.LC7:
	.string	"FATAL: p_image(id=%d) has already in the VoQueue!\n"
	.zero	5
.LC8:
	.string	"error=%d,W=%d,H=%d,not acceptable!\n"
	.zero	4
.LC9:
	.string	"out_pts: %lld -> %lld\n"
	.zero	1
.LC10:
	.string	"Queue=(%02d,%02d,%02d) + F%d\n"
	.zero	2
.LC11:
	.string	"%s, ChanID should not be %d\n"
	.zero	3
.LC12:
	.string	"%s, VCTRL_GetChanVoQue failed\n"
	.zero	1
.LC13:
	.string	"Queue=(%02d,%02d,%02d) - F%d\n"
	.zero	2
.LC14:
	.string	"%s unsupport p_image is null.\n"
	.zero	1
.LC15:
	.string	"%s unsupport std %d.\n"
	.zero	2
.LC16:
	.string	"%s: image %d not found in queue.\n"
	.zero	6
.LC17:
	.string	"%s image[%d] null\n"
	.zero	5
.LC18:
	.string	"Queue=(%02d,%02d,%02d) x F%d\n"
	.zero	2
.LC19:
	.string	"%s unsupport std %d to recycle image.\n"
	.zero	1
.LC20:
	.string	"%s recycle image failed.\n"
	.zero	6
.LC21:
	.string	"pSegMan error!\n"
.LC22:
	.string	"More than two packet!!!ERROR!!!\n"
	.zero	7
.LC23:
	.string	"*****************copy packets tobe one*****************\n"
	.zero	7
.LC24:
	.string	"*****************two packet*****************\n"
	.zero	2
.LC25:
	.string	"ERROR: Wrong PreParseInfo about Vc1 IsAdvProfile!\n"
	.zero	5
.LC26:
	.string	"ERROR: Wrong PreParseInfo about Vc1 CodecVersion!\n"
	.zero	5
.LC27:
	.string	"LENTH ERROR: VC1 S/MP BS is wrong!\n"
	.zero	4
.LC28:
	.string	"SYNTAX ERROR: VC1 S/MP BS is wrong!\n"
	.zero	3
.LC29:
	.string	"ERROR: VFMW_VP8 one packet stream, but IsLastSeg == 0\n"
	.zero	1
.LC30:
	.string	"ERROR: VFMW_VP6 one packet stream, but IsLastSeg == 0\n"
	.zero	1
.LC31:
	.string	"VidStd=%d Error!\n"
	.zero	6
.LC32:
	.string	"pu8[0] = %x,pu8[1] = %x, pu8[2] = %x\n"
	.zero	2
.LC33:
	.string	"%s pstVoQue NULL\n"
	.zero	6
.LC34:
	.string	"WARNNING: aspect ration (%d) is not expected!\n"
	.bss
	.align	3
.LANCHOR0 = . + 0
	.type	last_rec_pos_time.42296, %object
	.size	last_rec_pos_time.42296, 128
last_rec_pos_time.42296:
	.zero	128
	.type	pstVdecUsdPool, %object
	.size	pstVdecUsdPool, 256
pstVdecUsdPool:
	.zero	256
	.text
.Letext0:
	.file 2 "/mnt/disk/jenkins/ci/workspace/chipset_pipeline_release/opensource/component_code/vendor/huawei/extra/build/build_script/kirin_kernel_release/kernel/drivers/vcodec/hi_vcodec/vdec/include/hi_type.h"
	.file 3 "/mnt/disk/jenkins/ci/workspace/chipset_pipeline_release/opensource/component_code/vendor/huawei/extra/build/build_script/kirin_kernel_release/kernel/drivers/vcodec/hi_vcodec/vdec/vfmw/vfmw_v4.0/vfmw.h"
	.file 4 "/mnt/disk/jenkins/ci/workspace/chipset_pipeline_release/opensource/component_code/vendor/huawei/extra/build/build_script/kirin_kernel_release/kernel/include/uapi/asm-generic/int-ll64.h"
	.file 5 "/mnt/disk/jenkins/ci/workspace/chipset_pipeline_release/opensource/component_code/vendor/huawei/extra/build/build_script/kirin_kernel_release/kernel/include/asm-generic/int-ll64.h"
	.file 6 "/mnt/disk/jenkins/ci/workspace/chipset_pipeline_release/opensource/component_code/vendor/huawei/extra/build/build_script/kirin_kernel_release/kernel/include/uapi/asm-generic/posix_types.h"
	.file 7 "/mnt/disk/jenkins/ci/workspace/chipset_pipeline_release/opensource/component_code/vendor/huawei/extra/build/build_script/kirin_kernel_release/kernel/include/linux/export.h"
	.file 8 "/mnt/disk/jenkins/ci/workspace/chipset_pipeline_release/opensource/component_code/vendor/huawei/extra/build/build_script/kirin_kernel_release/kernel/include/linux/types.h"
	.file 9 "/mnt/disk/jenkins/ci/workspace/chipset_pipeline_release/opensource/component_code/vendor/huawei/extra/build/build_script/kirin_kernel_release/kernel/include/asm-generic/bug.h"
	.file 10 "/mnt/disk/jenkins/ci/workspace/chipset_pipeline_release/opensource/component_code/vendor/huawei/extra/build/build_script/kirin_kernel_release/kernel/include/linux/restart_block.h"
	.file 11 "/mnt/disk/jenkins/ci/workspace/chipset_pipeline_release/opensource/component_code/vendor/huawei/extra/build/build_script/kirin_kernel_release/kernel/include/uapi/linux/time.h"
	.file 12 "/mnt/disk/jenkins/ci/workspace/chipset_pipeline_release/opensource/component_code/vendor/huawei/extra/build/build_script/kirin_kernel_release/kernel/arch/arm64/include/asm/compat.h"
	.file 13 "/mnt/disk/jenkins/ci/workspace/chipset_pipeline_release/opensource/component_code/vendor/huawei/extra/build/build_script/kirin_kernel_release/kernel/include/uapi/asm-generic/poll.h"
	.file 14 "/mnt/disk/jenkins/ci/workspace/chipset_pipeline_release/opensource/component_code/vendor/huawei/extra/build/build_script/kirin_kernel_release/kernel/arch/arm64/include/asm/thread_info.h"
	.file 15 "/mnt/disk/jenkins/ci/workspace/chipset_pipeline_release/opensource/component_code/vendor/huawei/extra/build/build_script/kirin_kernel_release/kernel/arch/arm64/include/uapi/asm/ptrace.h"
	.file 16 "/mnt/disk/jenkins/ci/workspace/chipset_pipeline_release/opensource/component_code/vendor/huawei/extra/build/build_script/kirin_kernel_release/kernel/arch/arm64/include/asm/ptrace.h"
	.file 17 "/mnt/disk/jenkins/ci/workspace/chipset_pipeline_release/opensource/component_code/vendor/huawei/extra/build/build_script/kirin_kernel_release/kernel/arch/arm64/include/asm/spinlock_types.h"
	.file 18 "/mnt/disk/jenkins/ci/workspace/chipset_pipeline_release/opensource/component_code/vendor/huawei/extra/build/build_script/kirin_kernel_release/kernel/include/linux/spinlock_types.h"
	.file 19 "/mnt/disk/jenkins/ci/workspace/chipset_pipeline_release/opensource/component_code/vendor/huawei/extra/build/build_script/kirin_kernel_release/kernel/include/linux/rwlock_types.h"
	.file 20 "/mnt/disk/jenkins/ci/workspace/chipset_pipeline_release/opensource/component_code/vendor/huawei/extra/build/build_script/kirin_kernel_release/kernel/arch/arm64/include/asm/fpsimd.h"
	.file 21 "/mnt/disk/jenkins/ci/workspace/chipset_pipeline_release/opensource/component_code/vendor/huawei/extra/build/build_script/kirin_kernel_release/kernel/include/linux/jump_label.h"
	.file 22 "/mnt/disk/jenkins/ci/workspace/chipset_pipeline_release/opensource/component_code/vendor/huawei/extra/build/build_script/kirin_kernel_release/kernel/include/asm-generic/atomic-long.h"
	.file 23 "/mnt/disk/jenkins/ci/workspace/chipset_pipeline_release/opensource/component_code/vendor/huawei/extra/build/build_script/kirin_kernel_release/kernel/arch/arm64/include/asm/hw_breakpoint.h"
	.file 24 "/mnt/disk/jenkins/ci/workspace/chipset_pipeline_release/opensource/component_code/vendor/huawei/extra/build/build_script/kirin_kernel_release/kernel/arch/arm64/include/asm/processor.h"
	.file 25 "/mnt/disk/jenkins/ci/workspace/chipset_pipeline_release/opensource/component_code/vendor/huawei/extra/build/build_script/kirin_kernel_release/kernel/include/linux/perf_event.h"
	.file 26 "/mnt/disk/jenkins/ci/workspace/chipset_pipeline_release/opensource/component_code/vendor/huawei/extra/build/build_script/kirin_kernel_release/kernel/include/linux/wait.h"
	.file 27 "/mnt/disk/jenkins/ci/workspace/chipset_pipeline_release/opensource/component_code/vendor/huawei/extra/build/build_script/kirin_kernel_release/kernel/include/linux/seqlock.h"
	.file 28 "/mnt/disk/jenkins/ci/workspace/chipset_pipeline_release/opensource/component_code/vendor/huawei/extra/build/build_script/kirin_kernel_release/kernel/include/linux/nodemask.h"
	.file 29 "/mnt/disk/jenkins/ci/workspace/chipset_pipeline_release/opensource/component_code/vendor/huawei/extra/build/build_script/kirin_kernel_release/kernel/include/linux/cpumask.h"
	.file 30 "/mnt/disk/jenkins/ci/workspace/chipset_pipeline_release/opensource/component_code/vendor/huawei/extra/build/build_script/kirin_kernel_release/kernel/include/linux/completion.h"
	.file 31 "/mnt/disk/jenkins/ci/workspace/chipset_pipeline_release/opensource/component_code/vendor/huawei/extra/build/build_script/kirin_kernel_release/kernel/include/linux/time64.h"
	.file 32 "/mnt/disk/jenkins/ci/workspace/chipset_pipeline_release/opensource/component_code/vendor/huawei/extra/build/build_script/kirin_kernel_release/kernel/include/linux/ktime.h"
	.file 33 "/mnt/disk/jenkins/ci/workspace/chipset_pipeline_release/opensource/component_code/vendor/huawei/extra/build/build_script/kirin_kernel_release/kernel/include/linux/rbtree.h"
	.file 34 "/mnt/disk/jenkins/ci/workspace/chipset_pipeline_release/opensource/component_code/vendor/huawei/extra/build/build_script/kirin_kernel_release/kernel/include/linux/osq_lock.h"
	.file 35 "/mnt/disk/jenkins/ci/workspace/chipset_pipeline_release/opensource/component_code/vendor/huawei/extra/build/build_script/kirin_kernel_release/kernel/include/linux/rwsem.h"
	.file 36 "/mnt/disk/jenkins/ci/workspace/chipset_pipeline_release/opensource/component_code/vendor/huawei/extra/build/build_script/kirin_kernel_release/kernel/include/linux/sched.h"
	.file 37 "/mnt/disk/jenkins/ci/workspace/chipset_pipeline_release/opensource/component_code/vendor/huawei/extra/build/build_script/kirin_kernel_release/kernel/include/linux/mm_types.h"
	.file 38 "/mnt/disk/jenkins/ci/workspace/chipset_pipeline_release/opensource/component_code/vendor/huawei/extra/build/build_script/kirin_kernel_release/kernel/include/linux/lockdep.h"
	.file 39 "/mnt/disk/jenkins/ci/workspace/chipset_pipeline_release/opensource/component_code/vendor/huawei/extra/build/build_script/kirin_kernel_release/kernel/include/linux/uprobes.h"
	.file 40 "/mnt/disk/jenkins/ci/workspace/chipset_pipeline_release/opensource/component_code/vendor/huawei/extra/build/build_script/kirin_kernel_release/kernel/include/linux/timer.h"
	.file 41 "/mnt/disk/jenkins/ci/workspace/chipset_pipeline_release/opensource/component_code/vendor/huawei/extra/build/build_script/kirin_kernel_release/kernel/include/linux/uidgid.h"
	.file 42 "/mnt/disk/jenkins/ci/workspace/chipset_pipeline_release/opensource/component_code/vendor/huawei/extra/build/build_script/kirin_kernel_release/kernel/include/linux/sysctl.h"
	.file 43 "/mnt/disk/jenkins/ci/workspace/chipset_pipeline_release/opensource/component_code/vendor/huawei/extra/build/build_script/kirin_kernel_release/kernel/include/linux/workqueue.h"
	.file 44 "/mnt/disk/jenkins/ci/workspace/chipset_pipeline_release/opensource/component_code/vendor/huawei/extra/build/build_script/kirin_kernel_release/kernel/arch/arm64/include/asm/pgtable-types.h"
	.file 45 "/mnt/disk/jenkins/ci/workspace/chipset_pipeline_release/opensource/component_code/vendor/huawei/extra/build/build_script/kirin_kernel_release/kernel/arch/arm64/include/asm/page.h"
	.file 46 "/mnt/disk/jenkins/ci/workspace/chipset_pipeline_release/opensource/component_code/vendor/huawei/extra/build/build_script/kirin_kernel_release/kernel/include/linux/llist.h"
	.file 47 "/mnt/disk/jenkins/ci/workspace/chipset_pipeline_release/opensource/component_code/vendor/huawei/extra/build/build_script/kirin_kernel_release/kernel/arch/arm64/include/asm/smp.h"
	.file 48 "/mnt/disk/jenkins/ci/workspace/chipset_pipeline_release/opensource/component_code/vendor/huawei/extra/build/build_script/kirin_kernel_release/kernel/arch/arm64/include/asm/mmu.h"
	.file 49 "/mnt/disk/jenkins/ci/workspace/chipset_pipeline_release/opensource/component_code/vendor/huawei/extra/build/build_script/kirin_kernel_release/kernel/include/linux/fs.h"
	.file 50 "/mnt/disk/jenkins/ci/workspace/chipset_pipeline_release/opensource/component_code/vendor/huawei/extra/build/build_script/kirin_kernel_release/kernel/include/linux/mm.h"
	.file 51 "/mnt/disk/jenkins/ci/workspace/chipset_pipeline_release/opensource/component_code/vendor/huawei/extra/build/build_script/kirin_kernel_release/kernel/include/linux/user_namespace.h"
	.file 52 "/mnt/disk/jenkins/ci/workspace/chipset_pipeline_release/opensource/component_code/vendor/huawei/extra/build/build_script/kirin_kernel_release/kernel/include/linux/mmzone.h"
	.file 53 "/mnt/disk/jenkins/ci/workspace/chipset_pipeline_release/opensource/component_code/vendor/huawei/extra/build/build_script/kirin_kernel_release/kernel/include/linux/mutex.h"
	.file 54 "/mnt/disk/jenkins/ci/workspace/chipset_pipeline_release/opensource/component_code/vendor/huawei/extra/build/build_script/kirin_kernel_release/kernel/include/linux/percpu-refcount.h"
	.file 55 "/mnt/disk/jenkins/ci/workspace/chipset_pipeline_release/opensource/component_code/vendor/huawei/extra/build/build_script/kirin_kernel_release/kernel/include/linux/shrinker.h"
	.file 56 "/mnt/disk/jenkins/ci/workspace/chipset_pipeline_release/opensource/component_code/vendor/huawei/extra/build/build_script/kirin_kernel_release/kernel/include/uapi/linux/resource.h"
	.file 57 "/mnt/disk/jenkins/ci/workspace/chipset_pipeline_release/opensource/component_code/vendor/huawei/extra/build/build_script/kirin_kernel_release/kernel/include/linux/tracepoint-defs.h"
	.file 58 "/mnt/disk/jenkins/ci/workspace/chipset_pipeline_release/opensource/component_code/vendor/huawei/extra/build/build_script/kirin_kernel_release/kernel/include/linux/vmstat.h"
	.file 59 "/mnt/disk/jenkins/ci/workspace/chipset_pipeline_release/opensource/component_code/vendor/huawei/extra/build/build_script/kirin_kernel_release/kernel/include/linux/capability.h"
	.file 60 "/mnt/disk/jenkins/ci/workspace/chipset_pipeline_release/opensource/component_code/vendor/huawei/extra/build/build_script/kirin_kernel_release/kernel/include/linux/plist.h"
	.file 61 "/mnt/disk/jenkins/ci/workspace/chipset_pipeline_release/opensource/component_code/vendor/huawei/extra/build/build_script/kirin_kernel_release/kernel/include/asm-generic/cputime_jiffies.h"
	.file 62 "/mnt/disk/jenkins/ci/workspace/chipset_pipeline_release/opensource/component_code/vendor/huawei/extra/build/build_script/kirin_kernel_release/kernel/include/uapi/asm-generic/signal.h"
	.file 63 "/mnt/disk/jenkins/ci/workspace/chipset_pipeline_release/opensource/component_code/vendor/huawei/extra/build/build_script/kirin_kernel_release/kernel/include/uapi/asm-generic/signal-defs.h"
	.file 64 "/mnt/disk/jenkins/ci/workspace/chipset_pipeline_release/opensource/component_code/vendor/huawei/extra/build/build_script/kirin_kernel_release/kernel/include/uapi/asm-generic/siginfo.h"
	.file 65 "/mnt/disk/jenkins/ci/workspace/chipset_pipeline_release/opensource/component_code/vendor/huawei/extra/build/build_script/kirin_kernel_release/kernel/include/linux/signal.h"
	.file 66 "/mnt/disk/jenkins/ci/workspace/chipset_pipeline_release/opensource/component_code/vendor/huawei/extra/build/build_script/kirin_kernel_release/kernel/include/linux/pid.h"
	.file 67 "/mnt/disk/jenkins/ci/workspace/chipset_pipeline_release/opensource/component_code/vendor/huawei/extra/build/build_script/kirin_kernel_release/kernel/include/linux/pid_namespace.h"
	.file 68 "/mnt/disk/jenkins/ci/workspace/chipset_pipeline_release/opensource/component_code/vendor/huawei/extra/build/build_script/kirin_kernel_release/kernel/include/linux/seccomp.h"
	.file 69 "/mnt/disk/jenkins/ci/workspace/chipset_pipeline_release/opensource/component_code/vendor/huawei/extra/build/build_script/kirin_kernel_release/kernel/include/linux/timerqueue.h"
	.file 70 "/mnt/disk/jenkins/ci/workspace/chipset_pipeline_release/opensource/component_code/vendor/huawei/extra/build/build_script/kirin_kernel_release/kernel/include/linux/hrtimer.h"
	.file 71 "/mnt/disk/jenkins/ci/workspace/chipset_pipeline_release/opensource/component_code/vendor/huawei/extra/build/build_script/kirin_kernel_release/kernel/include/linux/task_io_accounting.h"
	.file 72 "/mnt/disk/jenkins/ci/workspace/chipset_pipeline_release/opensource/component_code/vendor/huawei/extra/build/build_script/kirin_kernel_release/kernel/include/linux/assoc_array.h"
	.file 73 "/mnt/disk/jenkins/ci/workspace/chipset_pipeline_release/opensource/component_code/vendor/huawei/extra/build/build_script/kirin_kernel_release/kernel/include/linux/key.h"
	.file 74 "/mnt/disk/jenkins/ci/workspace/chipset_pipeline_release/opensource/component_code/vendor/huawei/extra/build/build_script/kirin_kernel_release/kernel/include/linux/cred.h"
	.file 75 "/mnt/disk/jenkins/ci/workspace/chipset_pipeline_release/opensource/component_code/vendor/huawei/extra/build/build_script/kirin_kernel_release/kernel/include/linux/idr.h"
	.file 76 "/mnt/disk/jenkins/ci/workspace/chipset_pipeline_release/opensource/component_code/vendor/huawei/extra/build/build_script/kirin_kernel_release/kernel/include/linux/rcu_sync.h"
	.file 77 "/mnt/disk/jenkins/ci/workspace/chipset_pipeline_release/opensource/component_code/vendor/huawei/extra/build/build_script/kirin_kernel_release/kernel/include/linux/percpu-rwsem.h"
	.file 78 "/mnt/disk/jenkins/ci/workspace/chipset_pipeline_release/opensource/component_code/vendor/huawei/extra/build/build_script/kirin_kernel_release/kernel/include/linux/bpf-cgroup.h"
	.file 79 "/mnt/disk/jenkins/ci/workspace/chipset_pipeline_release/opensource/component_code/vendor/huawei/extra/build/build_script/kirin_kernel_release/kernel/include/linux/cgroup-defs.h"
	.file 80 "/mnt/disk/jenkins/ci/workspace/chipset_pipeline_release/opensource/component_code/vendor/huawei/extra/build/build_script/kirin_kernel_release/kernel/include/linux/kernfs.h"
	.file 81 "/mnt/disk/jenkins/ci/workspace/chipset_pipeline_release/opensource/component_code/vendor/huawei/extra/build/build_script/kirin_kernel_release/kernel/include/linux/seq_file.h"
	.file 82 "/mnt/disk/jenkins/ci/workspace/chipset_pipeline_release/opensource/component_code/vendor/huawei/extra/build/build_script/kirin_kernel_release/kernel/include/uapi/linux/taskstats.h"
	.file 83 "/mnt/disk/jenkins/ci/workspace/chipset_pipeline_release/opensource/component_code/vendor/huawei/extra/build/build_script/kirin_kernel_release/kernel/include/linux/nsproxy.h"
	.file 84 "/mnt/disk/jenkins/ci/workspace/chipset_pipeline_release/opensource/component_code/vendor/huawei/extra/build/build_script/kirin_kernel_release/kernel/include/linux/compat.h"
	.file 85 "/mnt/disk/jenkins/ci/workspace/chipset_pipeline_release/opensource/component_code/vendor/huawei/extra/build/build_script/kirin_kernel_release/kernel/include/linux/stat.h"
	.file 86 "/mnt/disk/jenkins/ci/workspace/chipset_pipeline_release/opensource/component_code/vendor/huawei/extra/build/build_script/kirin_kernel_release/kernel/include/uapi/linux/elf.h"
	.file 87 "/mnt/disk/jenkins/ci/workspace/chipset_pipeline_release/opensource/component_code/vendor/huawei/extra/build/build_script/kirin_kernel_release/kernel/include/linux/kobject_ns.h"
	.file 88 "/mnt/disk/jenkins/ci/workspace/chipset_pipeline_release/opensource/component_code/vendor/huawei/extra/build/build_script/kirin_kernel_release/kernel/include/linux/sysfs.h"
	.file 89 "/mnt/disk/jenkins/ci/workspace/chipset_pipeline_release/opensource/component_code/vendor/huawei/extra/build/build_script/kirin_kernel_release/kernel/include/linux/kobject.h"
	.file 90 "/mnt/disk/jenkins/ci/workspace/chipset_pipeline_release/opensource/component_code/vendor/huawei/extra/build/build_script/kirin_kernel_release/kernel/include/linux/kref.h"
	.file 91 "/mnt/disk/jenkins/ci/workspace/chipset_pipeline_release/opensource/component_code/vendor/huawei/extra/build/build_script/kirin_kernel_release/kernel/include/linux/moduleparam.h"
	.file 92 "/mnt/disk/jenkins/ci/workspace/chipset_pipeline_release/opensource/component_code/vendor/huawei/extra/build/build_script/kirin_kernel_release/kernel/include/linux/module.h"
	.file 93 "/mnt/disk/jenkins/ci/workspace/chipset_pipeline_release/opensource/component_code/vendor/huawei/extra/build/build_script/kirin_kernel_release/kernel/include/linux/rbtree_latch.h"
	.file 94 "/mnt/disk/jenkins/ci/workspace/chipset_pipeline_release/opensource/component_code/vendor/huawei/extra/build/build_script/kirin_kernel_release/kernel/arch/arm64/include/asm/module.h"
	.file 95 "/mnt/disk/jenkins/ci/workspace/chipset_pipeline_release/opensource/component_code/vendor/huawei/extra/build/build_script/kirin_kernel_release/kernel/arch/arm64/include/asm/uaccess.h"
	.file 96 "/mnt/disk/jenkins/ci/workspace/chipset_pipeline_release/opensource/component_code/vendor/huawei/extra/build/build_script/kirin_kernel_release/kernel/include/linux/trace_events.h"
	.file 97 "/mnt/disk/jenkins/ci/workspace/chipset_pipeline_release/opensource/component_code/vendor/huawei/extra/build/build_script/kirin_kernel_release/kernel/include/linux/tracepoint.h"
	.file 98 "/mnt/disk/jenkins/ci/workspace/chipset_pipeline_release/opensource/component_code/vendor/huawei/extra/build/build_script/kirin_kernel_release/kernel/include/linux/percpu_counter.h"
	.file 99 "/mnt/disk/jenkins/ci/workspace/chipset_pipeline_release/opensource/component_code/vendor/huawei/extra/build/build_script/kirin_kernel_release/kernel/include/linux/quota.h"
	.file 100 "/mnt/disk/jenkins/ci/workspace/chipset_pipeline_release/opensource/component_code/vendor/huawei/extra/build/build_script/kirin_kernel_release/kernel/include/linux/projid.h"
	.file 101 "/mnt/disk/jenkins/ci/workspace/chipset_pipeline_release/opensource/component_code/vendor/huawei/extra/build/build_script/kirin_kernel_release/kernel/include/linux/path.h"
	.file 102 "/mnt/disk/jenkins/ci/workspace/chipset_pipeline_release/opensource/component_code/vendor/huawei/extra/build/build_script/kirin_kernel_release/kernel/include/linux/list_bl.h"
	.file 103 "/mnt/disk/jenkins/ci/workspace/chipset_pipeline_release/opensource/component_code/vendor/huawei/extra/build/build_script/kirin_kernel_release/kernel/include/linux/lockref.h"
	.file 104 "/mnt/disk/jenkins/ci/workspace/chipset_pipeline_release/opensource/component_code/vendor/huawei/extra/build/build_script/kirin_kernel_release/kernel/include/linux/dcache.h"
	.file 105 "/mnt/disk/jenkins/ci/workspace/chipset_pipeline_release/opensource/component_code/vendor/huawei/extra/build/build_script/kirin_kernel_release/kernel/include/linux/list_lru.h"
	.file 106 "/mnt/disk/jenkins/ci/workspace/chipset_pipeline_release/opensource/component_code/vendor/huawei/extra/build/build_script/kirin_kernel_release/kernel/include/linux/radix-tree.h"
	.file 107 "/mnt/disk/jenkins/ci/workspace/chipset_pipeline_release/opensource/component_code/vendor/huawei/extra/build/build_script/kirin_kernel_release/kernel/include/uapi/linux/fiemap.h"
	.file 108 "/mnt/disk/jenkins/ci/workspace/chipset_pipeline_release/opensource/component_code/vendor/huawei/extra/build/build_script/kirin_kernel_release/kernel/include/linux/migrate_mode.h"
	.file 109 "/mnt/disk/jenkins/ci/workspace/chipset_pipeline_release/opensource/component_code/vendor/huawei/extra/build/build_script/kirin_kernel_release/kernel/include/linux/bvec.h"
	.file 110 "/mnt/disk/jenkins/ci/workspace/chipset_pipeline_release/opensource/component_code/vendor/huawei/extra/build/build_script/kirin_kernel_release/kernel/include/linux/delayed_call.h"
	.file 111 "/mnt/disk/jenkins/ci/workspace/chipset_pipeline_release/opensource/component_code/vendor/huawei/extra/build/build_script/kirin_kernel_release/kernel/include/linux/uio.h"
	.file 112 "/mnt/disk/jenkins/ci/workspace/chipset_pipeline_release/opensource/component_code/vendor/huawei/extra/build/build_script/kirin_kernel_release/kernel/include/linux/nfs_fs_i.h"
	.file 113 "/mnt/disk/jenkins/ci/workspace/chipset_pipeline_release/opensource/component_code/vendor/huawei/extra/build/build_script/kirin_kernel_release/kernel/include/linux/poll.h"
	.file 114 "/mnt/disk/jenkins/ci/workspace/chipset_pipeline_release/opensource/component_code/vendor/huawei/extra/build/build_script/kirin_kernel_release/kernel/include/linux/seq_buf.h"
	.file 115 "/mnt/disk/jenkins/ci/workspace/chipset_pipeline_release/opensource/component_code/vendor/huawei/extra/build/build_script/kirin_kernel_release/kernel/include/linux/trace_seq.h"
	.file 116 "/mnt/disk/jenkins/ci/workspace/chipset_pipeline_release/opensource/component_code/vendor/huawei/extra/build/build_script/kirin_kernel_release/kernel/include/uapi/linux/perf_event.h"
	.file 117 "/mnt/disk/jenkins/ci/workspace/chipset_pipeline_release/opensource/component_code/vendor/huawei/extra/build/build_script/kirin_kernel_release/kernel/include/asm-generic/local.h"
	.file 118 "/mnt/disk/jenkins/ci/workspace/chipset_pipeline_release/opensource/component_code/vendor/huawei/extra/build/build_script/kirin_kernel_release/kernel/include/asm-generic/local64.h"
	.file 119 "/mnt/disk/jenkins/ci/workspace/chipset_pipeline_release/opensource/component_code/vendor/huawei/extra/build/build_script/kirin_kernel_release/kernel/include/linux/cgroup.h"
	.file 120 "/mnt/disk/jenkins/ci/workspace/chipset_pipeline_release/opensource/component_code/vendor/huawei/extra/build/build_script/kirin_kernel_release/kernel/include/linux/ns_common.h"
	.file 121 "/mnt/disk/jenkins/ci/workspace/chipset_pipeline_release/opensource/component_code/vendor/huawei/extra/build/build_script/kirin_kernel_release/kernel/include/uapi/linux/uio.h"
	.file 122 "/mnt/disk/jenkins/ci/workspace/chipset_pipeline_release/opensource/component_code/vendor/huawei/extra/build/build_script/kirin_kernel_release/kernel/include/linux/ftrace.h"
	.file 123 "/mnt/disk/jenkins/ci/workspace/chipset_pipeline_release/opensource/component_code/vendor/huawei/extra/build/build_script/kirin_kernel_release/kernel/include/linux/klist.h"
	.file 124 "/mnt/disk/jenkins/ci/workspace/chipset_pipeline_release/opensource/component_code/vendor/huawei/extra/build/build_script/kirin_kernel_release/kernel/include/linux/pinctrl/devinfo.h"
	.file 125 "/mnt/disk/jenkins/ci/workspace/chipset_pipeline_release/opensource/component_code/vendor/huawei/extra/build/build_script/kirin_kernel_release/kernel/include/linux/pm.h"
	.file 126 "/mnt/disk/jenkins/ci/workspace/chipset_pipeline_release/opensource/component_code/vendor/huawei/extra/build/build_script/kirin_kernel_release/kernel/include/linux/device.h"
	.file 127 "/mnt/disk/jenkins/ci/workspace/chipset_pipeline_release/opensource/component_code/vendor/huawei/extra/build/build_script/kirin_kernel_release/kernel/include/linux/pm_wakeup.h"
	.file 128 "/mnt/disk/jenkins/ci/workspace/chipset_pipeline_release/opensource/component_code/vendor/huawei/extra/build/build_script/kirin_kernel_release/kernel/arch/arm64/include/asm/device.h"
	.file 129 "/mnt/disk/jenkins/ci/workspace/chipset_pipeline_release/opensource/component_code/vendor/huawei/extra/build/build_script/kirin_kernel_release/kernel/include/linux/irq_work.h"
	.file 130 "/mnt/disk/jenkins/ci/workspace/chipset_pipeline_release/opensource/component_code/vendor/huawei/extra/build/build_script/kirin_kernel_release/kernel/include/linux/perf_regs.h"
	.file 131 "/mnt/disk/jenkins/ci/workspace/chipset_pipeline_release/opensource/component_code/vendor/huawei/extra/build/build_script/kirin_kernel_release/kernel/include/linux/interrupt.h"
	.file 132 "/mnt/disk/jenkins/ci/workspace/chipset_pipeline_release/opensource/component_code/vendor/huawei/extra/build/build_script/kirin_kernel_release/kernel/drivers/vcodec/hi_vcodec/vdec/vfmw/vfmw_v4.0/firmware/common/mem_manage.h"
	.file 133 "/mnt/disk/jenkins/ci/workspace/chipset_pipeline_release/opensource/component_code/vendor/huawei/extra/build/build_script/kirin_kernel_release/kernel/drivers/vcodec/hi_vcodec/vdec/vfmw/vfmw_v4.0/firmware/osal/vfmw_osal_ext.h"
	.file 134 "/mnt/disk/jenkins/ci/workspace/chipset_pipeline_release/opensource/component_code/vendor/huawei/extra/build/build_script/kirin_kernel_release/kernel/drivers/vcodec/hi_vcodec/vdec/vfmw/vfmw_v4.0/firmware/driver/HiSCDV200/scd_drv.h"
	.file 135 "/mnt/disk/jenkins/ci/workspace/chipset_pipeline_release/opensource/component_code/vendor/huawei/extra/build/build_script/kirin_kernel_release/kernel/drivers/vcodec/hi_vcodec/vdec/vfmw/vfmw_v4.0/firmware/common/syn_cmn.h"
	.file 136 "/mnt/disk/jenkins/ci/workspace/chipset_pipeline_release/opensource/component_code/vendor/huawei/extra/build/build_script/kirin_kernel_release/kernel/drivers/vcodec/hi_vcodec/vdec/vfmw/vfmw_v4.0/firmware/common/decparam.h"
	.file 137 "/mnt/disk/jenkins/ci/workspace/chipset_pipeline_release/opensource/component_code/vendor/huawei/extra/build/build_script/kirin_kernel_release/kernel/drivers/vcodec/hi_vcodec/vdec/vfmw/vfmw_v4.0/firmware/common/vdm_hal.h"
	.file 138 "/mnt/disk/jenkins/ci/workspace/chipset_pipeline_release/opensource/component_code/vendor/huawei/extra/build/build_script/kirin_kernel_release/kernel/drivers/vcodec/hi_vcodec/vdec/vfmw/vfmw_v4.0/firmware/common/public.h"
	.file 139 "/mnt/disk/jenkins/ci/workspace/chipset_pipeline_release/opensource/component_code/vendor/huawei/extra/build/build_script/kirin_kernel_release/kernel/drivers/vcodec/hi_vcodec/vdec/vfmw/vfmw_v4.0/firmware/common/bitstream.h"
	.file 140 "/mnt/disk/jenkins/ci/workspace/chipset_pipeline_release/opensource/component_code/vendor/huawei/extra/build/build_script/kirin_kernel_release/kernel/drivers/vcodec/hi_vcodec/vdec/vfmw/vfmw_v4.0/firmware/common/syntax/mpeg2.h"
	.file 141 "/mnt/disk/jenkins/ci/workspace/chipset_pipeline_release/opensource/component_code/vendor/huawei/extra/build/build_script/kirin_kernel_release/kernel/drivers/vcodec/hi_vcodec/vdec/vfmw/vfmw_v4.0/firmware/common/syntax/mpeg4.h"
	.file 142 "/mnt/disk/jenkins/ci/workspace/chipset_pipeline_release/opensource/component_code/vendor/huawei/extra/build/build_script/kirin_kernel_release/kernel/drivers/vcodec/hi_vcodec/vdec/vfmw/vfmw_v4.0/firmware/common/syntax/h264.h"
	.file 143 "/mnt/disk/jenkins/ci/workspace/chipset_pipeline_release/opensource/component_code/vendor/huawei/extra/build/build_script/kirin_kernel_release/kernel/drivers/vcodec/hi_vcodec/vdec/vfmw/vfmw_v4.0/firmware/common/syntax/hevc.h"
	.file 144 "/mnt/disk/jenkins/ci/workspace/chipset_pipeline_release/opensource/component_code/vendor/huawei/extra/build/build_script/kirin_kernel_release/kernel/drivers/vcodec/hi_vcodec/vdec/vfmw/vfmw_v4.0/firmware/common/syntax/vc1.h"
	.file 145 "/mnt/disk/jenkins/ci/workspace/chipset_pipeline_release/opensource/component_code/vendor/huawei/extra/build/build_script/kirin_kernel_release/kernel/drivers/vcodec/hi_vcodec/vdec/vfmw/vfmw_v4.0/firmware/common/syntax/real8.h"
	.file 146 "/mnt/disk/jenkins/ci/workspace/chipset_pipeline_release/opensource/component_code/vendor/huawei/extra/build/build_script/kirin_kernel_release/kernel/drivers/vcodec/hi_vcodec/vdec/vfmw/vfmw_v4.0/firmware/common/syntax/real9.h"
	.file 147 "/mnt/disk/jenkins/ci/workspace/chipset_pipeline_release/opensource/component_code/vendor/huawei/extra/build/build_script/kirin_kernel_release/kernel/drivers/vcodec/hi_vcodec/vdec/vfmw/vfmw_v4.0/firmware/common/syntax/divx3.h"
	.file 148 "/mnt/disk/jenkins/ci/workspace/chipset_pipeline_release/opensource/component_code/vendor/huawei/extra/build/build_script/kirin_kernel_release/kernel/drivers/vcodec/hi_vcodec/vdec/vfmw/vfmw_v4.0/firmware/common/syntax/vp6.h"
	.file 149 "/mnt/disk/jenkins/ci/workspace/chipset_pipeline_release/opensource/component_code/vendor/huawei/extra/build/build_script/kirin_kernel_release/kernel/drivers/vcodec/hi_vcodec/vdec/vfmw/vfmw_v4.0/firmware/common/syntax/vp8.h"
	.file 150 "/mnt/disk/jenkins/ci/workspace/chipset_pipeline_release/opensource/component_code/vendor/huawei/extra/build/build_script/kirin_kernel_release/kernel/drivers/vcodec/hi_vcodec/vdec/vfmw/vfmw_v4.0/firmware/common/syntax/syntax.h"
	.file 151 "/mnt/disk/jenkins/ci/workspace/chipset_pipeline_release/opensource/component_code/vendor/huawei/extra/build/build_script/kirin_kernel_release/kernel/drivers/vcodec/hi_vcodec/vdec/vfmw/vfmw_v4.0/firmware/common/fsp.h"
	.file 152 "/mnt/disk/jenkins/ci/workspace/chipset_pipeline_release/opensource/component_code/vendor/huawei/extra/build/build_script/kirin_kernel_release/kernel/drivers/vcodec/hi_vcodec/vdec/vfmw/vfmw_v4.0/firmware/common/vfmw_ctrl.h"
	.file 153 "/mnt/disk/jenkins/ci/workspace/chipset_pipeline_release/opensource/component_code/vendor/huawei/extra/build/build_script/kirin_kernel_release/kernel/arch/arm64/include/asm/cachetype.h"
	.file 154 "/mnt/disk/jenkins/ci/workspace/chipset_pipeline_release/opensource/component_code/vendor/huawei/extra/build/build_script/kirin_kernel_release/kernel/include/linux/printk.h"
	.file 155 "/mnt/disk/jenkins/ci/workspace/chipset_pipeline_release/opensource/component_code/vendor/huawei/extra/build/build_script/kirin_kernel_release/kernel/include/linux/kernel.h"
	.file 156 "/mnt/disk/jenkins/ci/workspace/chipset_pipeline_release/opensource/component_code/vendor/huawei/extra/build/build_script/kirin_kernel_release/kernel/arch/arm64/include/asm/stack_pointer.h"
	.file 157 "/mnt/disk/jenkins/ci/workspace/chipset_pipeline_release/opensource/component_code/vendor/huawei/extra/build/build_script/kirin_kernel_release/kernel/arch/arm64/include/asm/hwcap.h"
	.file 158 "/mnt/disk/jenkins/ci/workspace/chipset_pipeline_release/opensource/component_code/vendor/huawei/extra/build/build_script/kirin_kernel_release/kernel/arch/arm64/include/asm/cpufeature.h"
	.file 159 "/mnt/disk/jenkins/ci/workspace/chipset_pipeline_release/opensource/component_code/vendor/huawei/extra/build/build_script/kirin_kernel_release/kernel/arch/arm64/include/asm/virt.h"
	.file 160 "/mnt/disk/jenkins/ci/workspace/chipset_pipeline_release/opensource/component_code/vendor/huawei/extra/build/build_script/kirin_kernel_release/kernel/include/linux/jiffies.h"
	.file 161 "/mnt/disk/jenkins/ci/workspace/chipset_pipeline_release/opensource/component_code/vendor/huawei/extra/build/build_script/kirin_kernel_release/kernel/include/linux/highuid.h"
	.file 162 "/mnt/disk/jenkins/ci/workspace/chipset_pipeline_release/opensource/component_code/vendor/huawei/extra/build/build_script/kirin_kernel_release/kernel/arch/arm64/include/asm/memory.h"
	.file 163 "/mnt/disk/jenkins/ci/workspace/chipset_pipeline_release/opensource/component_code/vendor/huawei/extra/build/build_script/kirin_kernel_release/kernel/include/asm-generic/percpu.h"
	.file 164 "/mnt/disk/jenkins/ci/workspace/chipset_pipeline_release/opensource/component_code/vendor/huawei/extra/build/build_script/kirin_kernel_release/kernel/include/linux/debug_locks.h"
	.file 165 "/mnt/disk/jenkins/ci/workspace/chipset_pipeline_release/opensource/component_code/vendor/huawei/extra/build/build_script/kirin_kernel_release/kernel/include/asm-generic/pgtable.h"
	.file 166 "/mnt/disk/jenkins/ci/workspace/chipset_pipeline_release/opensource/component_code/vendor/huawei/extra/build/build_script/kirin_kernel_release/kernel/arch/arm64/include/asm/irq.h"
	.file 167 "/mnt/disk/jenkins/ci/workspace/chipset_pipeline_release/opensource/component_code/vendor/huawei/extra/build/build_script/kirin_kernel_release/kernel/arch/arm64/include/asm/hardirq.h"
	.file 168 "/mnt/disk/jenkins/ci/workspace/chipset_pipeline_release/opensource/component_code/vendor/huawei/extra/build/build_script/kirin_kernel_release/kernel/include/linux/slab.h"