	.cpu generic+fp+simd
	.file	"drv_venc_proc.c"
	.text
.Ltext0:
	.cfi_sections	.debug_frame
	.align	2
	.type	str2val, %function
str2val:
.LFB2798:
	.file 1 "/mnt/disk/jenkins/ci/workspace/chipset_pipeline_release/opensource/component_code/vendor/huawei/extra/build/build_script/kirin_kernel_release/kernel/drivers/vcodec/hi_vcodec/venc/drv/venc/drv_venc_proc.c"
	.loc 1 85 0
	.cfi_startproc
.LVL0:
	.loc 1 89 0
	ldrb	w2, [x0]
	cmp	w2, 48
	beq	.L14
	.loc 1 97 0
	mov	w4, 10
.LVL1:
	.loc 1 96 0
	mov	w3, 0
.LVL2:
.L2:
	mov	w5, 0
.LVL3:
	b	.L8
.L4:
	.loc 1 111 0
	sub	w2, w2, #48
	uxtb	w6, w2
	cmp	w6, 9
	bhi	.L11
.LVL4:
.L6:
	.loc 1 100 0
	add	w3, w3, 1
	.loc 1 100 0 is_stmt 0 discriminator 1
	cmp	w3, 10
	.loc 1 120 0 is_stmt 1
	madd	w5, w5, w4, w2
	.loc 1 100 0 discriminator 1
	beq	.L3
.L8:
	.loc 1 102 0
	ldrb	w2, [x0,w3,uxtw]
.LVL5:
	cmp	w2, 31
	bls	.L3
	.loc 1 103 0
	cmp	w4, 16
	bne	.L4
	.loc 1 103 0 is_stmt 0 discriminator 1
	cmp	w2, 96
	bls	.L5
	.loc 1 103 0 discriminator 2
	cmp	w2, 102
	bhi	.L4
	.loc 1 100 0 is_stmt 1
	add	w3, w3, 1
	.loc 1 105 0
	sub	w2, w2, #87
.LVL6:
	.loc 1 100 0 discriminator 1
	cmp	w3, 10
	.loc 1 120 0
	madd	w5, w5, w4, w2
	.loc 1 100 0 discriminator 1
	bne	.L8
.L3:
	.loc 1 123 0
	str	w5, [x1]
	.loc 1 125 0
	mov	w0, 0
.LVL7:
	.loc 1 126 0
	ret
.LVL8:
.L5:
	.loc 1 107 0 discriminator 1
	cmp	w2, 64
	bls	.L4
	.loc 1 107 0 is_stmt 0 discriminator 2
	cmp	w2, 70
	bhi	.L4
	.loc 1 109 0 is_stmt 1
	sub	w2, w2, #55
.LVL9:
	b	.L6
.LVL10:
.L11:
	.loc 1 117 0
	mov	w0, -1
.LVL11:
	.loc 1 126 0
	ret
.LVL12:
.L14:
	.loc 1 89 0 discriminator 1
	ldrb	w3, [x0,1]
	.loc 1 92 0
	mov	w4, 16
	mov	w2, 10
	.loc 1 89 0 discriminator 1
	and	w3, w3, -33
	uxtb	w3, w3
	.loc 1 92 0
	cmp	w3, 88
	csel	w4, w2, w4, ne
.LVL13:
	cmp	w3, 88
	mov	w3, 2
	csel	w3, wzr, w3, ne
.LVL14:
	b	.L2
	.cfi_endproc
.LFE2798:
	.size	str2val, .-str2val
	.align	2
	.type	VENC_DRV_MEM_ProcRead, %function
VENC_DRV_MEM_ProcRead:
.LFB2800:
	.loc 1 149 0
	.cfi_startproc
.LVL15:
	stp	x29, x30, [sp, -64]!
	.cfi_def_cfa_offset 64
	.cfi_offset 29, -64
	.cfi_offset 30, -56
	.loc 1 153 0
	adrp	x1, .LC2
.LVL16:
	.loc 1 149 0
	add	x29, sp, 0
	.cfi_def_cfa_register 29
	stp	x23, x24, [sp,48]
	.loc 1 153 0
	add	x1, x1, :lo12:.LC2
	.cfi_offset 23, -16
	.cfi_offset 24, -8
	.loc 1 155 0
	adrp	x24, gVencNodeNum
	.loc 1 149 0
	stp	x21, x22, [sp,32]
	stp	x19, x20, [sp,16]
	.cfi_offset 21, -32
	.cfi_offset 22, -24
	.cfi_offset 19, -48
	.cfi_offset 20, -40
	.loc 1 149 0
	mov	x22, x0
	.loc 1 153 0
	bl	seq_printf
.LVL17:
	.loc 1 155 0
	ldr	w3, [x24,#:lo12:gVencNodeNum]
	cmp	w3, wzr
	ble	.L19
	.loc 1 157 0
	adrp	x1, .LC3
	adrp	x2, .LC4
	adrp	x3, .LC5
	adrp	x4, .LC6
	adrp	x5, .LC7
	mov	x0, x22
	add	x1, x1, :lo12:.LC3
	add	x2, x2, :lo12:.LC4
	add	x3, x3, :lo12:.LC5
	add	x4, x4, :lo12:.LC6
	add	x5, x5, :lo12:.LC7
	adrp	x19, gVencMemNode
	adrp	x20, gVencMemNode+11200
	.loc 1 162 0
	adrp	x23, .LC8
	.loc 1 151 0
	mov	w21, 0
.LVL18:
	.loc 1 157 0
	bl	seq_printf
.LVL19:
	add	x19, x19, :lo12:gVencMemNode
	add	x20, x20, :lo12:gVencMemNode+11200
	.loc 1 162 0
	add	x23, x23, :lo12:.LC8
	b	.L18
.L17:
	add	x19, x19, 56
	.loc 1 158 0 discriminator 1
	cmp	x19, x20
	beq	.L24
.L18:
	.loc 1 160 0
	ldr	w4, [x19,40]
	cbz	w4, .L17
	.loc 1 162 0
	ldr	w5, [x19,44]
	mov	x2, x19
	add	x3, x19, 15
	mov	x0, x22
	mov	x1, x23
	add	x19, x19, 56
	bl	seq_printf
.LVL20:
	.loc 1 167 0
	ldr	w0, [x19,-12]
	.loc 1 158 0 discriminator 1
	cmp	x19, x20
	.loc 1 167 0
	add	w21, w21, w0
	.loc 1 158 0 discriminator 1
	bne	.L18
.L24:
	.loc 1 170 0
	adrp	x20, .LC9
	mov	x0, x22
	add	x1, x20, :lo12:.LC9
	bl	seq_printf
.LVL21:
	.loc 1 171 0
	adrp	x1, .LC10
	mov	x0, x22
	add	x1, x1, :lo12:.LC10
	bl	seq_printf
.LVL22:
	ldr	w3, [x24,#:lo12:gVencNodeNum]
.L16:
	.loc 1 174 0
	adrp	x19, .LC11
	adrp	x2, .LC12
	add	x19, x19, :lo12:.LC11
	mov	x0, x22
	mov	x1, x19
	add	x2, x2, :lo12:.LC12
	bl	seq_printf
.LVL23:
	.loc 1 175 0
	adrp	x2, .LC13
	mov	w3, w21
	add	x2, x2, :lo12:.LC13
	mov	x1, x19
	mov	x0, x22
	bl	seq_printf
.LVL24:
	.loc 1 176 0
	mov	x0, x22
	add	x1, x20, :lo12:.LC9
	bl	seq_printf
.LVL25:
	.loc 1 177 0
	adrp	x1, .LC14
	mov	x0, x22
	add	x1, x1, :lo12:.LC14
	bl	seq_printf
.LVL26:
	.loc 1 180 0
	mov	w0, 0
	ldp	x19, x20, [sp,16]
	.cfi_remember_state
	.cfi_restore 20
	.cfi_restore 19
	ldp	x21, x22, [sp,32]
	.cfi_restore 22
	.cfi_restore 21
.LVL27:
	ldp	x23, x24, [sp,48]
	.cfi_restore 24
	.cfi_restore 23
	ldp	x29, x30, [sp], 64
	.cfi_restore 30
	.cfi_restore 29
	.cfi_def_cfa 31, 0
	ret
.LVL28:
.L19:
	.cfi_restore_state
	.loc 1 151 0
	mov	w21, 0
.LVL29:
	adrp	x20, .LC9
	b	.L16
	.cfi_endproc
.LFE2800:
	.size	VENC_DRV_MEM_ProcRead, .-VENC_DRV_MEM_ProcRead
	.align	2
	.type	VENC_DRV_ProcHelp, %function
VENC_DRV_ProcHelp:
.LFB2797:
	.loc 1 72 0
	.cfi_startproc
	stp	x29, x30, [sp, -16]!
	.cfi_def_cfa_offset 16
	.cfi_offset 29, -16
	.cfi_offset 30, -8
	.loc 1 73 0
	adrp	x0, .LC15
	.loc 1 72 0
	add	x29, sp, 0
	.cfi_def_cfa_register 29
	.loc 1 73 0
	add	x0, x0, :lo12:.LC15
	.loc 1 72 0
	.loc 1 73 0
	bl	printk
.LVL30:
	.loc 1 74 0
	adrp	x0, .LC16
	add	x0, x0, :lo12:.LC16
	bl	printk
.LVL31:
	.loc 1 75 0
	adrp	x0, .LC17
	add	x0, x0, :lo12:.LC17
	bl	printk
.LVL32:
	.loc 1 76 0
	adrp	x0, .LC18
	add	x0, x0, :lo12:.LC18
	bl	printk
.LVL33:
	.loc 1 77 0
	adrp	x0, .LC19
	add	x0, x0, :lo12:.LC19
	bl	printk
.LVL34:
	.loc 1 78 0
	adrp	x0, .LC20
	add	x0, x0, :lo12:.LC20
	bl	printk
.LVL35:
	.loc 1 79 0
	adrp	x0, .LC21
	add	x0, x0, :lo12:.LC21
	bl	printk
.LVL36:
	.loc 1 80 0
	adrp	x0, .LC22
	add	x0, x0, :lo12:.LC22
	bl	printk
.LVL37:
	.loc 1 81 0
	adrp	x0, .LC23
	add	x0, x0, :lo12:.LC23
	bl	printk
.LVL38:
	.loc 1 82 0
	ldp	x29, x30, [sp], 16
	.cfi_restore 30
	.cfi_restore 29
	.cfi_def_cfa 31, 0
	ret
	.cfi_endproc
.LFE2797:
	.size	VENC_DRV_ProcHelp, .-VENC_DRV_ProcHelp
	.align	2
	.type	VENC_DRV_ProcWrite, %function
VENC_DRV_ProcWrite:
.LFB2802:
	.loc 1 395 0
	.cfi_startproc
.LVL39:
	stp	x29, x30, [sp, -112]!
	.cfi_def_cfa_offset 112
	.cfi_offset 29, -112
	.cfi_offset 30, -104
	add	x29, sp, 0
	.cfi_def_cfa_register 29
	stp	x19, x20, [sp,16]
	stp	x23, x24, [sp,48]
	stp	x27, x28, [sp,80]
	stp	x21, x22, [sp,32]
	stp	x25, x26, [sp,64]
	.cfi_offset 19, -96
	.cfi_offset 20, -88
	.cfi_offset 23, -64
	.cfi_offset 24, -56
	.cfi_offset 27, -32
	.cfi_offset 28, -24
	.cfi_offset 21, -80
	.cfi_offset 22, -72
	.cfi_offset 25, -48
	.cfi_offset 26, -40
	.loc 1 395 0
	adrp	x19, __stack_chk_guard
	mov	x23, x1
	.loc 1 403 0
	ldr	x3, [x0,272]
.LVL40:
	.loc 1 395 0
	mov	x28, x2
	.loc 1 406 0
	mov	x0, 0
.LVL41:
	.loc 1 395 0
	ldr	x2, [x19,#:lo12:__stack_chk_guard]
.LVL42:
	.loc 1 403 0
	ldr	x1, [x3,160]
.LVL43:
	.loc 1 395 0
	str	x2, [x29,104]
	.loc 1 404 0
	cbz	x1, .L27
	.loc 1 411 0 discriminator 6
	adrp	x24, g_stVencChn
	mov	x0, 4294967295
	add	x2, x24, :lo12:g_stVencChn
	cmp	x1, x0
	cset	w0, ne
	ldr	x2, [x2,24]
	.loc 1 411 0 is_stmt 0 discriminator 2
	cmp	x1, x2
	bne	.L105
	cbnz	w0, .L92
.L105:
	.loc 1 411 0 discriminator 6
	add	x2, x24, :lo12:g_stVencChn
	ldr	x2, [x2,768]
	.loc 1 411 0 discriminator 2
	cmp	x1, x2
	bne	.L106
	cbnz	w0, .L93
.L106:
	.loc 1 411 0 discriminator 6
	add	x2, x24, :lo12:g_stVencChn
	ldr	x2, [x2,1512]
	.loc 1 411 0 discriminator 2
	cmp	x1, x2
	bne	.L107
	cbnz	w0, .L94
.L107:
	.loc 1 411 0 discriminator 6
	add	x2, x24, :lo12:g_stVencChn
	ldr	x2, [x2,2256]
	.loc 1 411 0 discriminator 2
	cmp	x1, x2
	bne	.L108
	cbnz	w0, .L95
.L108:
	.loc 1 411 0 discriminator 6
	add	x2, x24, :lo12:g_stVencChn
	ldr	x2, [x2,3000]
	.loc 1 411 0 discriminator 2
	cmp	x1, x2
	bne	.L109
	cbnz	w0, .L96
.L109:
	.loc 1 411 0 discriminator 6
	add	x2, x24, :lo12:g_stVencChn
	ldr	x2, [x2,3744]
	.loc 1 411 0 discriminator 2
	cmp	x1, x2
	bne	.L110
	cbnz	w0, .L97
.L110:
	.loc 1 411 0 discriminator 6
	add	x2, x24, :lo12:g_stVencChn
	ldr	x2, [x2,4488]
	.loc 1 411 0 discriminator 2
	cmp	x1, x2
	bne	.L111
	cbnz	w0, .L98
.L111:
	.loc 1 411 0 discriminator 6
	add	x2, x24, :lo12:g_stVencChn
	ldr	x2, [x2,5232]
	.loc 1 411 0 discriminator 2
	cmp	x1, x2
	bne	.L112
	cbnz	w0, .L99
.L112:
	.loc 1 414 0 is_stmt 1
	adrp	x1, .LC24
.LVL44:
	adrp	x3, .LANCHOR1
	adrp	x4, .LC25
	mov	w0, 1
	add	x1, x1, :lo12:.LC24
	mov	w2, 414
	add	x3, x3, :lo12:.LANCHOR1
	add	x4, x4, :lo12:.LC25
	bl	HI_PRINT
.LVL45:
	.loc 1 415 0
	mov	x0, -1
.LVL46:
.L27:
	.loc 1 591 0
	ldr	x2, [x29,104]
	ldr	x1, [x19,#:lo12:__stack_chk_guard]
.LVL47:
	cmp	x2, x1
	bne	.L166
	ldp	x19, x20, [sp,16]
	.cfi_remember_state
	.cfi_restore 20
	.cfi_restore 19
	ldp	x21, x22, [sp,32]
	.cfi_restore 22
	.cfi_restore 21
.LVL48:
	ldp	x23, x24, [sp,48]
	.cfi_restore 24
	.cfi_restore 23
.LVL49:
	ldp	x25, x26, [sp,64]
	.cfi_restore 26
	.cfi_restore 25
	ldp	x27, x28, [sp,80]
	.cfi_restore 28
	.cfi_restore 27
.LVL50:
	ldp	x29, x30, [sp], 112
	.cfi_restore 30
	.cfi_restore 29
	.cfi_def_cfa 31, 0
	ret
.LVL51:
.L92:
	.cfi_restore_state
	.loc 1 411 0 discriminator 2
	mov	x21, 0
.L28:
	.loc 1 418 0
	cmp	x28, 255
	bhi	.L167
	.loc 1 424 0
	cbz	x28, .L160
	.loc 1 426 0
	adrp	x20, .LANCHOR0
	mov	w1, 0
.LVL52:
	add	x22, x20, :lo12:.LANCHOR0
	mov	x2, 256
	mov	x0, x22
	bl	memset
.LVL53:
.LBB20:
.LBB21:
.LBB22:
.LBB23:
	.file 2 "/mnt/disk/jenkins/ci/workspace/chipset_pipeline_release/opensource/component_code/vendor/huawei/extra/build/build_script/kirin_kernel_release/kernel/arch/arm64/include/asm/uaccess.h"
	.loc 2 115 0
	mov	x1, x23
.LVL54:
.LBB24:
.LBB25:
	.file 3 "/mnt/disk/jenkins/ci/workspace/chipset_pipeline_release/opensource/component_code/vendor/huawei/extra/build/build_script/kirin_kernel_release/kernel/arch/arm64/include/asm/current.h"
	.loc 3 20 0
#APP
// 20 "/mnt/disk/jenkins/ci/workspace/chipset_pipeline_release/opensource/component_code/vendor/huawei/extra/build/build_script/kirin_kernel_release/kernel/arch/arm64/include/asm/current.h" 1
	mrs x0, sp_el0
// 0 "" 2
.LVL55:
#NO_APP
.LBE25:
.LBE24:
	.loc 2 112 0
	ldr	x0, [x0,8]
.LVL56:
	.loc 2 115 0
#APP
// 115 "/mnt/disk/jenkins/ci/workspace/chipset_pipeline_release/opensource/component_code/vendor/huawei/extra/build/build_script/kirin_kernel_release/kernel/arch/arm64/include/asm/uaccess.h" 1
		adds	x1, x1, x28
	csel	x0, xzr, x0, hi
	csinv	x1, x1, xzr, cc
	sbcs	xzr, x1, x0
	cset	x1, ls

// 0 "" 2
#NO_APP
.LBE23:
.LBE22:
.LBB26:
.LBB27:
	.file 4 "/mnt/disk/jenkins/ci/workspace/chipset_pipeline_release/opensource/component_code/vendor/huawei/extra/build/build_script/kirin_kernel_release/kernel/include/linux/thread_info.h"
	.loc 4 91 0
	mov	x0, x22
.LVL57:
.LBE27:
.LBE26:
	.loc 2 445 0
	cbnz	x1, .L168
.L38:
	.loc 2 450 0
	mov	w1, 0
.LVL58:
	mov	x2, x28
	bl	memset
.LVL59:
.LBE21:
.LBE20:
	.loc 1 429 0
	adrp	x1, .LC24
	adrp	x3, .LANCHOR1
	adrp	x4, .LC27
	mov	w0, 3
	add	x1, x1, :lo12:.LC24
	mov	w2, 429
	add	x3, x3, :lo12:.LANCHOR1
	add	x4, x4, :lo12:.LC27
	bl	HI_PRINT
.LVL60:
	.loc 1 430 0
	mov	x0, -5
	b	.L27
.LVL61:
.L93:
	.loc 1 411 0 discriminator 4
	mov	x21, 1
	b	.L28
.L94:
	mov	x21, 2
	b	.L28
.L95:
	mov	x21, 3
	b	.L28
.L96:
	mov	x21, 4
	b	.L28
.L97:
	mov	x21, 5
	b	.L28
.L98:
	mov	x21, 6
	b	.L28
.L99:
	mov	x21, 7
	b	.L28
.LVL62:
.L58:
	.loc 1 548 0
	adrp	x1, .LC39
	mov	x0, x27
	add	x1, x1, :lo12:.LC39
	mov	x2, 256
	bl	strncmp
.LVL63:
	cbz	w0, .L169
	.loc 1 566 0
	adrp	x1, .LC43
	mov	x0, x27
	add	x1, x1, :lo12:.LC43
	mov	x2, 256
	bl	strncmp
.LVL64:
	cbnz	w0, .L160
	.loc 1 568 0
	mov	x0, x26
	add	x1, x29, 100
	bl	str2val
.LVL65:
	cbz	w0, .L79
	.loc 1 570 0
	adrp	x1, .LC24
	adrp	x3, .LANCHOR1
	adrp	x4, .LC33
	mov	w0, 1
	add	x1, x1, :lo12:.LC24
	mov	w2, 570
	add	x3, x3, :lo12:.LANCHOR1
	add	x4, x4, :lo12:.LC33
	mov	x5, x25
	bl	HI_PRINT
.LVL66:
.L160:
	.loc 1 571 0
	bl	VENC_DRV_ProcHelp
.LVL67:
.L57:
	.loc 1 589 0
	mov	x0, x28
	b	.L27
.LVL68:
.L168:
.LBB32:
.LBB30:
.LBB29:
.LBB28:
	.loc 4 91 0
	mov	x1, x28
.LVL69:
	mov	w2, 0
	bl	__check_object_size
.LVL70:
.LBE28:
.LBE29:
	.loc 2 447 0
	mov	x0, x22
	mov	x1, x23
	mov	x2, x28
	bl	__arch_copy_from_user
.LVL71:
	.loc 2 449 0
	cbnz	x0, .L170
	mov	x1, x22
.LBE30:
.LBE32:
	.loc 1 432 0
	strb	wzr, [x22,x28]
	mov	w23, w28
.LVL72:
	.loc 1 437 0 discriminator 1
	mov	w22, w28
	mov	w0, 0
	mov	w3, 0
	.loc 1 440 0 discriminator 1
	mov	x5, x1
	b	.L46
.L172:
	.loc 1 440 0 is_stmt 0
	bls	.L44
	.loc 1 440 0 discriminator 1
	strb	w2, [x5,256]
	mov	w0, 1
.L83:
	.loc 1 441 0 is_stmt 1 discriminator 1
	cmp	w2, 32
	beq	.L45
.L42:
	.loc 1 437 0
	add	w3, w3, 1
	add	x1, x1, 1
	.loc 1 437 0 is_stmt 0 discriminator 1
	cmp	w3, w23
	beq	.L171
.L46:
	.loc 1 439 0 is_stmt 1 discriminator 1
	ldrb	w2, [x1]
	.loc 1 440 0
	cmp	w2, 32
	.loc 1 439 0
	cbz	w0, .L172
	.loc 1 440 0
	bls	.L83
	.loc 1 440 0 is_stmt 0 discriminator 1
	add	x4, x5, 256
	strb	w2, [x4,w0,sxtw]
	.loc 1 441 0 is_stmt 1
	adds	w0, w0, 1
	bne	.L42
.L44:
	.loc 1 437 0
	add	w3, w3, 1
	.loc 1 440 0 discriminator 1
	mov	w0, 0
	.loc 1 437 0 discriminator 1
	cmp	w3, w23
	add	x1, x1, 1
	bne	.L46
.L171:
	.loc 1 443 0
	add	x1, x20, :lo12:.LANCHOR0
	.loc 1 452 0
	mov	w3, 0
	.loc 1 443 0
	add	x1, x1, 256
	strb	wzr, [x1,w0,sxtw]
.L48:
	.loc 1 459 0
	add	x25, x20, :lo12:.LANCHOR0
	.loc 1 467 0
	adrp	x1, .LC28
	.loc 1 459 0
	add	x26, x25, 512
	.loc 1 467 0
	add	x27, x25, 256
	mov	x0, x27
	add	x1, x1, :lo12:.LC28
	mov	x2, 256
	.loc 1 459 0
	strb	wzr, [x26,w3,sxtw]
	.loc 1 467 0
	bl	strncmp
.LVL73:
	cbnz	w0, .L55
	.loc 1 470 0
	adrp	x1, .LC29
	mov	x0, x26
	add	x1, x1, :lo12:.LC29
	mov	x2, 256
	bl	strncmp
.LVL74:
	cbnz	w0, .L56
.LVL75:
	.loc 1 472 0
	lsl	x0, x21, 5
	add	x24, x24, :lo12:g_stVencChn
	sub	x0, x0, x21, lsl 3
	mov	w1, 1
	add	x24, x24, x0, lsl 5
	sub	x0, x24, x0
	str	w1, [x0,732]
	.loc 1 589 0
	mov	x0, x28
	b	.L27
.LVL76:
.L55:
	.loc 1 486 0
	adrp	x1, .LC31
	mov	x0, x27
	add	x1, x1, :lo12:.LC31
	mov	x2, 256
	bl	strncmp
.LVL77:
	cbnz	w0, .L58
	.loc 1 489 0
	adrp	x1, .LC32
	mov	x0, x26
	add	x1, x1, :lo12:.LC32
	mov	x2, 256
	bl	strncmp
.LVL78:
	cbnz	w0, .L59
	.loc 1 493 0 discriminator 1
	cmp	w23, w22
	bge	.L103
	sxtw	x3, w23
	sub	w21, w28, #1
	add	x22, x3, 1
	sub	w23, w21, w23
	add	x22, x22, x23
	add	x3, x25, x3
	add	x22, x25, x22
	mov	w23, 0
	b	.L66
.L173:
	.loc 1 496 0
	bls	.L65
	.loc 1 496 0 is_stmt 0 discriminator 1
	strb	w21, [x25,768]
	mov	w23, 1
.L87:
	.loc 1 497 0 is_stmt 1 discriminator 1
	cmp	w21, 32
	beq	.L60
.L63:
	add	x3, x3, 1
	.loc 1 493 0 discriminator 1
	cmp	x3, x22
	beq	.L60
.L66:
	.loc 1 495 0 discriminator 1
	ldrb	w21, [x3]
	.loc 1 496 0
	cmp	w21, 32
	.loc 1 495 0
	cbz	w23, .L173
	.loc 1 496 0
	bls	.L87
	.loc 1 496 0 is_stmt 0 discriminator 1
	add	x24, x25, 768
	strb	w21, [x24,w23,sxtw]
	.loc 1 497 0 is_stmt 1
	adds	w23, w23, 1
	bne	.L63
.L65:
	.loc 1 496 0 discriminator 1
	mov	w23, 0
	b	.L63
.L45:
	.loc 1 443 0
	add	x1, x20, :lo12:.LANCHOR0
	.loc 1 453 0 discriminator 1
	cmp	w22, w3
	.loc 1 443 0
	add	x4, x1, 256
	mov	w2, w3
	strb	wzr, [x4,w0,sxtw]
	.loc 1 453 0 discriminator 1
	ble	.L101
	.loc 1 456 0 discriminator 1
	mov	x5, x1
	.loc 1 453 0 discriminator 1
	mov	w3, 0
	add	x1, x1, x2, sxtw
	b	.L54
.L174:
	.loc 1 456 0
	bls	.L53
	.loc 1 456 0 is_stmt 0 discriminator 1
	strb	w0, [x5,512]
	mov	w3, 1
.L85:
	.loc 1 457 0 is_stmt 1 discriminator 1
	cmp	w0, 32
	beq	.L102
.L51:
	.loc 1 453 0
	add	w2, w2, 1
	add	x1, x1, 1
	.loc 1 453 0 is_stmt 0 discriminator 1
	cmp	w2, w23
	beq	.L48
.L54:
	.loc 1 455 0 is_stmt 1 discriminator 1
	ldrb	w0, [x1]
	.loc 1 456 0
	cmp	w0, 32
	.loc 1 455 0
	cbz	w3, .L174
	.loc 1 456 0
	bls	.L85
	.loc 1 456 0 is_stmt 0 discriminator 1
	add	x4, x5, 512
	strb	w0, [x4,w3,sxtw]
	.loc 1 457 0 is_stmt 1
	adds	w3, w3, 1
	bne	.L51
.L53:
	.loc 1 456 0 discriminator 1
	mov	w3, 0
	b	.L51
.L102:
	mov	w23, w2
	b	.L48
.L56:
	.loc 1 476 0
	adrp	x1, .LC30
	mov	x0, x26
	add	x1, x1, :lo12:.LC30
	mov	x2, 256
	bl	strncmp
.LVL79:
	cbnz	w0, .L160
.LVL80:
	.loc 1 478 0
	lsl	x0, x21, 5
	add	x24, x24, :lo12:g_stVencChn
	sub	x0, x0, x21, lsl 3
	add	x24, x24, x0, lsl 5
	sub	x0, x24, x0
	str	wzr, [x0,732]
	.loc 1 589 0
	mov	x0, x28
	b	.L27
.LVL81:
.L103:
	.loc 1 493 0 discriminator 1
	mov	w23, 0
.L60:
	.loc 1 499 0
	add	x20, x20, :lo12:.LANCHOR0
	.loc 1 500 0
	add	x1, x29, 100
	.loc 1 499 0
	add	x2, x20, 768
	.loc 1 500 0
	mov	x0, x2
	.loc 1 499 0
	strb	wzr, [x2,w23,sxtw]
	.loc 1 500 0
	bl	str2val
.LVL82:
	cbnz	w0, .L175
.LVL83:
	.loc 1 506 0
	ldr	w5, [x29,100]
	cmp	w5, 3600
	bhi	.L176
	.loc 1 512 0
	adrp	x1, .LC24
	adrp	x3, .LANCHOR1
	adrp	x4, .LC35
	mov	w0, 4
	add	x1, x1, :lo12:.LC24
	mov	w2, 512
	add	x3, x3, :lo12:.LANCHOR1
	add	x4, x4, :lo12:.LC35
	bl	HI_PRINT
.LVL84:
	.loc 1 589 0
	mov	x0, x28
	b	.L27
.LVL85:
.L59:
	.loc 1 515 0
	adrp	x1, .LC36
	mov	x0, x26
	add	x1, x1, :lo12:.LC36
	mov	x2, 256
	bl	strncmp
.LVL86:
	cbnz	w0, .L160
	.loc 1 519 0 discriminator 1
	cmp	w23, w22
	bge	.L104
	sxtw	x3, w23
	sub	w21, w28, #1
	add	x22, x3, 1
	sub	w23, w21, w23
	add	x22, x22, x23
	add	x3, x25, x3
	add	x22, x25, x22
	mov	w23, 0
	b	.L75
.L177:
	.loc 1 522 0
	bls	.L74
	.loc 1 522 0 is_stmt 0 discriminator 1
	strb	w21, [x25,768]
	mov	w23, 1
.L89:
	.loc 1 523 0 is_stmt 1 discriminator 1
	cmp	w21, 32
	beq	.L69
.L72:
	add	x3, x3, 1
	.loc 1 519 0 discriminator 1
	cmp	x3, x22
	beq	.L69
.L75:
	.loc 1 521 0 discriminator 1
	ldrb	w21, [x3]
	.loc 1 522 0
	cmp	w21, 32
	.loc 1 521 0
	cbz	w23, .L177
	.loc 1 522 0
	bls	.L89
	.loc 1 522 0 is_stmt 0 discriminator 1
	add	x24, x25, 768
	strb	w21, [x24,w23,sxtw]
	.loc 1 523 0 is_stmt 1
	adds	w23, w23, 1
	bne	.L72
.L74:
	.loc 1 522 0 discriminator 1
	mov	w23, 0
	b	.L72
.L104:
	.loc 1 519 0 discriminator 1
	mov	w23, 0
.L69:
	.loc 1 525 0
	add	x20, x20, :lo12:.LANCHOR0
	.loc 1 526 0
	add	x1, x29, 100
	.loc 1 525 0
	add	x2, x20, 768
	.loc 1 526 0
	mov	x0, x2
	.loc 1 525 0
	strb	wzr, [x2,w23,sxtw]
	.loc 1 526 0
	bl	str2val
.LVL87:
	cbnz	w0, .L178
.LVL88:
	.loc 1 532 0
	ldr	w5, [x29,100]
	mov	w0, 34464
	movk	w0, 0x1, lsl 16
	cmp	w5, w0
	bhi	.L179
	.loc 1 538 0
	adrp	x1, .LC24
	adrp	x3, .LANCHOR1
	adrp	x4, .LC38
	mov	w0, 4
	add	x1, x1, :lo12:.LC24
	mov	w2, 538
	add	x3, x3, :lo12:.LANCHOR1
	add	x4, x4, :lo12:.LC38
	bl	HI_PRINT
.LVL89:
	.loc 1 589 0
	mov	x0, x28
	b	.L27
.LVL90:
.L169:
	.loc 1 551 0
	adrp	x1, .LC24
	adrp	x3, .LANCHOR1
	adrp	x4, .LC40
	mov	w0, 4
	add	x1, x1, :lo12:.LC24
	mov	w2, 551
	add	x3, x3, :lo12:.LANCHOR1
	add	x4, x4, :lo12:.LC40
	bl	HI_PRINT
.LVL91:
	.loc 1 553 0
	adrp	x1, .LC41
	mov	x0, x26
	add	x1, x1, :lo12:.LC41
	mov	x2, 256
	bl	strncmp
.LVL92:
	cbz	w0, .L57
	.loc 1 557 0
	adrp	x1, .LC42
	mov	x0, x26
	add	x1, x1, :lo12:.LC42
	mov	x2, 256
	bl	strncmp
.LVL93:
	cbnz	w0, .L160
	.loc 1 589 0
	mov	x0, x28
	b	.L27
.L79:
.LVL94:
	.loc 1 575 0
	ldr	w6, [x29,100]
	adrp	x7, g_VencPrintEnable
	.loc 1 576 0
	adrp	x1, .LC24
	adrp	x3, .LANCHOR1
	adrp	x4, .LC44
	mov	w0, 4
	add	x1, x1, :lo12:.LC24
	mov	w2, 576
	add	x3, x3, :lo12:.LANCHOR1
	add	x4, x4, :lo12:.LC44
	mov	w5, w6
	.loc 1 575 0
	str	w6, [x7,#:lo12:g_VencPrintEnable]
	.loc 1 576 0
	bl	HI_PRINT
.LVL95:
	.loc 1 589 0
	mov	x0, x28
	b	.L27
.LVL96:
.L167:
	.loc 1 420 0
	adrp	x1, .LC24
.LVL97:
	adrp	x3, .LANCHOR1
	adrp	x4, .LC26
	mov	w0, 3
	add	x1, x1, :lo12:.LC24
	mov	w2, 420
	add	x3, x3, :lo12:.LANCHOR1
	add	x4, x4, :lo12:.LC26
	bl	HI_PRINT
.LVL98:
	.loc 1 421 0
	mov	x0, -5
	b	.L27
.LVL99:
.L176:
	.loc 1 508 0
	adrp	x1, .LC24
	adrp	x3, .LANCHOR1
	adrp	x4, .LC34
	mov	w0, 1
	add	x1, x1, :lo12:.LC24
	mov	w2, 508
	add	x3, x3, :lo12:.LANCHOR1
	add	x4, x4, :lo12:.LC34
	bl	HI_PRINT
.LVL100:
	.loc 1 509 0
	mov	x0, -1
	b	.L27
.L179:
	.loc 1 534 0
	adrp	x1, .LC24
	adrp	x3, .LANCHOR1
	adrp	x4, .LC37
	mov	w0, 1
	add	x1, x1, :lo12:.LC24
	mov	w2, 534
	add	x3, x3, :lo12:.LANCHOR1
	add	x4, x4, :lo12:.LC37
	bl	HI_PRINT
.LVL101:
	.loc 1 535 0
	mov	x0, -1
	b	.L27
.LVL102:
.L166:
	.loc 1 591 0
	bl	__stack_chk_fail
.LVL103:
.L175:
	.loc 1 502 0
	adrp	x1, .LC24
	mov	w0, 1
	add	x1, x1, :lo12:.LC24
	mov	w2, 502
.L161:
	.loc 1 528 0
	adrp	x3, .LANCHOR1
	adrp	x4, .LC33
	add	x3, x3, :lo12:.LANCHOR1
	add	x4, x4, :lo12:.LC33
	mov	x5, x20
	bl	HI_PRINT
.LVL104:
	.loc 1 529 0
	mov	x0, -1
	b	.L27
.L178:
	.loc 1 528 0
	adrp	x1, .LC24
	mov	w0, 1
	add	x1, x1, :lo12:.LC24
	mov	w2, 528
	b	.L161
.L101:
	.loc 1 453 0 discriminator 1
	mov	w23, w3
	.loc 1 452 0
	mov	w3, 0
	b	.L48
.LVL105:
.L170:
	sub	x2, x28, x0
.LBB33:
.LBB31:
	.loc 2 449 0
	mov	x28, x0
	add	x0, x22, x2
.LVL106:
	b	.L38
.LBE31:
.LBE33:
	.cfi_endproc
.LFE2802:
	.size	VENC_DRV_ProcWrite, .-VENC_DRV_ProcWrite
	.align	2
	.type	VENC_DRV_ProcOpen, %function
VENC_DRV_ProcOpen:
.LFB2796:
	.loc 1 31 0
	.cfi_startproc
.LVL107:
	stp	x29, x30, [sp, -32]!
	.cfi_def_cfa_offset 32
	.cfi_offset 29, -32
	.cfi_offset 30, -24
	add	x29, sp, 0
	.cfi_def_cfa_register 29
	.loc 1 31 0
	str	x1, [x29,24]
	.loc 1 36 0
	bl	PDE_DATA
.LVL108:
	.loc 1 38 0
	ldr	x1, [x29,24]
.LVL109:
	.loc 1 36 0
	mov	x2, x0
.LVL110:
.LBB36:
.LBB37:
	.loc 1 40 0
	mov	x0, x1
.LBE37:
.LBE36:
	.loc 1 38 0
	cbz	x2, .L183
	.loc 1 44 0
	adrp	x1, VENC_DRV_ProcRead
.LVL111:
	add	x1, x1, :lo12:VENC_DRV_ProcRead
	bl	single_open
.LVL112:
	.loc 1 46 0
	ldp	x29, x30, [sp], 32
	.cfi_remember_state
	.cfi_restore 30
	.cfi_restore 29
	.cfi_def_cfa 31, 0
	ret
.LVL113:
.L183:
	.cfi_restore_state
.LBB39:
.LBB38:
	.loc 1 40 0
	adrp	x1, VENC_DRV_MEM_ProcRead
.LVL114:
	add	x1, x1, :lo12:VENC_DRV_MEM_ProcRead
	bl	single_open
.LVL115:
.LBE38:
.LBE39:
	.loc 1 46 0
	ldp	x29, x30, [sp], 32
	.cfi_restore 29
	.cfi_restore 30
	.cfi_def_cfa 31, 0
	ret
	.cfi_endproc
.LFE2796:
	.size	VENC_DRV_ProcOpen, .-VENC_DRV_ProcOpen
	.align	2
	.type	val2str.constprop.2, %function
val2str.constprop.2:
.LFB2805:
	.loc 1 128 0
	.cfi_startproc
.LVL116:
	stp	x29, x30, [sp, -64]!
	.cfi_def_cfa_offset 64
	.cfi_offset 29, -64
	.cfi_offset 30, -56
	adrp	x8, __stack_chk_guard
	.loc 1 130 0
	mov	x5, 0
	.loc 1 128 0
	add	x29, sp, 0
	.cfi_def_cfa_register 29
	.loc 1 130 0
	add	x6, x29, 24
	.loc 1 128 0
	ldr	x2, [x8,#:lo12:__stack_chk_guard]
	str	x2, [x29,56]
	.loc 1 130 0
	stp	xzr, xzr, [x6]
	stp	xzr, xzr, [x6,16]
	b	.L186
.LVL117:
.L193:
	add	x5, x5, 1
	.loc 1 133 0 discriminator 1
	cmp	x5, 32
	beq	.L192
.L186:
	.loc 1 135 0
	mov	w2, 26215
	.loc 1 136 0
	mov	w4, 52429
	.loc 1 135 0
	movk	w2, 0x6666, lsl 16
	.loc 1 136 0
	movk	w4, 0xcccc, lsl 16
	mov	w3, w5
	.loc 1 135 0
	smull	x2, w0, w2
	.loc 1 136 0
	umull	x4, w0, w4
	.loc 1 135 0
	lsr	x2, x2, 32
	asr	w2, w2, 2
	.loc 1 136 0
	lsr	x4, x4, 32
	.loc 1 135 0
	sub	w2, w2, w0, asr 31
	lsl	w7, w2, 3
	add	w2, w7, w2, lsl 1
	sub	w2, w0, w2
	.loc 1 136 0
	lsr	w0, w4, 3
	.loc 1 135 0
	add	w2, w2, 48
	strb	w2, [x6,x5]
	.loc 1 137 0
	cbnz	w0, .L193
	mov	x2, x1
	mov	w0, 0
.LVL118:
.L188:
	.loc 1 142 0
	ldrb	w4, [x6,w3,sxtw]
	.loc 1 141 0 discriminator 2
	sub	w3, w3, #1
	.loc 1 142 0
	strb	w4, [x2],1
	.loc 1 141 0 discriminator 1
	cmp	w3, 31
	.loc 1 142 0
	add	w0, w0, 1
	.loc 1 141 0 discriminator 1
	bls	.L188
	sxtw	x0, w0
.LVL119:
.L187:
	.loc 1 144 0
	strb	wzr, [x1,x0]
	.loc 1 146 0
	ldr	x1, [x29,56]
.LVL120:
	ldr	x0, [x8,#:lo12:__stack_chk_guard]
	cmp	x1, x0
	bne	.L194
	ldp	x29, x30, [sp], 64
	.cfi_remember_state
	.cfi_restore 30
	.cfi_restore 29
	.cfi_def_cfa 31, 0
	ret
.LVL121:
.L192:
	.cfi_restore_state
	.loc 1 133 0 discriminator 1
	mov	x0, 0
.LVL122:
	b	.L187
.LVL123:
.L194:
	.loc 1 146 0
	bl	__stack_chk_fail
.LVL124:
	.cfi_endproc
.LFE2805:
	.size	val2str.constprop.2, .-val2str.constprop.2
	.align	2
	.type	VENC_DRV_ProcRead, %function
VENC_DRV_ProcRead:
.LFB2801:
	.loc 1 184 0
	.cfi_startproc
.LVL125:
	sub	sp, sp, #1360
	.cfi_def_cfa_offset 1360
	.loc 1 192 0
	mov	x2, 640
	.loc 1 184 0
	stp	x29, x30, [sp, -96]!
	.cfi_def_cfa_offset 1456
	.cfi_offset 29, -1456
	.cfi_offset 30, -1448
	add	x29, sp, 0
	.cfi_def_cfa_register 29
	stp	x23, x24, [sp,48]
	.cfi_offset 23, -1408
	.cfi_offset 24, -1400
	adrp	x24, __stack_chk_guard
	.loc 1 192 0
	adrp	x23, .LANCHOR1
	.loc 1 184 0
	stp	x19, x20, [sp,16]
	.cfi_offset 19, -1440
	.cfi_offset 20, -1432
	.loc 1 192 0
	add	x20, x23, :lo12:.LANCHOR1
	.loc 1 209 0 discriminator 6
	adrp	x19, g_stVencChn
	.loc 1 184 0
	ldr	x3, [x24,#:lo12:__stack_chk_guard]
	.loc 1 192 0
	add	x1, x20, 24
.LVL126:
	.loc 1 184 0
	stp	x21, x22, [sp,32]
	stp	x25, x26, [sp,64]
	.cfi_offset 21, -1424
	.cfi_offset 22, -1416
	.cfi_offset 25, -1392
	.cfi_offset 26, -1384
	mov	x22, x0
	.loc 1 192 0
	add	x0, x29, 808
.LVL127:
	.loc 1 184 0
	stp	x27, x28, [sp,80]
	sub	sp, sp, #368
	.cfi_offset 27, -1376
	.cfi_offset 28, -1368
	.loc 1 184 0
	str	x3, [x29,1448]
	.loc 1 205 0
	adrp	x21, .LC50
	.loc 1 192 0
	bl	memcpy
.LVL128:
	.loc 1 205 0
	add	x21, x21, :lo12:.LC50
	.loc 1 197 0
	ldr	x6, [x20,664]
	.loc 1 199 0
	add	x1, x20, 696
	.loc 1 197 0
	ldr	x5, [x20,672]
	.loc 1 199 0
	mov	x2, 128
	.loc 1 198 0
	ldr	x4, [x20,680]
	.loc 1 199 0
	add	x0, x29, 216
	.loc 1 198 0
	ldr	x3, [x20,688]
	.loc 1 197 0
	str	x6, [x29,120]
	str	x5, [x29,128]
	.loc 1 198 0
	str	x4, [x29,136]
	str	x3, [x29,144]
	.loc 1 199 0
	bl	memcpy
.LVL129:
	.loc 1 200 0
	ldr	x2, [x20,824]
	.loc 1 205 0
	mov	x0, x22
	mov	x1, x21
	.loc 1 203 0
	ldr	x20, [x22,160]
.LVL130:
	.loc 1 200 0
	str	x2, [x29,168]
	str	x2, [x29,176]
	str	x2, [x29,184]
	str	x2, [x29,192]
	str	x2, [x29,200]
	str	x2, [x29,208]
	.loc 1 201 0
	str	x2, [x29,152]
	str	x2, [x29,160]
	.loc 1 205 0
	bl	seq_printf
.LVL131:
	.loc 1 206 0
	adrp	x1, .LC51
	mov	x0, x22
	add	x1, x1, :lo12:.LC51
	bl	seq_printf
.LVL132:
	.loc 1 207 0
	mov	x0, x22
	mov	x1, x21
	bl	seq_printf
.LVL133:
	.loc 1 209 0 discriminator 6
	add	x0, x19, :lo12:g_stVencChn
	mov	x1, 4294967295
	cmp	x20, x1
	cset	w1, ne
	ldr	x0, [x0,24]
	.loc 1 209 0 is_stmt 0 discriminator 2
	cmp	x20, x0
	bne	.L217
	cbnz	w1, .L209
.L217:
	.loc 1 209 0 discriminator 6
	add	x0, x19, :lo12:g_stVencChn
	ldr	x0, [x0,768]
	.loc 1 209 0 discriminator 2
	cmp	x20, x0
	bne	.L218
	cbnz	w1, .L210
.L218:
	.loc 1 209 0 discriminator 6
	add	x0, x19, :lo12:g_stVencChn
	ldr	x0, [x0,1512]
	.loc 1 209 0 discriminator 2
	cmp	x20, x0
	bne	.L219
	cbnz	w1, .L211
.L219:
	.loc 1 209 0 discriminator 6
	add	x0, x19, :lo12:g_stVencChn
	ldr	x0, [x0,2256]
	.loc 1 209 0 discriminator 2
	cmp	x20, x0
	bne	.L220
	cbnz	w1, .L212
.L220:
	.loc 1 209 0 discriminator 6
	add	x0, x19, :lo12:g_stVencChn
	ldr	x0, [x0,3000]
	.loc 1 209 0 discriminator 2
	cmp	x20, x0
	bne	.L221
	cbnz	w1, .L213
.L221:
	.loc 1 209 0 discriminator 6
	add	x0, x19, :lo12:g_stVencChn
	ldr	x0, [x0,3744]
	.loc 1 209 0 discriminator 2
	cmp	x20, x0
	bne	.L222
	cbnz	w1, .L214
.L222:
	.loc 1 209 0 discriminator 6
	add	x0, x19, :lo12:g_stVencChn
	ldr	x0, [x0,4488]
	.loc 1 209 0 discriminator 2
	cmp	x20, x0
	bne	.L223
	cbnz	w1, .L215
.L223:
	.loc 1 209 0 discriminator 6
	add	x0, x19, :lo12:g_stVencChn
	ldr	x0, [x0,5232]
	.loc 1 209 0 discriminator 2
	cmp	x20, x0
	bne	.L224
	cbnz	w1, .L216
.L224:
	.loc 1 211 0 is_stmt 1 discriminator 1
	mov	w0, 3
.LVL134:
.L205:
	.loc 1 392 0
	ldr	x2, [x29,1448]
	ldr	x1, [x24,#:lo12:__stack_chk_guard]
	cmp	x2, x1
	bne	.L253
	add	sp, x29, 0
	.cfi_remember_state
	.cfi_def_cfa_register 31
	ldp	x19, x20, [sp,16]
	.cfi_restore 20
	.cfi_restore 19
.LVL135:
	ldp	x21, x22, [sp,32]
	.cfi_restore 22
	.cfi_restore 21
.LVL136:
	ldp	x23, x24, [sp,48]
	.cfi_restore 24
	.cfi_restore 23
	ldp	x25, x26, [sp,64]
	.cfi_restore 26
	.cfi_restore 25
.LVL137:
	ldp	x27, x28, [sp,80]
	.cfi_restore 28
	.cfi_restore 27
	ldp	x29, x30, [sp], 96
	.cfi_restore 30
	.cfi_restore 29
	.cfi_def_cfa_offset 1360
	add	sp, sp, 1360
	.cfi_def_cfa_offset 1264
	ret
.LVL138:
.L209:
	.cfi_restore_state
	.loc 1 209 0
	mov	w25, 0
.LVL139:
.L196:
	.loc 1 213 0
	add	x1, x29, 344
	bl	VENC_DRV_EflQueryStatInfo
.LVL140:
	.loc 1 214 0
	cbnz	w0, .L254
	.loc 1 229 0
	add	x4, x29, 160
	.loc 1 220 0
	adrp	x2, .LC53
	.loc 1 229 0
	mov	x27, x4
	.loc 1 220 0
	add	x2, x2, :lo12:.LC53
	.loc 1 222 0
	adrp	x4, .LC54
	.loc 1 224 0
	add	x26, x29, 200
	.loc 1 222 0
	add	x4, x4, :lo12:.LC54
	.loc 1 224 0
	add	x0, x29, 168
	.loc 1 220 0
	ldrh	w3, [x2]
	.loc 1 225 0
	add	x23, x0, 40
	.loc 1 220 0
	ldrb	w2, [x2,2]
	.loc 1 225 0
	mov	x1, x23
	.loc 1 222 0
	ldrh	w4, [x4]
	.loc 1 228 0
	add	x19, x19, :lo12:g_stVencChn
	.loc 1 224 0
	strh	w3, [x29,200]
	.loc 1 237 0
	adrp	x28, .LC9
	.loc 1 225 0
	ldr	w0, [x29,752]
	.loc 1 237 0
	add	x28, x28, :lo12:.LC9
	.loc 1 224 0
	strb	w2, [x26,2]
	.loc 1 220 0
	strh	w3, [x29,168]
	.loc 1 221 0
	strh	w3, [x29,176]
	.loc 1 222 0
	strh	w4, [x29,184]
	.loc 1 223 0
	strh	w3, [x29,192]
	.loc 1 220 0
	strb	w2, [x29,170]
	.loc 1 221 0
	strb	w2, [x29,178]
	.loc 1 223 0
	strb	w2, [x29,194]
	.loc 1 225 0
	bl	val2str.constprop.2
.LVL141:
	.loc 1 228 0
	uxtw	x0, w25
.LVL142:
	add	x1, x29, 152
	lsl	x2, x0, 5
	sub	x0, x2, x0, lsl 3
.LVL143:
	add	x19, x19, x0, lsl 5
	sub	x19, x19, x0
	ldr	w0, [x19,104]
	bl	val2str.constprop.2
.LVL144:
	.loc 1 229 0
	str	x27, [x29,104]
	ldr	w0, [x19,108]
	mov	x1, x27
	bl	val2str.constprop.2
.LVL145:
	.loc 1 231 0
	ldr	w27, [x29,740]
	ldr	w4, [x29,748]
	.loc 1 237 0
	mov	x0, x22
	.loc 1 231 0
	ldr	w8, [x29,732]
	.loc 1 237 0
	mov	x1, x28
	.loc 1 231 0
	add	w4, w4, w27
	.loc 1 232 0
	ldr	w5, [x29,744]
	.loc 1 234 0
	ldr	w7, [x29,408]
	.loc 1 231 0
	add	w4, w4, w8
	.loc 1 234 0
	ldr	w3, [x29,360]
	.loc 1 232 0
	add	w4, w4, w5
	.loc 1 235 0
	ldr	w8, [x29,368]
	ldr	w2, [x29,412]
	.loc 1 234 0
	add	w3, w7, w3
	.loc 1 231 0
	ldr	w27, [x29,736]
	.loc 1 235 0
	add	w2, w2, w8
	.loc 1 234 0
	str	w3, [x29,416]
	.loc 1 231 0
	add	w27, w4, w27
.LVL146:
	.loc 1 235 0
	str	w2, [x29,420]
	.loc 1 237 0
	bl	seq_printf
.LVL147:
	.loc 1 238 0
	adrp	x1, .LC55
	mov	x0, x22
	add	x1, x1, :lo12:.LC55
	bl	seq_printf
.LVL148:
	.loc 1 239 0
	adrp	x1, .LC56
	mov	x0, x22
.LVL149:
	mov	w2, w25
	add	x1, x1, :lo12:.LC56
	bl	seq_printf
.LVL150:
	.loc 1 240 0
	mov	w11, 19923
	ldr	w4, [x19,88]
	ldr	w8, [x19,76]
	mov	w13, w11
	movk	w13, 0x1062, lsl 16
	movk	w11, 0x1062, lsl 16
	.loc 1 260 0
	ldr	w0, [x19,112]
	add	x14, x29, 120
	.loc 1 262 0
	ldr	w1, [x19,84]
	.loc 1 240 0
	add	x5, x29, 808
	.loc 1 253 0
	ldr	w3, [x19,52]
	.loc 1 240 0
	ldr	w10, [x19,404]
	.loc 1 260 0
	add	x0, x14, x0, lsl 3
	.loc 1 240 0
	umull	x11, w4, w11
	umull	x8, w8, w13
	.loc 1 253 0
	ubfiz	x2, x3, 4, 32
	.loc 1 240 0
	ldr	w13, [x19,120]
	lsr	x6, x11, 38
	.loc 1 262 0
	add	x1, x14, x1, lsl 3
	.loc 1 240 0
	ldr	w11, [x19,80]
	lsr	x14, x8, 38
	lsl	w10, w10, 4
	ldr	x8, [x29,104]
	ldr	w7, [x19,100]
	add	x2, x5, x2
	ldr	w4, [x19,68]
	ldr	w5, [x19,72]
	str	w14, [sp,48]
	str	w13, [sp,72]
	str	w11, [sp,80]
	str	x0, [sp,24]
	mov	x0, x22
	str	x1, [sp,32]
	adrp	x1, .LC57
	str	w10, [sp,40]
	add	x10, x29, 152
	str	x8, [sp,64]
	add	x1, x1, :lo12:.LC57
	str	x10, [sp,56]
	ldr	w10, [x19,96]
	ldr	w9, [x19,92]
	ldrb	w8, [x19,116]
	str	w8, [sp,16]
	str	w10, [sp]
	str	w9, [sp,8]
	bl	seq_printf
.LVL151:
	.loc 1 268 0
	mov	x0, x22
	mov	x1, x28
	bl	seq_printf
.LVL152:
	.loc 1 269 0
	adrp	x1, .LC58
	mov	x0, x22
	add	x1, x1, :lo12:.LC58
	bl	seq_printf
.LVL153:
	.loc 1 270 0
	ldr	w21, [x29,732]
	.loc 1 311 0
	ldr	w15, [x29,768]
	mov	w8, 100
	.loc 1 306 0
	ldr	w0, [x19,500]
	.loc 1 270 0
	mov	w6, 19923
	.loc 1 302 0
	ldr	w2, [x19,4]
	.loc 1 270 0
	movk	w6, 0x1062, lsl 16
	.loc 1 311 0
	ldr	w16, [x19,76]
	.loc 1 306 0
	lsl	w0, w0, 3
	.loc 1 311 0
	mul	w8, w15, w8
	.loc 1 303 0
	ldr	w3, [x29,784]
	.loc 1 270 0
	add	x4, x29, 136
	.loc 1 307 0
	ldr	w14, [x29,360]
	.loc 1 270 0
	add	x2, x4, x2, lsl 3
	umull	x6, w0, w6
	add	x4, x29, 216
	ldr	w9, [x19,520]
	udiv	w8, w8, w16
	add	x3, x4, x3, lsl 4
	ldr	w4, [x29,776]
	sub	w7, w14, w27
	ldr	w5, [x19,492]
	lsr	x28, x6, 38
	str	w4, [x29,104]
	mov	x0, x22
	str	w28, [sp]
	adrp	x1, .LC59
	ldr	w4, [x29,780]
	add	x1, x1, :lo12:.LC59
	str	w7, [sp,8]
	ldr	w20, [x29,736]
.LVL154:
	ldr	w22, [x29,740]
.LVL155:
	ldr	w18, [x29,744]
	ldr	w17, [x29,748]
	str	w4, [x29,100]
	ldr	w7, [x19,496]
	str	w27, [sp,16]
	str	w21, [sp,24]
	str	w20, [sp,32]
	str	w22, [sp,40]
	str	w18, [sp,48]
	str	w17, [sp,56]
	str	x26, [sp,64]
	ldr	w13, [x29,412]
	ldr	w12, [x29,416]
	ldr	w11, [x29,420]
	ldr	w25, [x29,408]
.LVL156:
	ldr	w4, [x29,104]
	ldr	w6, [x29,100]
	str	x23, [sp,72]
	str	w16, [sp,80]
	str	w15, [sp,88]
	ldr	w18, [x29,384]
	ldr	w17, [x29,388]
	ldr	w16, [x29,376]
	ldr	w15, [x29,380]
	ldr	w28, [x29,344]
	ldr	w27, [x29,348]
.LVL157:
	ldr	w26, [x29,364]
	ldr	w23, [x29,352]
	ldr	w22, [x29,368]
	ldr	w21, [x29,356]
	ldr	w20, [x29,372]
	str	w8, [sp,96]
	str	w14, [sp,112]
	ldr	w8, [x29,392]
	str	w18, [sp,168]
	str	w17, [sp,176]
	str	w16, [sp,184]
	str	w15, [sp,192]
	str	w13, [sp,216]
	str	w13, [sp,224]
	str	w12, [sp,232]
	str	w12, [sp,240]
	str	w28, [sp,104]
	str	w27, [sp,120]
	str	w26, [sp,128]
	str	w23, [sp,136]
	str	w22, [sp,144]
	str	w21, [sp,152]
	str	w20, [sp,160]
	str	w25, [sp,200]
	str	w25, [sp,208]
	str	w11, [sp,248]
	str	w11, [sp,256]
	str	w8, [sp,264]
	ldr	w18, [x29,400]
	ldr	w16, [x19,504]
	ldr	w15, [x19,512]
	ldr	w8, [x29,396]
	ldr	w17, [x29,404]
	ldr	w14, [x29,424]
	ldr	w13, [x29,428]
	ldr	w12, [x29,796]
	ldr	w11, [x29,800]
	ldr	w10, [x29,804]
	str	w16, [sp,296]
	str	w15, [sp,304]
	str	w9, [sp,312]
	str	w9, [sp,320]
	str	w14, [sp,328]
	str	w13, [sp,336]
	str	w12, [sp,344]
	str	w11, [sp,352]
	str	w10, [sp,360]
	str	w18, [sp,280]
	str	w17, [sp,288]
	str	w8, [sp,272]
	bl	seq_printf
.LVL158:
	.loc 1 391 0
	mov	w0, 0
	b	.L205
.LVL159:
.L210:
	.loc 1 209 0 discriminator 4
	mov	w25, 1
.LVL160:
	b	.L196
.LVL161:
.L211:
	mov	w25, 2
.LVL162:
	b	.L196
.LVL163:
.L213:
	mov	w25, 4
.LVL164:
	b	.L196
.LVL165:
.L212:
	mov	w25, 3
.LVL166:
	b	.L196
.LVL167:
.L214:
	mov	w25, 5
.LVL168:
	b	.L196
.LVL169:
.L216:
	mov	w25, 7
.LVL170:
	b	.L196
.LVL171:
.L215:
	mov	w25, 6
.LVL172:
	b	.L196
.L254:
	.loc 1 216 0
	add	x3, x23, :lo12:.LANCHOR1
	adrp	x1, .LC24
	adrp	x4, .LC52
	mov	w0, 1
	add	x1, x1, :lo12:.LC24
	mov	w2, 216
	add	x3, x3, 832
	add	x4, x4, :lo12:.LC52
	bl	HI_PRINT
.LVL173:
	.loc 1 217 0
	mov	w0, -1
	b	.L205
.L253:
	.loc 1 392 0
	bl	__stack_chk_fail
.LVL174:
	.cfi_endproc
.LFE2801:
	.size	VENC_DRV_ProcRead, .-VENC_DRV_ProcRead
	.global	VENC_PROC_FOPS
	.section	.rodata
	.align	3
.LANCHOR1 = . + 0
	.type	__FUNCTION__.47521, %object
	.size	__FUNCTION__.47521, 19
__FUNCTION__.47521:
	.string	"VENC_DRV_ProcWrite"
	.zero	5
.LC0:
	.string	"MPEG2"
	.zero	10
	.string	"MPEG4"
	.zero	10
	.string	"AVS"
	.zero	12
	.string	"H.263"
	.zero	10
	.string	"H.264"
	.zero	10
	.string	"REAL8"
	.zero	10
	.string	"REAL9"
	.zero	10
	.string	"VC1"
	.zero	12
	.string	"VP6"
	.zero	12
	.string	"VP6F"
	.zero	11
	.string	"VP6A"
	.zero	11
	.string	"MJPEG"
	.zero	10
	.string	"SORENSON"
	.zero	7
	.string	"DIVX3"
	.zero	10
	.string	"RAW"
	.zero	12
	.string	"JPEG"
	.zero	11
	.string	"VP8"
	.zero	12
	.string	"MSMPEG4V1"
	.zero	6
	.string	"MSMPEG4V2"
	.zero	6
	.string	"MSVIDEO1"
	.zero	7
	.string	"WMV1"
	.zero	11
	.string	"WMV2"
	.zero	11
	.string	"RV10"
	.zero	11
	.string	"RV20"
	.zero	11
	.string	"SVQ1"
	.zero	11
	.string	"SVQ3"
	.zero	11
	.string	"H261"
	.zero	11
	.string	"VP3"
	.zero	12
	.string	"VP5"
	.zero	12
	.string	"CHINEPAK"
	.zero	7
	.string	"INDEO2"
	.zero	9
	.string	"INDEO3"
	.zero	9
	.string	"INDEO4"
	.zero	9
	.string	"INDEO5"
	.zero	9
	.string	"MJPEGB"
	.zero	9
	.string	"MVC"
	.zero	12
	.string	"HEVC"
	.zero	11
	.string	"DV"
	.zero	13
	.string	"BUTT"
	.zero	11
	.string	"UNKNOWN"
	.zero	8
.LC45:
	.string	"FALSE"
	.zero	2
.LC46:
	.string	"TRUE"
	.zero	3
.LC47:
	.string	"Stop"
	.zero	3
.LC48:
	.string	"Start"
	.zero	2
.LC1:
	.string	"SP420_VU"
	.zero	7
	.string	"SP420_UV"
	.zero	7
	.string	"Planer420"
	.zero	6
	.string	"Planer422"
	.zero	6
	.string	"Package422_YUYV"
	.string	"Package422_UYVY"
	.string	"Package422_YVYU"
	.string	"UNKNOWN"
	.zero	8
.LC49:
	.string	"NA"
	.zero	5
	.type	__FUNCTION__.47501, %object
	.size	__FUNCTION__.47501, 18
__FUNCTION__.47501:
	.string	"VENC_DRV_ProcRead"
	.data
	.align	3
	.type	VENC_PROC_FOPS, %object
	.size	VENC_PROC_FOPS, 240
VENC_PROC_FOPS:
	.xword	0
	.xword	seq_lseek
	.xword	seq_read
	.xword	VENC_DRV_ProcWrite
	.zero	64
	.xword	VENC_DRV_ProcOpen
	.zero	8
	.xword	single_release
	.zero	120
	.section	.rodata.str1.8,"aMS",%progbits,1
	.align	3
.LC2:
	.string	"================ MEM INFO ================\n\n"
	.zero	3
.LC3:
	.string	" %-15s%-10s%-10s%-10s\n\n"
.LC4:
	.string	"NAME"
	.zero	3
.LC5:
	.string	"OWNER"
	.zero	2
.LC6:
	.string	"PHYADDR"
.LC7:
	.string	"SIZE"
	.zero	3
.LC8:
	.string	" %-15s%-10s%-10x%-10d\n"
	.zero	1
.LC9:
	.string	"\n"
	.zero	6
.LC10:
	.string	"------------------------------------------\n\n"
	.zero	3
.LC11:
	.string	"%-15s:%d\n"
	.zero	6
.LC12:
	.string	" TotalNum"
	.zero	6
.LC13:
	.string	" TotalSize"
	.zero	5
.LC14:
	.string	"==========================================\n\n"
	.zero	3
.LC15:
	.string	"------ VENC Proc Help ------\n"
	.zero	2
.LC16:
	.string	"USAGE:echo [cmd] [para1] [para2] > /proc/msp/vencXX\n"
	.zero	3
.LC17:
	.string	"cmd = set_print,   para1           set print level for Encode,(0x1:FATAL 0x3:Err 0x7: WARNING 0xf:INFO 0x1f:DEBUG)\n"
	.zero	4
.LC18:
	.string	"cmd = save_yuv,    para1 = start   start to save the yuv data before Encode\n"
	.zero	3
.LC19:
	.string	"cmd = save_yuv,    para1 = stop    stop to save the yuv data before Encode\n"
	.zero	4
.LC20:
	.string	"cmd = save_stream, para1 = second  save the streams after Encode for [para2] seconds\n"
	.zero	2
.LC21:
	.string	"cmd = save_stream, para1 = frame  save the streams after Encode for [para2] frames\n"
	.zero	4
.LC22:
	.string	"cmd = LowPowEn,    para1          if [para1]=0,means unable the low power control of algorithm\n"
.LC23:
	.string	"                                  if [para1]=0,means enable the low power control of algorithm\n"
.LC24:
	.string	"/mnt/disk/jenkins/ci/workspace/chipset_pipeline_release/opensource/component_code/vendor/huawei/extra/build/build_script/kirin_kernel_release/kernel/drivers/vcodec/hi_vcodec/venc/drv/venc/drv_venc_proc.c"
	.zero	4
.LC25:
	.string	"D_VENC_GET_CHN failed!\n"
.LC26:
	.string	"MMZ: your echo parameter string is too long!\n"
	.zero	2
.LC27:
	.string	"MMZ: copy_from_user failed!\n"
	.zero	3
.LC28:
	.string	"save_yuv"
	.zero	7
.LC29:
	.string	"start"
	.zero	2
.LC30:
	.string	"stop"
	.zero	3
.LC31:
	.string	"save_stream"
	.zero	4
.LC32:
	.string	"second"
	.zero	1
.LC33:
	.string	"error: echo cmd '%s' is worng!\n"
.LC34:
	.string	"error: not support save too large stream file!\n"
.LC35:
	.string	"now save stream %d second(to do)\n"
	.zero	6
.LC36:
	.string	"frame"
	.zero	2
.LC37:
	.string	"error: not support save too large YUV file!\n"
	.zero	3
.LC38:
	.string	"now save frame %d second(to do)\n"
	.zero	7
.LC39:
	.string	"LowPowEn"
	.zero	7
.LC40:
	.string	"LowPowEn\n"
	.zero	6
.LC41:
	.string	"0"
	.zero	6
.LC42:
	.string	"1"
	.zero	6
.LC43:
	.string	"set_print"
	.zero	6
.LC44:
	.string	"set_print level:%d\n"
	.zero	4
.LC50:
	.string	"******************************************\n"
	.zero	4
.LC51:
	.string	"*********** VENC EFL INFO ****************\n"
	.zero	4
.LC52:
	.string	"VENC_DRV_EflQueryStatInfo failed!\n"
	.zero	5
.LC53:
	.string	"NA"
	.zero	5
.LC54:
	.string	"6"
	.zero	6
.LC55:
	.string	"***********Config by user ************\n"
.LC56:
	.string	"Channel ID                :(%d)\n"
	.zero	7
.LC57:
	.ascii	"CodecID                   :%s(0x%x)\nResolution             "
	.ascii	"   :%uX%u\nTargetBitRate             :%u(kbps)\nGop         "
	.ascii	"              :%u\nFrmRate(Input/Ou"
	.string	"tPut)     :%u/%u(fps)\npriority                  :%u\nQuickEncode               :%s\nSplit                     :Enable(%s),Size(%u)\nStreamBufSize             :%u(KB)\nMaxQP/MinQP               :%s/%s\nQLevel                    :%u\nRotation                  :%u\n"
.LC58:
	.string	"**********Real-time Statistics **********\n"
	.zero	5
.LC59:
	.ascii	"WorkStatus                   :%s\nFrameInfo                 "
	.ascii	"   :%s\nInputFrmRate(Use/Real)       :%u/%u(fps)\nTargetFrmR"
	.ascii	"ate(Use/Real)      :%u/%u(fps)\nBitRate                     "
	.ascii	" :%u(kbps)\nEncodeNum                    :%u\nSkipNum       "
	.ascii	"               :Total(%u) FrmRateCtrl(%u) SamePTS(%u) QuickE"
	.ascii	"ncode(%u) TooFewBuf(%u) ErrCfg(%u)\nFrameBuffer:\nVencQueueB"
	.ascii	"uf(Total/Used)     :%s/%s\nStreamBuffer:\nTotal/Used/Percent"
	.ascii	"(Bytes)    :%u/%u/%u%%\nStatistics(Total):\nAcquireFrame(Try"
	.ascii	"/OK)         :%d/%d\nReleaseFrame(Try/OK)         :%d/%d\nAc"
	.ascii	"quireStream(Try/OK)        :%d/%d\nReleaseStream(Try/OK)    "
	.ascii	"    :%d/%d\nAcquireStreamInIsr(Try/OK)   :%d/%d\nAcquireStre"
	.ascii	"amInTask(Try/OK)  :%d/%d\nFlushUndoFrame(Try/OK)       :%d/%"
	.ascii	"d\nFlushUndoStream(Try/OK)      :%d/%d\nRecvTotalFrame(Try/O"
	.ascii	"K)       :%d/%d\nRecvTotalStream(Try/OK)      :%d/%d\nQueueF"
	.ascii	"rame(Try/OK)           :%d/%d\nQueueStream(Try/OK)          "
	.ascii	":%d/%d\nStat"
	.string	"istics(PerSecond):\nAcquireFrame(Try/OK)         :%d/%d\nReleaseFrame(Try/OK)         :%d/%d\nStartVencInTask              :%d\nStartVencInIsr               :%d\nFrameIrqNum                  :%d\nSliceIrqNum                  :%d\nIrqNum                       :%d\n"
	.bss
	.align	3
.LANCHOR0 = . + 0
	.type	buf.47508, %object
	.size	buf.47508, 256
buf.47508:
	.zero	256
	.type	str1.47509, %object
	.size	str1.47509, 256
str1.47509:
	.zero	256
	.type	str2.47510, %object
	.size	str2.47510, 256
str2.47510:
	.zero	256
	.type	str3.47511, %object
	.size	str3.47511, 256
str3.47511:
	.zero	256
	.text
.Letext0:
	.file 5 "/mnt/disk/jenkins/ci/workspace/chipset_pipeline_release/opensource/component_code/vendor/huawei/extra/build/build_script/kirin_kernel_release/kernel/include/uapi/asm-generic/int-ll64.h"
	.file 6 "/mnt/disk/jenkins/ci/workspace/chipset_pipeline_release/opensource/component_code/vendor/huawei/extra/build/build_script/kirin_kernel_release/kernel/include/asm-generic/int-ll64.h"
	.file 7 "/mnt/disk/jenkins/ci/workspace/chipset_pipeline_release/opensource/component_code/vendor/huawei/extra/build/build_script/kirin_kernel_release/kernel/include/uapi/asm-generic/posix_types.h"
	.file 8 "/mnt/disk/jenkins/ci/workspace/chipset_pipeline_release/opensource/component_code/vendor/huawei/extra/build/build_script/kirin_kernel_release/kernel/include/linux/export.h"
	.file 9 "/mnt/disk/jenkins/ci/workspace/chipset_pipeline_release/opensource/component_code/vendor/huawei/extra/build/build_script/kirin_kernel_release/kernel/include/linux/types.h"
	.file 10 "/mnt/disk/jenkins/ci/workspace/chipset_pipeline_release/opensource/component_code/vendor/huawei/extra/build/build_script/kirin_kernel_release/kernel/include/asm-generic/bug.h"
	.file 11 "/mnt/disk/jenkins/ci/workspace/chipset_pipeline_release/opensource/component_code/vendor/huawei/extra/build/build_script/kirin_kernel_release/kernel/include/linux/restart_block.h"
	.file 12 "/mnt/disk/jenkins/ci/workspace/chipset_pipeline_release/opensource/component_code/vendor/huawei/extra/build/build_script/kirin_kernel_release/kernel/include/uapi/linux/time.h"
	.file 13 "/mnt/disk/jenkins/ci/workspace/chipset_pipeline_release/opensource/component_code/vendor/huawei/extra/build/build_script/kirin_kernel_release/kernel/arch/arm64/include/asm/compat.h"
	.file 14 "/mnt/disk/jenkins/ci/workspace/chipset_pipeline_release/opensource/component_code/vendor/huawei/extra/build/build_script/kirin_kernel_release/kernel/arch/arm64/include/asm/thread_info.h"
	.file 15 "/mnt/disk/jenkins/ci/workspace/chipset_pipeline_release/opensource/component_code/vendor/huawei/extra/build/build_script/kirin_kernel_release/kernel/arch/arm64/include/uapi/asm/ptrace.h"
	.file 16 "/mnt/disk/jenkins/ci/workspace/chipset_pipeline_release/opensource/component_code/vendor/huawei/extra/build/build_script/kirin_kernel_release/kernel/arch/arm64/include/asm/spinlock_types.h"
	.file 17 "/mnt/disk/jenkins/ci/workspace/chipset_pipeline_release/opensource/component_code/vendor/huawei/extra/build/build_script/kirin_kernel_release/kernel/include/linux/spinlock_types.h"
	.file 18 "/mnt/disk/jenkins/ci/workspace/chipset_pipeline_release/opensource/component_code/vendor/huawei/extra/build/build_script/kirin_kernel_release/kernel/include/linux/rwlock_types.h"
	.file 19 "/mnt/disk/jenkins/ci/workspace/chipset_pipeline_release/opensource/component_code/vendor/huawei/extra/build/build_script/kirin_kernel_release/kernel/arch/arm64/include/asm/fpsimd.h"
	.file 20 "/mnt/disk/jenkins/ci/workspace/chipset_pipeline_release/opensource/component_code/vendor/huawei/extra/build/build_script/kirin_kernel_release/kernel/include/linux/jump_label.h"
	.file 21 "/mnt/disk/jenkins/ci/workspace/chipset_pipeline_release/opensource/component_code/vendor/huawei/extra/build/build_script/kirin_kernel_release/kernel/include/asm-generic/atomic-long.h"
	.file 22 "/mnt/disk/jenkins/ci/workspace/chipset_pipeline_release/opensource/component_code/vendor/huawei/extra/build/build_script/kirin_kernel_release/kernel/arch/arm64/include/asm/processor.h"
	.file 23 "/mnt/disk/jenkins/ci/workspace/chipset_pipeline_release/opensource/component_code/vendor/huawei/extra/build/build_script/kirin_kernel_release/kernel/include/linux/wait.h"
	.file 24 "/mnt/disk/jenkins/ci/workspace/chipset_pipeline_release/opensource/component_code/vendor/huawei/extra/build/build_script/kirin_kernel_release/kernel/include/linux/cpumask.h"
	.file 25 "/mnt/disk/jenkins/ci/workspace/chipset_pipeline_release/opensource/component_code/vendor/huawei/extra/build/build_script/kirin_kernel_release/kernel/include/linux/seqlock.h"
	.file 26 "/mnt/disk/jenkins/ci/workspace/chipset_pipeline_release/opensource/component_code/vendor/huawei/extra/build/build_script/kirin_kernel_release/kernel/include/linux/completion.h"
	.file 27 "/mnt/disk/jenkins/ci/workspace/chipset_pipeline_release/opensource/component_code/vendor/huawei/extra/build/build_script/kirin_kernel_release/kernel/include/linux/time64.h"
	.file 28 "/mnt/disk/jenkins/ci/workspace/chipset_pipeline_release/opensource/component_code/vendor/huawei/extra/build/build_script/kirin_kernel_release/kernel/include/linux/ktime.h"
	.file 29 "/mnt/disk/jenkins/ci/workspace/chipset_pipeline_release/opensource/component_code/vendor/huawei/extra/build/build_script/kirin_kernel_release/kernel/include/linux/list_bl.h"
	.file 30 "/mnt/disk/jenkins/ci/workspace/chipset_pipeline_release/opensource/component_code/vendor/huawei/extra/build/build_script/kirin_kernel_release/kernel/include/linux/lockref.h"
	.file 31 "/mnt/disk/jenkins/ci/workspace/chipset_pipeline_release/opensource/component_code/vendor/huawei/extra/build/build_script/kirin_kernel_release/kernel/include/linux/dcache.h"
	.file 32 "/mnt/disk/jenkins/ci/workspace/chipset_pipeline_release/opensource/component_code/vendor/huawei/extra/build/build_script/kirin_kernel_release/kernel/include/linux/fs.h"
	.file 33 "/mnt/disk/jenkins/ci/workspace/chipset_pipeline_release/opensource/component_code/vendor/huawei/extra/build/build_script/kirin_kernel_release/kernel/include/linux/path.h"
	.file 34 "/mnt/disk/jenkins/ci/workspace/chipset_pipeline_release/opensource/component_code/vendor/huawei/extra/build/build_script/kirin_kernel_release/kernel/include/linux/capability.h"
	.file 35 "/mnt/disk/jenkins/ci/workspace/chipset_pipeline_release/opensource/component_code/vendor/huawei/extra/build/build_script/kirin_kernel_release/kernel/include/linux/plist.h"
	.file 36 "/mnt/disk/jenkins/ci/workspace/chipset_pipeline_release/opensource/component_code/vendor/huawei/extra/build/build_script/kirin_kernel_release/kernel/include/linux/rbtree.h"
	.file 37 "/mnt/disk/jenkins/ci/workspace/chipset_pipeline_release/opensource/component_code/vendor/huawei/extra/build/build_script/kirin_kernel_release/kernel/include/linux/nodemask.h"
	.file 38 "/mnt/disk/jenkins/ci/workspace/chipset_pipeline_release/opensource/component_code/vendor/huawei/extra/build/build_script/kirin_kernel_release/kernel/include/linux/osq_lock.h"
	.file 39 "/mnt/disk/jenkins/ci/workspace/chipset_pipeline_release/opensource/component_code/vendor/huawei/extra/build/build_script/kirin_kernel_release/kernel/include/linux/rwsem.h"
	.file 40 "/mnt/disk/jenkins/ci/workspace/chipset_pipeline_release/opensource/component_code/vendor/huawei/extra/build/build_script/kirin_kernel_release/kernel/include/linux/sched.h"
	.file 41 "/mnt/disk/jenkins/ci/workspace/chipset_pipeline_release/opensource/component_code/vendor/huawei/extra/build/build_script/kirin_kernel_release/kernel/include/linux/mm_types.h"
	.file 42 "/mnt/disk/jenkins/ci/workspace/chipset_pipeline_release/opensource/component_code/vendor/huawei/extra/build/build_script/kirin_kernel_release/kernel/include/linux/lockdep.h"
	.file 43 "/mnt/disk/jenkins/ci/workspace/chipset_pipeline_release/opensource/component_code/vendor/huawei/extra/build/build_script/kirin_kernel_release/kernel/include/linux/uprobes.h"
	.file 44 "/mnt/disk/jenkins/ci/workspace/chipset_pipeline_release/opensource/component_code/vendor/huawei/extra/build/build_script/kirin_kernel_release/kernel/include/linux/timer.h"
	.file 45 "/mnt/disk/jenkins/ci/workspace/chipset_pipeline_release/opensource/component_code/vendor/huawei/extra/build/build_script/kirin_kernel_release/kernel/include/linux/uidgid.h"
	.file 46 "/mnt/disk/jenkins/ci/workspace/chipset_pipeline_release/opensource/component_code/vendor/huawei/extra/build/build_script/kirin_kernel_release/kernel/include/linux/workqueue.h"
	.file 47 "/mnt/disk/jenkins/ci/workspace/chipset_pipeline_release/opensource/component_code/vendor/huawei/extra/build/build_script/kirin_kernel_release/kernel/arch/arm64/include/asm/pgtable-types.h"
	.file 48 "/mnt/disk/jenkins/ci/workspace/chipset_pipeline_release/opensource/component_code/vendor/huawei/extra/build/build_script/kirin_kernel_release/kernel/arch/arm64/include/asm/page.h"
	.file 49 "/mnt/disk/jenkins/ci/workspace/chipset_pipeline_release/opensource/component_code/vendor/huawei/extra/build/build_script/kirin_kernel_release/kernel/include/linux/llist.h"
	.file 50 "/mnt/disk/jenkins/ci/workspace/chipset_pipeline_release/opensource/component_code/vendor/huawei/extra/build/build_script/kirin_kernel_release/kernel/arch/arm64/include/asm/smp.h"
	.file 51 "/mnt/disk/jenkins/ci/workspace/chipset_pipeline_release/opensource/component_code/vendor/huawei/extra/build/build_script/kirin_kernel_release/kernel/arch/arm64/include/asm/mmu.h"
	.file 52 "/mnt/disk/jenkins/ci/workspace/chipset_pipeline_release/opensource/component_code/vendor/huawei/extra/build/build_script/kirin_kernel_release/kernel/include/linux/mm.h"
	.file 53 "/mnt/disk/jenkins/ci/workspace/chipset_pipeline_release/opensource/component_code/vendor/huawei/extra/build/build_script/kirin_kernel_release/kernel/include/asm-generic/cputime_jiffies.h"
	.file 54 "/mnt/disk/jenkins/ci/workspace/chipset_pipeline_release/opensource/component_code/vendor/huawei/extra/build/build_script/kirin_kernel_release/kernel/include/uapi/asm-generic/signal.h"
	.file 55 "/mnt/disk/jenkins/ci/workspace/chipset_pipeline_release/opensource/component_code/vendor/huawei/extra/build/build_script/kirin_kernel_release/kernel/include/uapi/asm-generic/signal-defs.h"
	.file 56 "/mnt/disk/jenkins/ci/workspace/chipset_pipeline_release/opensource/component_code/vendor/huawei/extra/build/build_script/kirin_kernel_release/kernel/include/uapi/asm-generic/siginfo.h"
	.file 57 "/mnt/disk/jenkins/ci/workspace/chipset_pipeline_release/opensource/component_code/vendor/huawei/extra/build/build_script/kirin_kernel_release/kernel/include/linux/signal.h"
	.file 58 "/mnt/disk/jenkins/ci/workspace/chipset_pipeline_release/opensource/component_code/vendor/huawei/extra/build/build_script/kirin_kernel_release/kernel/include/linux/pid.h"
	.file 59 "/mnt/disk/jenkins/ci/workspace/chipset_pipeline_release/opensource/component_code/vendor/huawei/extra/build/build_script/kirin_kernel_release/kernel/include/linux/mmzone.h"
	.file 60 "/mnt/disk/jenkins/ci/workspace/chipset_pipeline_release/opensource/component_code/vendor/huawei/extra/build/build_script/kirin_kernel_release/kernel/include/linux/mutex.h"
	.file 61 "/mnt/disk/jenkins/ci/workspace/chipset_pipeline_release/opensource/component_code/vendor/huawei/extra/build/build_script/kirin_kernel_release/kernel/include/linux/seccomp.h"
	.file 62 "/mnt/disk/jenkins/ci/workspace/chipset_pipeline_release/opensource/component_code/vendor/huawei/extra/build/build_script/kirin_kernel_release/kernel/include/uapi/linux/resource.h"
	.file 63 "/mnt/disk/jenkins/ci/workspace/chipset_pipeline_release/opensource/component_code/vendor/huawei/extra/build/build_script/kirin_kernel_release/kernel/include/linux/timerqueue.h"
	.file 64 "/mnt/disk/jenkins/ci/workspace/chipset_pipeline_release/opensource/component_code/vendor/huawei/extra/build/build_script/kirin_kernel_release/kernel/include/linux/hrtimer.h"
	.file 65 "/mnt/disk/jenkins/ci/workspace/chipset_pipeline_release/opensource/component_code/vendor/huawei/extra/build/build_script/kirin_kernel_release/kernel/include/linux/task_io_accounting.h"
	.file 66 "/mnt/disk/jenkins/ci/workspace/chipset_pipeline_release/opensource/component_code/vendor/huawei/extra/build/build_script/kirin_kernel_release/kernel/include/linux/assoc_array.h"
	.file 67 "/mnt/disk/jenkins/ci/workspace/chipset_pipeline_release/opensource/component_code/vendor/huawei/extra/build/build_script/kirin_kernel_release/kernel/include/linux/key.h"
	.file 68 "/mnt/disk/jenkins/ci/workspace/chipset_pipeline_release/opensource/component_code/vendor/huawei/extra/build/build_script/kirin_kernel_release/kernel/include/linux/cred.h"
	.file 69 "/mnt/disk/jenkins/ci/workspace/chipset_pipeline_release/opensource/component_code/vendor/huawei/extra/build/build_script/kirin_kernel_release/kernel/include/linux/idr.h"
	.file 70 "/mnt/disk/jenkins/ci/workspace/chipset_pipeline_release/opensource/component_code/vendor/huawei/extra/build/build_script/kirin_kernel_release/kernel/include/linux/percpu-refcount.h"
	.file 71 "/mnt/disk/jenkins/ci/workspace/chipset_pipeline_release/opensource/component_code/vendor/huawei/extra/build/build_script/kirin_kernel_release/kernel/include/linux/rcu_sync.h"
	.file 72 "/mnt/disk/jenkins/ci/workspace/chipset_pipeline_release/opensource/component_code/vendor/huawei/extra/build/build_script/kirin_kernel_release/kernel/include/linux/percpu-rwsem.h"
	.file 73 "/mnt/disk/jenkins/ci/workspace/chipset_pipeline_release/opensource/component_code/vendor/huawei/extra/build/build_script/kirin_kernel_release/kernel/include/linux/bpf-cgroup.h"
	.file 74 "/mnt/disk/jenkins/ci/workspace/chipset_pipeline_release/opensource/component_code/vendor/huawei/extra/build/build_script/kirin_kernel_release/kernel/include/linux/cgroup-defs.h"
	.file 75 "/mnt/disk/jenkins/ci/workspace/chipset_pipeline_release/opensource/component_code/vendor/huawei/extra/build/build_script/kirin_kernel_release/kernel/include/linux/kernfs.h"
	.file 76 "/mnt/disk/jenkins/ci/workspace/chipset_pipeline_release/opensource/component_code/vendor/huawei/extra/build/build_script/kirin_kernel_release/kernel/include/linux/seq_file.h"
	.file 77 "/mnt/disk/jenkins/ci/workspace/chipset_pipeline_release/opensource/component_code/vendor/huawei/extra/build/build_script/kirin_kernel_release/kernel/include/linux/stat.h"
	.file 78 "/mnt/disk/jenkins/ci/workspace/chipset_pipeline_release/opensource/component_code/vendor/huawei/extra/build/build_script/kirin_kernel_release/kernel/include/linux/shrinker.h"
	.file 79 "/mnt/disk/jenkins/ci/workspace/chipset_pipeline_release/opensource/component_code/vendor/huawei/extra/build/build_script/kirin_kernel_release/kernel/include/linux/list_lru.h"
	.file 80 "/mnt/disk/jenkins/ci/workspace/chipset_pipeline_release/opensource/component_code/vendor/huawei/extra/build/build_script/kirin_kernel_release/kernel/include/linux/radix-tree.h"
	.file 81 "/mnt/disk/jenkins/ci/workspace/chipset_pipeline_release/opensource/component_code/vendor/huawei/extra/build/build_script/kirin_kernel_release/kernel/include/uapi/linux/fiemap.h"
	.file 82 "/mnt/disk/jenkins/ci/workspace/chipset_pipeline_release/opensource/component_code/vendor/huawei/extra/build/build_script/kirin_kernel_release/kernel/include/linux/migrate_mode.h"
	.file 83 "/mnt/disk/jenkins/ci/workspace/chipset_pipeline_release/opensource/component_code/vendor/huawei/extra/build/build_script/kirin_kernel_release/kernel/include/linux/delayed_call.h"
	.file 84 "/mnt/disk/jenkins/ci/workspace/chipset_pipeline_release/opensource/component_code/vendor/huawei/extra/build/build_script/kirin_kernel_release/kernel/include/linux/percpu_counter.h"
	.file 85 "/mnt/disk/jenkins/ci/workspace/chipset_pipeline_release/opensource/component_code/vendor/huawei/extra/build/build_script/kirin_kernel_release/kernel/include/linux/quota.h"
	.file 86 "/mnt/disk/jenkins/ci/workspace/chipset_pipeline_release/opensource/component_code/vendor/huawei/extra/build/build_script/kirin_kernel_release/kernel/include/linux/projid.h"
	.file 87 "/mnt/disk/jenkins/ci/workspace/chipset_pipeline_release/opensource/component_code/vendor/huawei/extra/build/build_script/kirin_kernel_release/kernel/include/linux/module.h"
	.file 88 "/mnt/disk/jenkins/ci/workspace/chipset_pipeline_release/opensource/component_code/vendor/huawei/extra/build/build_script/kirin_kernel_release/kernel/include/linux/nfs_fs_i.h"
	.file 89 "/mnt/disk/jenkins/ci/workspace/chipset_pipeline_release/opensource/component_code/vendor/huawei/extra/build/build_script/kirin_kernel_release/kernel/include/linux/kobject_ns.h"
	.file 90 "/mnt/disk/jenkins/ci/workspace/chipset_pipeline_release/opensource/component_code/vendor/huawei/extra/build/build_script/kirin_kernel_release/kernel/include/linux/sysfs.h"
	.file 91 "/mnt/disk/jenkins/ci/workspace/chipset_pipeline_release/opensource/component_code/vendor/huawei/extra/build/build_script/kirin_kernel_release/kernel/include/linux/kobject.h"
	.file 92 "/mnt/disk/jenkins/ci/workspace/chipset_pipeline_release/opensource/component_code/vendor/huawei/extra/build/build_script/kirin_kernel_release/kernel/include/linux/kref.h"
	.file 93 "/mnt/disk/jenkins/ci/workspace/chipset_pipeline_release/opensource/component_code/vendor/huawei/extra/build/build_script/kirin_kernel_release/kernel/include/linux/klist.h"
	.file 94 "/mnt/disk/jenkins/ci/workspace/chipset_pipeline_release/opensource/component_code/vendor/huawei/extra/build/build_script/kirin_kernel_release/kernel/include/linux/pinctrl/devinfo.h"
	.file 95 "/mnt/disk/jenkins/ci/workspace/chipset_pipeline_release/opensource/component_code/vendor/huawei/extra/build/build_script/kirin_kernel_release/kernel/include/linux/pm.h"
	.file 96 "/mnt/disk/jenkins/ci/workspace/chipset_pipeline_release/opensource/component_code/vendor/huawei/extra/build/build_script/kirin_kernel_release/kernel/include/linux/device.h"
	.file 97 "/mnt/disk/jenkins/ci/workspace/chipset_pipeline_release/opensource/component_code/vendor/huawei/extra/build/build_script/kirin_kernel_release/kernel/include/linux/pm_wakeup.h"
	.file 98 "/mnt/disk/jenkins/ci/workspace/chipset_pipeline_release/opensource/component_code/vendor/huawei/extra/build/build_script/kirin_kernel_release/kernel/arch/arm64/include/asm/device.h"
	.file 99 "/mnt/disk/jenkins/ci/workspace/chipset_pipeline_release/opensource/component_code/vendor/huawei/extra/build/build_script/kirin_kernel_release/kernel/include/linux/dma-mapping.h"
	.file 100 "/mnt/disk/jenkins/ci/workspace/chipset_pipeline_release/opensource/component_code/vendor/huawei/extra/build/build_script/kirin_kernel_release/kernel/include/linux/iommu.h"
	.file 101 "/mnt/disk/jenkins/ci/workspace/chipset_pipeline_release/opensource/component_code/vendor/huawei/extra/build/build_script/kirin_kernel_release/kernel/include/linux/mod_devicetable.h"
	.file 102 "/mnt/disk/jenkins/ci/workspace/chipset_pipeline_release/opensource/component_code/vendor/huawei/extra/build/build_script/kirin_kernel_release/kernel/include/linux/of.h"
	.file 103 "/mnt/disk/jenkins/ci/workspace/chipset_pipeline_release/opensource/component_code/vendor/huawei/extra/build/build_script/kirin_kernel_release/kernel/include/linux/fwnode.h"
	.file 104 "/mnt/disk/jenkins/ci/workspace/chipset_pipeline_release/opensource/component_code/vendor/huawei/extra/build/build_script/kirin_kernel_release/kernel/drivers/vcodec/hi_vcodec/venc/include/hi_type.h"
	.file 105 "/mnt/disk/jenkins/ci/workspace/chipset_pipeline_release/opensource/component_code/vendor/huawei/extra/build/build_script/kirin_kernel_release/kernel/include/linux/stddef.h"
	.file 106 "/mnt/disk/jenkins/ci/workspace/chipset_pipeline_release/opensource/component_code/vendor/huawei/extra/build/build_script/kirin_kernel_release/kernel/drivers/vcodec/hi_vcodec/venc/include/hi_unf_video.h"
	.file 107 "/mnt/disk/jenkins/ci/workspace/chipset_pipeline_release/opensource/component_code/vendor/huawei/extra/build/build_script/kirin_kernel_release/kernel/drivers/vcodec/hi_vcodec/venc/include/hi_unf_venc.h"
	.file 108 "/mnt/disk/jenkins/ci/workspace/chipset_pipeline_release/opensource/component_code/vendor/huawei/extra/build/build_script/kirin_kernel_release/kernel/drivers/vcodec/hi_vcodec/venc/drv/include/hi_drv_venc.h"
	.file 109 "/mnt/disk/jenkins/ci/workspace/chipset_pipeline_release/opensource/component_code/vendor/huawei/extra/build/build_script/kirin_kernel_release/kernel/include/linux/tracepoint-defs.h"
	.file 110 "/mnt/disk/jenkins/ci/workspace/chipset_pipeline_release/opensource/component_code/vendor/huawei/extra/build/build_script/kirin_kernel_release/kernel/include/linux/vmstat.h"
	.file 111 "/mnt/disk/jenkins/ci/workspace/chipset_pipeline_release/opensource/component_code/vendor/huawei/extra/build/build_script/kirin_kernel_release/kernel/include/linux/scatterlist.h"
	.file 112 "/mnt/disk/jenkins/ci/workspace/chipset_pipeline_release/opensource/component_code/vendor/huawei/extra/build/build_script/kirin_kernel_release/kernel/include/linux/dma-direction.h"
	.file 113 "/mnt/disk/jenkins/ci/workspace/chipset_pipeline_release/opensource/component_code/vendor/huawei/extra/build/build_script/kirin_kernel_release/kernel/include/linux/tracepoint.h"
	.file 114 "/mnt/disk/jenkins/ci/workspace/chipset_pipeline_release/opensource/component_code/vendor/huawei/extra/build/build_script/kirin_kernel_release/kernel/drivers/vcodec/hi_vcodec/venc/drv/include/hi_drv_mem.h"
	.file 115 "/mnt/disk/jenkins/ci/workspace/chipset_pipeline_release/opensource/component_code/vendor/huawei/extra/build/build_script/kirin_kernel_release/kernel/drivers/vcodec/hi_vcodec/venc/drv/include/hi_drv_video.h"
	.file 116 "/mnt/disk/jenkins/ci/workspace/chipset_pipeline_release/opensource/component_code/vendor/huawei/extra/build/build_script/kirin_kernel_release/kernel/include/linux/interrupt.h"
	.file 117 "/mnt/disk/jenkins/ci/workspace/chipset_pipeline_release/opensource/component_code/vendor/huawei/extra/build/build_script/kirin_kernel_release/kernel/drivers/vcodec/hi_vcodec/venc/drv/venc/drv_venc_efl.h"
	.file 118 "/mnt/disk/jenkins/ci/workspace/chipset_pipeline_release/opensource/component_code/vendor/huawei/extra/build/build_script/kirin_kernel_release/kernel/drivers/vcodec/hi_vcodec/venc/drv/venc/drv_venc.h"
	.file 119 "/mnt/disk/jenkins/ci/workspace/chipset_pipeline_release/opensource/component_code/vendor/huawei/extra/build/build_script/kirin_kernel_release/kernel/include/uapi/linux/elf.h"
	.file 120 "/mnt/disk/jenkins/ci/workspace/chipset_pipeline_release/opensource/component_code/vendor/huawei/extra/build/build_script/kirin_kernel_release/kernel/include/linux/moduleparam.h"
	.file 121 "/mnt/disk/jenkins/ci/workspace/chipset_pipeline_release/opensource/component_code/vendor/huawei/extra/build/build_script/kirin_kernel_release/kernel/include/linux/rbtree_latch.h"
	.file 122 "/mnt/disk/jenkins/ci/workspace/chipset_pipeline_release/opensource/component_code/vendor/huawei/extra/build/build_script/kirin_kernel_release/kernel/arch/arm64/include/asm/module.h"
	.file 123 "/mnt/disk/jenkins/ci/workspace/chipset_pipeline_release/opensource/component_code/vendor/huawei/extra/build/build_script/kirin_kernel_release/kernel/include/linux/kasan-checks.h"
	.file 124 "/mnt/disk/jenkins/ci/workspace/chipset_pipeline_release/opensource/component_code/vendor/huawei/extra/build/build_script/kirin_kernel_release/kernel/drivers/vcodec/hi_vcodec/venc/drv/venc/drv_venc_buf_mng.h"
	.file 125 "/mnt/disk/jenkins/ci/workspace/chipset_pipeline_release/opensource/component_code/vendor/huawei/extra/build/build_script/kirin_kernel_release/kernel/arch/arm64/include/asm/cachetype.h"
	.file 126 "/mnt/disk/jenkins/ci/workspace/chipset_pipeline_release/opensource/component_code/vendor/huawei/extra/build/build_script/kirin_kernel_release/kernel/include/linux/printk.h"
	.file 127 "/mnt/disk/jenkins/ci/workspace/chipset_pipeline_release/opensource/component_code/vendor/huawei/extra/build/build_script/kirin_kernel_release/kernel/include/linux/kernel.h"
	.file 128 "/mnt/disk/jenkins/ci/workspace/chipset_pipeline_release/opensource/component_code/vendor/huawei/extra/build/build_script/kirin_kernel_release/kernel/arch/arm64/include/asm/stack_pointer.h"
	.file 129 "/mnt/disk/jenkins/ci/workspace/chipset_pipeline_release/opensource/component_code/vendor/huawei/extra/build/build_script/kirin_kernel_release/kernel/arch/arm64/include/asm/hwcap.h"
	.file 130 "/mnt/disk/jenkins/ci/workspace/chipset_pipeline_release/opensource/component_code/vendor/huawei/extra/build/build_script/kirin_kernel_release/kernel/arch/arm64/include/asm/cpufeature.h"
	.file 131 "/mnt/disk/jenkins/ci/workspace/chipset_pipeline_release/opensource/component_code/vendor/huawei/extra/build/build_script/kirin_kernel_release/kernel/arch/arm64/include/asm/virt.h"
	.file 132 "/mnt/disk/jenkins/ci/workspace/chipset_pipeline_release/opensource/component_code/vendor/huawei/extra/build/build_script/kirin_kernel_release/kernel/include/linux/jiffies.h"
	.file 133 "/mnt/disk/jenkins/ci/workspace/chipset_pipeline_release/opensource/component_code/vendor/huawei/extra/build/build_script/kirin_kernel_release/kernel/include/linux/highuid.h"
	.file 134 "/mnt/disk/jenkins/ci/workspace/chipset_pipeline_release/opensource/component_code/vendor/huawei/extra/build/build_script/kirin_kernel_release/kernel/arch/arm64/include/asm/memory.h"
	.file 135 "/mnt/disk/jenkins/ci/workspace/chipset_pipeline_release/opensource/component_code/vendor/huawei/extra/build/build_script/kirin_kernel_release/kernel/include/asm-generic/percpu.h"
	.file 136 "/mnt/disk/jenkins/ci/workspace/chipset_pipeline_release/opensource/component_code/vendor/huawei/extra/build/build_script/kirin_kernel_release/kernel/include/linux/slab.h"
	.file 137 "/mnt/disk/jenkins/ci/workspace/chipset_pipeline_release/opensource/component_code/vendor/huawei/extra/build/build_script/kirin_kernel_release/kernel/include/asm-generic/pgtable.h"
	.file 138 "/mnt/disk/jenkins/ci/workspace/chipset_pipeline_release/opensource/component_code/vendor/huawei/extra/build/build_script/kirin_kernel_release/kernel/include/linux/debug_locks.h"
	.file 139 "/mnt/disk/jenkins/ci/workspace/chipset_pipeline_release/opensource/component_code/vendor/huawei/extra/build/build_script/kirin_kernel_release/kernel/arch/arm64/include/../../arm/include/asm/xen/hypervisor.h"
	.file 140 "/mnt/disk/jenkins/ci/workspace/chipset_pipeline_release/opensource/component_code/vendor/huawei/extra/build/build_script/kirin_kernel_release/kernel/arch/arm64/include/asm/dma-mapping.h"
	.file 141 "/mnt/disk/jenkins/ci/workspace/chipset_pipeline_release/opensource/component_code/vendor/huawei/extra/build/build_script/kirin_kernel_release/kernel/include/linux/pci.h"
	.file 142 "/mnt/disk/jenkins/ci/workspace/chipset_pipeline_release/opensource/component_code/vendor/huawei/extra/build/build_script/kirin_kernel_release/kernel/include/trace/events/iommu.h"
	.file 143 "/mnt/disk/jenkins/ci/workspace/chipset_pipeline_release/opensource/component_code/vendor/huawei/extra/build/build_script/kirin_kernel_release/kernel/arch/arm64/include/asm/irq.h"
	.file 144 "/mnt/disk/jenkins/ci/workspace/chipset_pipeline_release/opensource/component_code/vendor/huawei/extra/build/build_script/kirin_kernel_release/kernel/arch/arm64/include/asm/hardirq.h"
	.file 145 "/mnt/disk/jenkins/ci/workspace/chipset_pipeline_release/opensource/component_code/vendor/huawei/extra/build/build_script/kirin_kernel_release/kernel/arch/arm64/include/asm/string.h"
	.file 146 "/mnt/disk/jenkins/ci/workspace/chipset_pipeline_release/opensource/component_code/vendor/huawei/extra/build/build_script/kirin_kernel_release/kernel/include/linux/proc_fs.h"
	.section	.note.GNU-stack,"",%progbits
