	.cpu generic+fp+simd
	.file	"drv_omxvenc_efl.c"
	.text
.Ltext0:
	.cfi_sections	.debug_frame
	.align	2
	.type	VENC_DRV_EflPutMsg_OMX.part.0, %function
VENC_DRV_EflPutMsg_OMX.part.0:
.LFB2743:
	.file 1 "/mnt/disk/jenkins/ci/workspace/chipset_pipeline_release/opensource/component_code/vendor/huawei/extra/build/build_script/kirin_kernel_release/kernel/drivers/vcodec/hi_vcodec/venc/drv/venc/drv_omxvenc_efl.c"
	.loc 1 41 0
	.cfi_startproc
	stp	x29, x30, [sp, -16]!
	.cfi_def_cfa_offset 16
	.cfi_offset 29, -16
	.cfi_offset 30, -8
	.loc 1 49 0
	adrp	x3, .LANCHOR0
	adrp	x1, .LC0
	add	x3, x3, :lo12:.LANCHOR0
	adrp	x4, .LC1
	.loc 1 41 0
	add	x29, sp, 0
	.cfi_def_cfa_register 29
	.loc 1 49 0
	mov	w0, 1
	add	x1, x1, :lo12:.LC0
	mov	w2, 49
	add	x4, x4, :lo12:.LC1
	add	x5, x3, 24
	mov	x6, 0
	.loc 1 41 0
	.loc 1 49 0
	bl	HI_PRINT
.LVL0:
	.loc 1 64 0
	mov	w0, -1
	ldp	x29, x30, [sp], 16
	.cfi_restore 30
	.cfi_restore 29
	.cfi_def_cfa 31, 0
	ret
	.cfi_endproc
.LFE2743:
	.size	VENC_DRV_EflPutMsg_OMX.part.0, .-VENC_DRV_EflPutMsg_OMX.part.0
	.align	2
	.global	VENC_DRV_EflPutMsg_OMX
	.type	VENC_DRV_EflPutMsg_OMX, %function
VENC_DRV_EflPutMsg_OMX:
.LFB2740:
	.loc 1 42 0
	.cfi_startproc
.LVL1:
	sub	sp, sp, #976
	.cfi_def_cfa_offset 976
	stp	x29, x30, [sp, -48]!
	.cfi_def_cfa_offset 1024
	.cfi_offset 29, -1024
	.cfi_offset 30, -1016
	add	x29, sp, 0
	.cfi_def_cfa_register 29
	stp	x19, x20, [sp,16]
	.cfi_offset 19, -1008
	.cfi_offset 20, -1000
	adrp	x19, __stack_chk_guard
	mov	x20, x0
	stp	x21, x22, [sp,32]
	.cfi_offset 21, -992
	.cfi_offset 22, -984
	.loc 1 46 0
	add	x0, x29, 72
.LVL2:
	.loc 1 42 0
	mov	w22, w1
	ldr	x4, [x19,#:lo12:__stack_chk_guard]
	mov	w21, w2
	.loc 1 46 0
	mov	w1, 0
.LVL3:
	mov	x2, 944
.LVL4:
	.loc 1 42 0
	str	x3, [x29,56]
	str	x4, [x29,1016]
	.loc 1 46 0
	bl	memset
.LVL5:
	.loc 1 47 0
	ldr	x3, [x29,56]
.LVL6:
	cbz	x20, .L12
	.loc 1 53 0
	cbz	x3, .L5
	.loc 1 55 0
	add	x0, x29, 856
	mov	x1, x3
	mov	x2, 152
	bl	memcpy
.LVL7:
.L5:
	.loc 1 57 0
	mov	x0, x20
	add	x1, x29, 72
	mov	w2, w22
	mov	w3, w21
.LVL8:
	bl	VENC_DRV_MngQueue
.LVL9:
	.loc 1 58 0
	cbz	w0, .L13
.L4:
	.loc 1 64 0
	ldr	x2, [x29,1016]
	ldr	x1, [x19,#:lo12:__stack_chk_guard]
	cmp	x2, x1
	bne	.L14
	ldp	x19, x20, [sp,16]
	.cfi_remember_state
	.cfi_restore 20
	.cfi_restore 19
.LVL10:
	ldp	x21, x22, [sp,32]
	.cfi_restore 22
	.cfi_restore 21
.LVL11:
	ldp	x29, x30, [sp], 48
	.cfi_restore 30
	.cfi_restore 29
	.cfi_def_cfa 31, 976
	add	sp, sp, 976
	.cfi_def_cfa_offset 928
	ret
.LVL12:
.L13:
	.cfi_restore_state
	str	x0, [x29,56]
	.loc 1 60 0
	bl	VENC_DRV_EflWakeUpThread
.LVL13:
	ldr	x0, [x29,56]
	b	.L4
.LVL14:
.L12:
	bl	VENC_DRV_EflPutMsg_OMX.part.0
.LVL15:
	b	.L4
.L14:
	.loc 1 64 0
	bl	__stack_chk_fail
.LVL16:
	.cfi_endproc
.LFE2740:
	.size	VENC_DRV_EflPutMsg_OMX, .-VENC_DRV_EflPutMsg_OMX
	.align	2
	.global	VENC_DRV_EflGetMsg_OMX
	.type	VENC_DRV_EflGetMsg_OMX, %function
VENC_DRV_EflGetMsg_OMX:
.LFB2741:
	.loc 1 76 0
	.cfi_startproc
.LVL17:
	sub	sp, sp, #960
	.cfi_def_cfa_offset 960
	.loc 1 78 0
	mov	x2, 944
	.loc 1 76 0
	stp	x29, x30, [sp, -48]!
	.cfi_def_cfa_offset 1008
	.cfi_offset 29, -1008
	.cfi_offset 30, -1000
	add	x29, sp, 0
	.cfi_def_cfa_register 29
	stp	x19, x20, [sp,16]
	.cfi_offset 19, -992
	.cfi_offset 20, -984
	adrp	x20, __stack_chk_guard
	mov	x19, x0
	str	x21, [sp,32]
	.cfi_offset 21, -976
	.loc 1 78 0
	add	x0, x29, 56
.LVL18:
	.loc 1 76 0
	mov	x21, x1
	.loc 1 78 0
	mov	w1, 0
.LVL19:
	.loc 1 76 0
	ldr	x3, [x20,#:lo12:__stack_chk_guard]
	str	x3, [x29,1000]
	.loc 1 78 0
	bl	memset
.LVL20:
	.loc 1 80 0
	mov	x0, x19
	add	x1, x29, 56
	bl	VENC_DRV_MngDequeue
.LVL21:
	mov	w19, w0
.LVL22:
	cbnz	w0, .L18
	.loc 1 84 0
	mov	x0, x21
	add	x1, x29, 832
	mov	x2, 168
	bl	memcpy
.LVL23:
.L16:
	.loc 1 87 0
	ldr	x2, [x29,1000]
	mov	w0, w19
	ldr	x1, [x20,#:lo12:__stack_chk_guard]
	cmp	x2, x1
	bne	.L19
	ldp	x19, x20, [sp,16]
	.cfi_remember_state
	.cfi_restore 20
	.cfi_restore 19
	ldr	x21, [sp,32]
	.cfi_restore 21
.LVL24:
	ldp	x29, x30, [sp], 48
	.cfi_restore 30
	.cfi_restore 29
	.cfi_def_cfa 31, 960
	add	sp, sp, 960
	.cfi_def_cfa_offset 912
	ret
.LVL25:
.L18:
	.cfi_restore_state
	.loc 1 82 0
	mov	w19, -1
	b	.L16
.L19:
	.loc 1 87 0
	bl	__stack_chk_fail
.LVL26:
	.cfi_endproc
.LFE2741:
	.size	VENC_DRV_EflGetMsg_OMX, .-VENC_DRV_EflGetMsg_OMX
	.align	2
	.global	VENC_DRV_EflFlushPort_OMX
	.type	VENC_DRV_EflFlushPort_OMX, %function
VENC_DRV_EflFlushPort_OMX:
.LFB2742:
	.loc 1 90 0
	.cfi_startproc
.LVL27:
	sub	sp, sp, #976
	.cfi_def_cfa_offset 976
	.loc 1 96 0 discriminator 6
	adrp	x3, g_stVencChn
	add	x5, x3, :lo12:g_stVencChn
	.loc 1 90 0
	stp	x29, x30, [sp, -96]!
	.cfi_def_cfa_offset 1072
	.cfi_offset 29, -1072
	.cfi_offset 30, -1064
	add	x29, sp, 0
	.cfi_def_cfa_register 29
	stp	x19, x20, [sp,16]
	stp	x23, x24, [sp,48]
	stp	x27, x28, [sp,80]
	stp	x21, x22, [sp,32]
	stp	x25, x26, [sp,64]
	.cfi_offset 19, -1056
	.cfi_offset 20, -1048
	.cfi_offset 23, -1024
	.cfi_offset 24, -1016
	.cfi_offset 27, -992
	.cfi_offset 28, -984
	.cfi_offset 21, -1040
	.cfi_offset 22, -1032
	.cfi_offset 25, -1008
	.cfi_offset 26, -1000
	.loc 1 90 0
	adrp	x19, __stack_chk_guard
	mov	x28, x0
	mov	w20, w1
	mov	x0, 4294967295
.LVL28:
	.loc 1 96 0 discriminator 6
	ldr	x1, [x5,24]
.LVL29:
	cmp	x28, x0
	.loc 1 90 0
	ldr	x4, [x19,#:lo12:__stack_chk_guard]
	cset	w0, ne
	str	x4, [x29,1064]
	.loc 1 96 0 discriminator 2
	cmp	x1, x28
	.loc 1 90 0
	mov	w24, w2
	.loc 1 96 0 discriminator 2
	bne	.L49
	cbnz	w0, .L21
.L49:
	.loc 1 96 0 is_stmt 0 discriminator 6
	add	x1, x3, :lo12:g_stVencChn
	ldr	x1, [x1,768]
	.loc 1 96 0 discriminator 2
	cmp	x1, x28
	bne	.L50
	cbnz	w0, .L21
.L50:
	.loc 1 96 0 discriminator 6
	add	x1, x3, :lo12:g_stVencChn
	ldr	x1, [x1,1512]
	.loc 1 96 0 discriminator 2
	cmp	x1, x28
	bne	.L51
	cbnz	w0, .L21
.L51:
	.loc 1 96 0 discriminator 6
	add	x1, x3, :lo12:g_stVencChn
	ldr	x1, [x1,2256]
	.loc 1 96 0 discriminator 2
	cmp	x1, x28
	bne	.L52
	cbnz	w0, .L21
.L52:
	.loc 1 96 0 discriminator 6
	add	x1, x3, :lo12:g_stVencChn
	ldr	x1, [x1,3000]
	.loc 1 96 0 discriminator 2
	cmp	x1, x28
	bne	.L53
	cbnz	w0, .L21
.L53:
	.loc 1 96 0 discriminator 6
	add	x1, x3, :lo12:g_stVencChn
	ldr	x1, [x1,3744]
	.loc 1 96 0 discriminator 2
	cmp	x1, x28
	bne	.L54
	cbnz	w0, .L21
.L54:
	.loc 1 96 0 discriminator 6
	add	x1, x3, :lo12:g_stVencChn
	ldr	x1, [x1,4488]
	.loc 1 96 0 discriminator 2
	cmp	x1, x28
	bne	.L55
	cbnz	w0, .L21
.L55:
	.loc 1 96 0 discriminator 6
	add	x3, x3, :lo12:g_stVencChn
	ldr	x1, [x3,5232]
	.loc 1 96 0 discriminator 2
	cmp	x1, x28
	bne	.L56
	cbnz	w0, .L21
.L56:
	.loc 1 97 0 is_stmt 1 discriminator 1
	mov	w22, 3
.L30:
	.loc 1 158 0
	ldr	x2, [x29,1064]
	mov	w0, w22
	ldr	x1, [x19,#:lo12:__stack_chk_guard]
	cmp	x2, x1
	bne	.L94
	ldp	x19, x20, [sp,16]
	.cfi_remember_state
	.cfi_restore 20
	.cfi_restore 19
.LVL30:
	ldp	x21, x22, [sp,32]
	.cfi_restore 22
	.cfi_restore 21
	ldp	x23, x24, [sp,48]
	.cfi_restore 24
	.cfi_restore 23
.LVL31:
	ldp	x25, x26, [sp,64]
	.cfi_restore 26
	.cfi_restore 25
	ldp	x27, x28, [sp,80]
	.cfi_restore 28
	.cfi_restore 27
.LVL32:
	ldp	x29, x30, [sp], 96
	.cfi_restore 30
	.cfi_restore 29
	.cfi_def_cfa 31, 976
	add	sp, sp, 976
	.cfi_def_cfa_offset 880
	ret
.LVL33:
.L21:
	.cfi_restore_state
	.loc 1 99 0
	sub	w0, w20, #2
	cmn	w0, #4
	bls	.L95
	.loc 1 105 0
	cmn	w20, #1
	beq	.L57
	cmp	w20, 1
	mov	w22, 0
	beq	.L57
.L31:
	.loc 1 133 0
	sub	w20, w20, #1
.LVL34:
	cmn	w20, #3
	bls	.L30
	adrp	x25, .LANCHOR0
	adrp	x23, .LC0
.LBB2:
	.loc 1 144 0
	add	x27, x25, :lo12:.LANCHOR0
	adrp	x26, .LC5
	add	x0, x23, :lo12:.LC0
	add	x21, x28, 1560
	adrp	x20, VeduIpCtx
	str	x0, [x29,104]
	add	x27, x27, 48
	add	x26, x26, :lo12:.LC5
	b	.L43
.L39:
	.loc 1 146 0
	add	x0, x20, :lo12:VeduIpCtx
	ldr	w0, [x0,112]
	cbnz	w0, .L44
	.loc 1 146 0 is_stmt 0 discriminator 1
	ldr	x0, [x28,1544]
	bl	VENC_DRV_MngQueueEmpty
.LVL35:
	cbnz	w0, .L44
.L43:
	.loc 1 137 0 is_stmt 1
	mov	x0, x28
	mov	x1, x21
	bl	VENC_DRV_EflGetImage_OMX
.LVL36:
	.loc 1 138 0
	cbnz	w0, .L39
	.loc 1 140 0
	ldr	w4, [x28,976]
	.loc 1 141 0
	mov	w1, 7
	ldr	x0, [x28,1528]
	mov	x3, x21
	.loc 1 140 0
	add	w4, w4, 1
	.loc 1 141 0
	movk	w1, 0xa, lsl 16
	.loc 1 140 0
	str	w4, [x28,976]
	.loc 1 141 0
	mov	w2, 0
	bl	VENC_DRV_EflPutMsg_OMX
.LVL37:
	.loc 1 144 0
	add	x2, x20, :lo12:VeduIpCtx
	.loc 1 142 0
	ldr	w3, [x28,1332]
	.loc 1 144 0
	ldr	w5, [x28,1320]
	mov	w0, 4
	.loc 1 142 0
	add	w3, w3, 1
	.loc 1 144 0
	ldr	x1, [x29,104]
	ldr	w6, [x2,112]
	mov	x4, x26
	.loc 1 142 0
	str	w3, [x28,1332]
	.loc 1 144 0
	mov	w2, 144
	mov	x3, x27
	bl	HI_PRINT
.LVL38:
	b	.L39
.L44:
	.loc 1 148 0
	cbz	w24, .L96
.L42:
	.loc 1 154 0
	add	x3, x25, :lo12:.LANCHOR0
	.loc 1 153 0
	mov	w1, 1
	.loc 1 154 0
	adrp	x4, .LC6
	.loc 1 153 0
	str	w1, [x28,1556]
	.loc 1 154 0
	mov	w0, 3
	add	x1, x23, :lo12:.LC0
	mov	w2, 154
	add	x3, x3, 48
	add	x4, x4, :lo12:.LC6
	bl	HI_PRINT
.LVL39:
.LBE2:
	.loc 1 157 0
	b	.L30
.LVL40:
.L57:
.LBB3:
	.loc 1 108 0
	mov	w1, 0
	add	x0, x29, 120
	mov	x2, 944
	adrp	x25, .LANCHOR0
	.loc 1 121 0
	add	x26, x25, :lo12:.LANCHOR0
	adrp	x21, .LC3
.LBE3:
	.loc 1 92 0
	mov	w22, 0
.LVL41:
.LBB4:
	.loc 1 108 0
	bl	memset
.LVL42:
	adrp	x23, .LC0
	.loc 1 118 0
	add	x27, x29, 904
	.loc 1 121 0
	add	x26, x26, 48
	add	x21, x21, :lo12:.LC3
	.loc 1 110 0
	b	.L33
.L34:
	.loc 1 121 0
	mov	w0, 4
	add	x1, x23, :lo12:.LC0
	mov	w2, 121
	mov	x3, x26
	mov	x4, x21
	bl	HI_PRINT
.LVL43:
.L33:
	.loc 1 110 0
	ldr	x0, [x28,1536]
	bl	VENC_DRV_MngQueueEmpty
.LVL44:
	.loc 1 110 0 is_stmt 0 discriminator 1
	cbnz	w0, .L58
	cbnz	w22, .L58
	.loc 1 112 0 is_stmt 1
	ldr	x0, [x28,1536]
	add	x1, x29, 120
	bl	VENC_DRV_MngDequeue
.LVL45:
	mov	w22, w0
.LVL46:
	.loc 1 113 0
	cbnz	w0, .L34
	.loc 1 115 0
	ldr	w3, [x28,980]
	.loc 1 118 0
	mov	w1, 8
	.loc 1 116 0
	ldr	w2, [x28,1328]
	.loc 1 118 0
	movk	w1, 0xa, lsl 16
	.loc 1 115 0
	add	w3, w3, 1
	.loc 1 118 0
	ldr	x0, [x28,1528]
	.loc 1 116 0
	sub	w2, w2, #1
	.loc 1 115 0
	str	w3, [x28,980]
	.loc 1 116 0
	str	w2, [x28,1328]
	.loc 1 118 0
	mov	x3, x27
	mov	w2, 0
	.loc 1 117 0
	str	wzr, [x29,944]
	.loc 1 118 0
	bl	VENC_DRV_EflPutMsg_OMX
.LVL47:
	.loc 1 119 0
	ldr	w0, [x28,1332]
	add	w0, w0, 1
	str	w0, [x28,1332]
	b	.L34
.L58:
	.loc 1 124 0
	cbz	w24, .L97
.L37:
	.loc 1 129 0
	mov	w1, 1
	.loc 1 130 0
	add	x3, x25, :lo12:.LANCHOR0
	adrp	x4, .LC4
	.loc 1 129 0
	str	w1, [x28,1552]
	.loc 1 130 0
	mov	w0, 3
	add	x1, x23, :lo12:.LC0
	mov	w2, 130
	add	x3, x3, 48
	add	x4, x4, :lo12:.LC4
	bl	HI_PRINT
.LVL48:
	cmp	w22, wzr
	cset	w22, ne
.LVL49:
	b	.L31
.LVL50:
.L96:
.LBE4:
.LBB5:
	.loc 1 150 0
	mov	w1, 5
	ldr	x0, [x28,1528]
	movk	w1, 0xa, lsl 16
	mov	w2, 0
	mov	x3, 0
	bl	VENC_DRV_EflPutMsg_OMX
.LVL51:
	.loc 1 151 0
	ldr	w0, [x28,1332]
	add	w0, w0, 1
	str	w0, [x28,1332]
	b	.L42
.LVL52:
.L97:
.LBE5:
.LBB6:
	.loc 1 126 0
	mov	w1, 6
	ldr	x0, [x28,1528]
	movk	w1, 0xa, lsl 16
	mov	w2, w22
	mov	x3, 0
	bl	VENC_DRV_EflPutMsg_OMX
.LVL53:
	.loc 1 127 0
	ldr	w0, [x28,1332]
	add	w0, w0, 1
	str	w0, [x28,1332]
	b	.L37
.LVL54:
.L95:
.LBE6:
	.loc 1 101 0
	adrp	x3, .LANCHOR0
	adrp	x1, .LC0
	add	x3, x3, :lo12:.LANCHOR0
	adrp	x4, .LC2
	mov	w0, 1
	add	x1, x1, :lo12:.LC0
	mov	w2, 101
	add	x3, x3, 48
	add	x4, x4, :lo12:.LC2
	mov	w5, w20
	.loc 1 102 0
	mov	w22, -1
	.loc 1 101 0
	bl	HI_PRINT
.LVL55:
	.loc 1 102 0
	b	.L30
.L94:
	.loc 1 158 0
	bl	__stack_chk_fail
.LVL56:
	.cfi_endproc
.LFE2742:
	.size	VENC_DRV_EflFlushPort_OMX, .-VENC_DRV_EflFlushPort_OMX
	.global	g_stKernelVirAddr
	.section	.rodata
	.align	3
.LANCHOR0 = . + 0
	.type	__FUNCTION__.46346, %object
	.size	__FUNCTION__.46346, 23
__FUNCTION__.46346:
	.string	"VENC_DRV_EflPutMsg_OMX"
	.zero	1
	.type	__func__.46347, %object
	.size	__func__.46347, 23
__func__.46347:
	.string	"VENC_DRV_EflPutMsg_OMX"
	.zero	1
	.type	__FUNCTION__.46365, %object
	.size	__FUNCTION__.46365, 26
__FUNCTION__.46365:
	.string	"VENC_DRV_EflFlushPort_OMX"
	.section	.rodata.str1.8,"aMS",%progbits,1
	.align	3
.LC0:
	.string	"/mnt/disk/jenkins/ci/workspace/chipset_pipeline_release/opensource/component_code/vendor/huawei/extra/build/build_script/kirin_kernel_release/kernel/drivers/vcodec/hi_vcodec/venc/drv/venc/drv_omxvenc_efl.c"
	.zero	2
.LC1:
	.string	"%s :: invalid param queue = %pK !!\n"
	.zero	4
.LC2:
	.string	"bad PortIndex(%d)!!\n"
	.zero	3
.LC3:
	.string	"flush output port!\n"
	.zero	4
.LC4:
	.string	"flush output port success!!\n"
	.zero	3
.LC5:
	.string	"flush input port! QueueNum:%d VeduIpCtx.StopTask:%d\n"
	.zero	3
.LC6:
	.string	"flush input port success!\n"
	.bss
	.align	3
	.type	g_stKernelVirAddr, %object
	.size	g_stKernelVirAddr, 24
g_stKernelVirAddr:
	.zero	24
	.text
.Letext0:
	.file 2 "/mnt/disk/jenkins/ci/workspace/chipset_pipeline_release/opensource/component_code/vendor/huawei/extra/build/build_script/kirin_kernel_release/kernel/include/uapi/asm-generic/int-ll64.h"
	.file 3 "/mnt/disk/jenkins/ci/workspace/chipset_pipeline_release/opensource/component_code/vendor/huawei/extra/build/build_script/kirin_kernel_release/kernel/include/asm-generic/int-ll64.h"
	.file 4 "/mnt/disk/jenkins/ci/workspace/chipset_pipeline_release/opensource/component_code/vendor/huawei/extra/build/build_script/kirin_kernel_release/kernel/include/uapi/asm-generic/posix_types.h"
	.file 5 "/mnt/disk/jenkins/ci/workspace/chipset_pipeline_release/opensource/component_code/vendor/huawei/extra/build/build_script/kirin_kernel_release/kernel/include/linux/types.h"
	.file 6 "/mnt/disk/jenkins/ci/workspace/chipset_pipeline_release/opensource/component_code/vendor/huawei/extra/build/build_script/kirin_kernel_release/kernel/include/linux/restart_block.h"
	.file 7 "/mnt/disk/jenkins/ci/workspace/chipset_pipeline_release/opensource/component_code/vendor/huawei/extra/build/build_script/kirin_kernel_release/kernel/include/uapi/linux/time.h"
	.file 8 "/mnt/disk/jenkins/ci/workspace/chipset_pipeline_release/opensource/component_code/vendor/huawei/extra/build/build_script/kirin_kernel_release/kernel/arch/arm64/include/asm/compat.h"
	.file 9 "/mnt/disk/jenkins/ci/workspace/chipset_pipeline_release/opensource/component_code/vendor/huawei/extra/build/build_script/kirin_kernel_release/kernel/arch/arm64/include/asm/thread_info.h"
	.file 10 "/mnt/disk/jenkins/ci/workspace/chipset_pipeline_release/opensource/component_code/vendor/huawei/extra/build/build_script/kirin_kernel_release/kernel/arch/arm64/include/uapi/asm/ptrace.h"
	.file 11 "/mnt/disk/jenkins/ci/workspace/chipset_pipeline_release/opensource/component_code/vendor/huawei/extra/build/build_script/kirin_kernel_release/kernel/arch/arm64/include/asm/spinlock_types.h"
	.file 12 "/mnt/disk/jenkins/ci/workspace/chipset_pipeline_release/opensource/component_code/vendor/huawei/extra/build/build_script/kirin_kernel_release/kernel/include/linux/spinlock_types.h"
	.file 13 "/mnt/disk/jenkins/ci/workspace/chipset_pipeline_release/opensource/component_code/vendor/huawei/extra/build/build_script/kirin_kernel_release/kernel/include/linux/rwlock_types.h"
	.file 14 "/mnt/disk/jenkins/ci/workspace/chipset_pipeline_release/opensource/component_code/vendor/huawei/extra/build/build_script/kirin_kernel_release/kernel/arch/arm64/include/asm/fpsimd.h"
	.file 15 "/mnt/disk/jenkins/ci/workspace/chipset_pipeline_release/opensource/component_code/vendor/huawei/extra/build/build_script/kirin_kernel_release/kernel/include/linux/jump_label.h"
	.file 16 "/mnt/disk/jenkins/ci/workspace/chipset_pipeline_release/opensource/component_code/vendor/huawei/extra/build/build_script/kirin_kernel_release/kernel/include/asm-generic/atomic-long.h"
	.file 17 "/mnt/disk/jenkins/ci/workspace/chipset_pipeline_release/opensource/component_code/vendor/huawei/extra/build/build_script/kirin_kernel_release/kernel/arch/arm64/include/asm/processor.h"
	.file 18 "/mnt/disk/jenkins/ci/workspace/chipset_pipeline_release/opensource/component_code/vendor/huawei/extra/build/build_script/kirin_kernel_release/kernel/include/linux/wait.h"
	.file 19 "/mnt/disk/jenkins/ci/workspace/chipset_pipeline_release/opensource/component_code/vendor/huawei/extra/build/build_script/kirin_kernel_release/kernel/include/linux/cpumask.h"
	.file 20 "/mnt/disk/jenkins/ci/workspace/chipset_pipeline_release/opensource/component_code/vendor/huawei/extra/build/build_script/kirin_kernel_release/kernel/include/linux/seqlock.h"
	.file 21 "/mnt/disk/jenkins/ci/workspace/chipset_pipeline_release/opensource/component_code/vendor/huawei/extra/build/build_script/kirin_kernel_release/kernel/include/linux/completion.h"
	.file 22 "/mnt/disk/jenkins/ci/workspace/chipset_pipeline_release/opensource/component_code/vendor/huawei/extra/build/build_script/kirin_kernel_release/kernel/include/linux/time64.h"
	.file 23 "/mnt/disk/jenkins/ci/workspace/chipset_pipeline_release/opensource/component_code/vendor/huawei/extra/build/build_script/kirin_kernel_release/kernel/include/linux/ktime.h"
	.file 24 "/mnt/disk/jenkins/ci/workspace/chipset_pipeline_release/opensource/component_code/vendor/huawei/extra/build/build_script/kirin_kernel_release/kernel/include/linux/list_bl.h"
	.file 25 "/mnt/disk/jenkins/ci/workspace/chipset_pipeline_release/opensource/component_code/vendor/huawei/extra/build/build_script/kirin_kernel_release/kernel/include/linux/lockref.h"
	.file 26 "/mnt/disk/jenkins/ci/workspace/chipset_pipeline_release/opensource/component_code/vendor/huawei/extra/build/build_script/kirin_kernel_release/kernel/include/linux/dcache.h"
	.file 27 "/mnt/disk/jenkins/ci/workspace/chipset_pipeline_release/opensource/component_code/vendor/huawei/extra/build/build_script/kirin_kernel_release/kernel/include/linux/fs.h"
	.file 28 "/mnt/disk/jenkins/ci/workspace/chipset_pipeline_release/opensource/component_code/vendor/huawei/extra/build/build_script/kirin_kernel_release/kernel/include/linux/path.h"
	.file 29 "/mnt/disk/jenkins/ci/workspace/chipset_pipeline_release/opensource/component_code/vendor/huawei/extra/build/build_script/kirin_kernel_release/kernel/include/linux/capability.h"
	.file 30 "/mnt/disk/jenkins/ci/workspace/chipset_pipeline_release/opensource/component_code/vendor/huawei/extra/build/build_script/kirin_kernel_release/kernel/include/linux/plist.h"
	.file 31 "/mnt/disk/jenkins/ci/workspace/chipset_pipeline_release/opensource/component_code/vendor/huawei/extra/build/build_script/kirin_kernel_release/kernel/include/linux/rbtree.h"
	.file 32 "/mnt/disk/jenkins/ci/workspace/chipset_pipeline_release/opensource/component_code/vendor/huawei/extra/build/build_script/kirin_kernel_release/kernel/include/linux/nodemask.h"
	.file 33 "/mnt/disk/jenkins/ci/workspace/chipset_pipeline_release/opensource/component_code/vendor/huawei/extra/build/build_script/kirin_kernel_release/kernel/include/linux/osq_lock.h"
	.file 34 "/mnt/disk/jenkins/ci/workspace/chipset_pipeline_release/opensource/component_code/vendor/huawei/extra/build/build_script/kirin_kernel_release/kernel/include/linux/rwsem.h"
	.file 35 "/mnt/disk/jenkins/ci/workspace/chipset_pipeline_release/opensource/component_code/vendor/huawei/extra/build/build_script/kirin_kernel_release/kernel/include/linux/sched.h"
	.file 36 "/mnt/disk/jenkins/ci/workspace/chipset_pipeline_release/opensource/component_code/vendor/huawei/extra/build/build_script/kirin_kernel_release/kernel/include/linux/mm_types.h"
	.file 37 "/mnt/disk/jenkins/ci/workspace/chipset_pipeline_release/opensource/component_code/vendor/huawei/extra/build/build_script/kirin_kernel_release/kernel/include/linux/lockdep.h"
	.file 38 "/mnt/disk/jenkins/ci/workspace/chipset_pipeline_release/opensource/component_code/vendor/huawei/extra/build/build_script/kirin_kernel_release/kernel/include/linux/uprobes.h"
	.file 39 "/mnt/disk/jenkins/ci/workspace/chipset_pipeline_release/opensource/component_code/vendor/huawei/extra/build/build_script/kirin_kernel_release/kernel/include/linux/timer.h"
	.file 40 "/mnt/disk/jenkins/ci/workspace/chipset_pipeline_release/opensource/component_code/vendor/huawei/extra/build/build_script/kirin_kernel_release/kernel/include/linux/uidgid.h"
	.file 41 "/mnt/disk/jenkins/ci/workspace/chipset_pipeline_release/opensource/component_code/vendor/huawei/extra/build/build_script/kirin_kernel_release/kernel/include/linux/workqueue.h"
	.file 42 "/mnt/disk/jenkins/ci/workspace/chipset_pipeline_release/opensource/component_code/vendor/huawei/extra/build/build_script/kirin_kernel_release/kernel/arch/arm64/include/asm/pgtable-types.h"
	.file 43 "/mnt/disk/jenkins/ci/workspace/chipset_pipeline_release/opensource/component_code/vendor/huawei/extra/build/build_script/kirin_kernel_release/kernel/arch/arm64/include/asm/page.h"
	.file 44 "/mnt/disk/jenkins/ci/workspace/chipset_pipeline_release/opensource/component_code/vendor/huawei/extra/build/build_script/kirin_kernel_release/kernel/include/linux/llist.h"
	.file 45 "/mnt/disk/jenkins/ci/workspace/chipset_pipeline_release/opensource/component_code/vendor/huawei/extra/build/build_script/kirin_kernel_release/kernel/arch/arm64/include/asm/smp.h"
	.file 46 "/mnt/disk/jenkins/ci/workspace/chipset_pipeline_release/opensource/component_code/vendor/huawei/extra/build/build_script/kirin_kernel_release/kernel/arch/arm64/include/asm/mmu.h"
	.file 47 "/mnt/disk/jenkins/ci/workspace/chipset_pipeline_release/opensource/component_code/vendor/huawei/extra/build/build_script/kirin_kernel_release/kernel/include/linux/mm.h"
	.file 48 "/mnt/disk/jenkins/ci/workspace/chipset_pipeline_release/opensource/component_code/vendor/huawei/extra/build/build_script/kirin_kernel_release/kernel/include/asm-generic/cputime_jiffies.h"
	.file 49 "/mnt/disk/jenkins/ci/workspace/chipset_pipeline_release/opensource/component_code/vendor/huawei/extra/build/build_script/kirin_kernel_release/kernel/include/uapi/asm-generic/signal.h"
	.file 50 "/mnt/disk/jenkins/ci/workspace/chipset_pipeline_release/opensource/component_code/vendor/huawei/extra/build/build_script/kirin_kernel_release/kernel/include/uapi/asm-generic/signal-defs.h"
	.file 51 "/mnt/disk/jenkins/ci/workspace/chipset_pipeline_release/opensource/component_code/vendor/huawei/extra/build/build_script/kirin_kernel_release/kernel/include/uapi/asm-generic/siginfo.h"
	.file 52 "/mnt/disk/jenkins/ci/workspace/chipset_pipeline_release/opensource/component_code/vendor/huawei/extra/build/build_script/kirin_kernel_release/kernel/include/linux/signal.h"
	.file 53 "/mnt/disk/jenkins/ci/workspace/chipset_pipeline_release/opensource/component_code/vendor/huawei/extra/build/build_script/kirin_kernel_release/kernel/include/linux/pid.h"
	.file 54 "/mnt/disk/jenkins/ci/workspace/chipset_pipeline_release/opensource/component_code/vendor/huawei/extra/build/build_script/kirin_kernel_release/kernel/include/linux/mmzone.h"
	.file 55 "/mnt/disk/jenkins/ci/workspace/chipset_pipeline_release/opensource/component_code/vendor/huawei/extra/build/build_script/kirin_kernel_release/kernel/include/linux/mutex.h"
	.file 56 "/mnt/disk/jenkins/ci/workspace/chipset_pipeline_release/opensource/component_code/vendor/huawei/extra/build/build_script/kirin_kernel_release/kernel/include/linux/seccomp.h"
	.file 57 "/mnt/disk/jenkins/ci/workspace/chipset_pipeline_release/opensource/component_code/vendor/huawei/extra/build/build_script/kirin_kernel_release/kernel/include/uapi/linux/resource.h"
	.file 58 "/mnt/disk/jenkins/ci/workspace/chipset_pipeline_release/opensource/component_code/vendor/huawei/extra/build/build_script/kirin_kernel_release/kernel/include/linux/timerqueue.h"
	.file 59 "/mnt/disk/jenkins/ci/workspace/chipset_pipeline_release/opensource/component_code/vendor/huawei/extra/build/build_script/kirin_kernel_release/kernel/include/linux/hrtimer.h"
	.file 60 "/mnt/disk/jenkins/ci/workspace/chipset_pipeline_release/opensource/component_code/vendor/huawei/extra/build/build_script/kirin_kernel_release/kernel/include/linux/task_io_accounting.h"
	.file 61 "/mnt/disk/jenkins/ci/workspace/chipset_pipeline_release/opensource/component_code/vendor/huawei/extra/build/build_script/kirin_kernel_release/kernel/include/linux/assoc_array.h"
	.file 62 "/mnt/disk/jenkins/ci/workspace/chipset_pipeline_release/opensource/component_code/vendor/huawei/extra/build/build_script/kirin_kernel_release/kernel/include/linux/key.h"
	.file 63 "/mnt/disk/jenkins/ci/workspace/chipset_pipeline_release/opensource/component_code/vendor/huawei/extra/build/build_script/kirin_kernel_release/kernel/include/linux/cred.h"
	.file 64 "/mnt/disk/jenkins/ci/workspace/chipset_pipeline_release/opensource/component_code/vendor/huawei/extra/build/build_script/kirin_kernel_release/kernel/include/linux/idr.h"
	.file 65 "/mnt/disk/jenkins/ci/workspace/chipset_pipeline_release/opensource/component_code/vendor/huawei/extra/build/build_script/kirin_kernel_release/kernel/include/linux/percpu-refcount.h"
	.file 66 "/mnt/disk/jenkins/ci/workspace/chipset_pipeline_release/opensource/component_code/vendor/huawei/extra/build/build_script/kirin_kernel_release/kernel/include/linux/rcu_sync.h"
	.file 67 "/mnt/disk/jenkins/ci/workspace/chipset_pipeline_release/opensource/component_code/vendor/huawei/extra/build/build_script/kirin_kernel_release/kernel/include/linux/percpu-rwsem.h"
	.file 68 "/mnt/disk/jenkins/ci/workspace/chipset_pipeline_release/opensource/component_code/vendor/huawei/extra/build/build_script/kirin_kernel_release/kernel/include/linux/bpf-cgroup.h"
	.file 69 "/mnt/disk/jenkins/ci/workspace/chipset_pipeline_release/opensource/component_code/vendor/huawei/extra/build/build_script/kirin_kernel_release/kernel/include/linux/cgroup-defs.h"
	.file 70 "/mnt/disk/jenkins/ci/workspace/chipset_pipeline_release/opensource/component_code/vendor/huawei/extra/build/build_script/kirin_kernel_release/kernel/include/linux/kernfs.h"
	.file 71 "/mnt/disk/jenkins/ci/workspace/chipset_pipeline_release/opensource/component_code/vendor/huawei/extra/build/build_script/kirin_kernel_release/kernel/include/linux/seq_file.h"
	.file 72 "/mnt/disk/jenkins/ci/workspace/chipset_pipeline_release/opensource/component_code/vendor/huawei/extra/build/build_script/kirin_kernel_release/kernel/include/linux/stat.h"
	.file 73 "/mnt/disk/jenkins/ci/workspace/chipset_pipeline_release/opensource/component_code/vendor/huawei/extra/build/build_script/kirin_kernel_release/kernel/include/linux/shrinker.h"
	.file 74 "/mnt/disk/jenkins/ci/workspace/chipset_pipeline_release/opensource/component_code/vendor/huawei/extra/build/build_script/kirin_kernel_release/kernel/include/linux/list_lru.h"
	.file 75 "/mnt/disk/jenkins/ci/workspace/chipset_pipeline_release/opensource/component_code/vendor/huawei/extra/build/build_script/kirin_kernel_release/kernel/include/linux/radix-tree.h"
	.file 76 "/mnt/disk/jenkins/ci/workspace/chipset_pipeline_release/opensource/component_code/vendor/huawei/extra/build/build_script/kirin_kernel_release/kernel/include/uapi/linux/fiemap.h"
	.file 77 "/mnt/disk/jenkins/ci/workspace/chipset_pipeline_release/opensource/component_code/vendor/huawei/extra/build/build_script/kirin_kernel_release/kernel/include/linux/migrate_mode.h"
	.file 78 "/mnt/disk/jenkins/ci/workspace/chipset_pipeline_release/opensource/component_code/vendor/huawei/extra/build/build_script/kirin_kernel_release/kernel/include/linux/delayed_call.h"
	.file 79 "/mnt/disk/jenkins/ci/workspace/chipset_pipeline_release/opensource/component_code/vendor/huawei/extra/build/build_script/kirin_kernel_release/kernel/include/linux/percpu_counter.h"
	.file 80 "/mnt/disk/jenkins/ci/workspace/chipset_pipeline_release/opensource/component_code/vendor/huawei/extra/build/build_script/kirin_kernel_release/kernel/include/linux/quota.h"
	.file 81 "/mnt/disk/jenkins/ci/workspace/chipset_pipeline_release/opensource/component_code/vendor/huawei/extra/build/build_script/kirin_kernel_release/kernel/include/linux/projid.h"
	.file 82 "/mnt/disk/jenkins/ci/workspace/chipset_pipeline_release/opensource/component_code/vendor/huawei/extra/build/build_script/kirin_kernel_release/kernel/include/linux/nfs_fs_i.h"
	.file 83 "/mnt/disk/jenkins/ci/workspace/chipset_pipeline_release/opensource/component_code/vendor/huawei/extra/build/build_script/kirin_kernel_release/kernel/include/linux/kobject_ns.h"
	.file 84 "/mnt/disk/jenkins/ci/workspace/chipset_pipeline_release/opensource/component_code/vendor/huawei/extra/build/build_script/kirin_kernel_release/kernel/include/linux/sysfs.h"
	.file 85 "/mnt/disk/jenkins/ci/workspace/chipset_pipeline_release/opensource/component_code/vendor/huawei/extra/build/build_script/kirin_kernel_release/kernel/include/linux/kobject.h"
	.file 86 "/mnt/disk/jenkins/ci/workspace/chipset_pipeline_release/opensource/component_code/vendor/huawei/extra/build/build_script/kirin_kernel_release/kernel/include/linux/kref.h"
	.file 87 "/mnt/disk/jenkins/ci/workspace/chipset_pipeline_release/opensource/component_code/vendor/huawei/extra/build/build_script/kirin_kernel_release/kernel/include/linux/klist.h"
	.file 88 "/mnt/disk/jenkins/ci/workspace/chipset_pipeline_release/opensource/component_code/vendor/huawei/extra/build/build_script/kirin_kernel_release/kernel/include/linux/pinctrl/devinfo.h"
	.file 89 "/mnt/disk/jenkins/ci/workspace/chipset_pipeline_release/opensource/component_code/vendor/huawei/extra/build/build_script/kirin_kernel_release/kernel/include/linux/pm.h"
	.file 90 "/mnt/disk/jenkins/ci/workspace/chipset_pipeline_release/opensource/component_code/vendor/huawei/extra/build/build_script/kirin_kernel_release/kernel/include/linux/device.h"
	.file 91 "/mnt/disk/jenkins/ci/workspace/chipset_pipeline_release/opensource/component_code/vendor/huawei/extra/build/build_script/kirin_kernel_release/kernel/include/linux/pm_wakeup.h"
	.file 92 "/mnt/disk/jenkins/ci/workspace/chipset_pipeline_release/opensource/component_code/vendor/huawei/extra/build/build_script/kirin_kernel_release/kernel/arch/arm64/include/asm/device.h"
	.file 93 "/mnt/disk/jenkins/ci/workspace/chipset_pipeline_release/opensource/component_code/vendor/huawei/extra/build/build_script/kirin_kernel_release/kernel/include/linux/dma-mapping.h"
	.file 94 "/mnt/disk/jenkins/ci/workspace/chipset_pipeline_release/opensource/component_code/vendor/huawei/extra/build/build_script/kirin_kernel_release/kernel/include/linux/iommu.h"
	.file 95 "/mnt/disk/jenkins/ci/workspace/chipset_pipeline_release/opensource/component_code/vendor/huawei/extra/build/build_script/kirin_kernel_release/kernel/include/linux/mod_devicetable.h"
	.file 96 "/mnt/disk/jenkins/ci/workspace/chipset_pipeline_release/opensource/component_code/vendor/huawei/extra/build/build_script/kirin_kernel_release/kernel/include/linux/of.h"
	.file 97 "/mnt/disk/jenkins/ci/workspace/chipset_pipeline_release/opensource/component_code/vendor/huawei/extra/build/build_script/kirin_kernel_release/kernel/include/linux/fwnode.h"
	.file 98 "/mnt/disk/jenkins/ci/workspace/chipset_pipeline_release/opensource/component_code/vendor/huawei/extra/build/build_script/kirin_kernel_release/kernel/drivers/vcodec/hi_vcodec/venc/include/hi_type.h"
	.file 99 "/mnt/disk/jenkins/ci/workspace/chipset_pipeline_release/opensource/component_code/vendor/huawei/extra/build/build_script/kirin_kernel_release/kernel/drivers/vcodec/hi_vcodec/venc/drv/include/hi_drv_video.h"
	.file 100 "/mnt/disk/jenkins/ci/workspace/chipset_pipeline_release/opensource/component_code/vendor/huawei/extra/build/build_script/kirin_kernel_release/kernel/include/linux/interrupt.h"
	.file 101 "/mnt/disk/jenkins/ci/workspace/chipset_pipeline_release/opensource/component_code/vendor/huawei/extra/build/build_script/kirin_kernel_release/kernel/drivers/vcodec/hi_vcodec/venc/include/hi_unf_video.h"
	.file 102 "/mnt/disk/jenkins/ci/workspace/chipset_pipeline_release/opensource/component_code/vendor/huawei/extra/build/build_script/kirin_kernel_release/kernel/drivers/vcodec/hi_vcodec/venc/include/hi_unf_venc.h"
	.file 103 "/mnt/disk/jenkins/ci/workspace/chipset_pipeline_release/opensource/component_code/vendor/huawei/extra/build/build_script/kirin_kernel_release/kernel/drivers/vcodec/hi_vcodec/venc/drv/include/hi_drv_venc.h"
	.file 104 "/mnt/disk/jenkins/ci/workspace/chipset_pipeline_release/opensource/component_code/vendor/huawei/extra/build/build_script/kirin_kernel_release/kernel/drivers/vcodec/hi_vcodec/venc/drv/venc/drv_venc_queue_mng.h"
	.file 105 "/mnt/disk/jenkins/ci/workspace/chipset_pipeline_release/opensource/component_code/vendor/huawei/extra/build/build_script/kirin_kernel_release/kernel/include/linux/tracepoint-defs.h"
	.file 106 "/mnt/disk/jenkins/ci/workspace/chipset_pipeline_release/opensource/component_code/vendor/huawei/extra/build/build_script/kirin_kernel_release/kernel/include/linux/vm_event_item.h"
	.file 107 "/mnt/disk/jenkins/ci/workspace/chipset_pipeline_release/opensource/component_code/vendor/huawei/extra/build/build_script/kirin_kernel_release/kernel/include/linux/vmstat.h"
	.file 108 "/mnt/disk/jenkins/ci/workspace/chipset_pipeline_release/opensource/component_code/vendor/huawei/extra/build/build_script/kirin_kernel_release/kernel/include/linux/scatterlist.h"
	.file 109 "/mnt/disk/jenkins/ci/workspace/chipset_pipeline_release/opensource/component_code/vendor/huawei/extra/build/build_script/kirin_kernel_release/kernel/include/linux/dma-direction.h"
	.file 110 "/mnt/disk/jenkins/ci/workspace/chipset_pipeline_release/opensource/component_code/vendor/huawei/extra/build/build_script/kirin_kernel_release/kernel/include/linux/pci.h"
	.file 111 "/mnt/disk/jenkins/ci/workspace/chipset_pipeline_release/opensource/component_code/vendor/huawei/extra/build/build_script/kirin_kernel_release/kernel/drivers/vcodec/hi_vcodec/venc/drv/include/hi_drv_mem.h"
	.file 112 "/mnt/disk/jenkins/ci/workspace/chipset_pipeline_release/opensource/component_code/vendor/huawei/extra/build/build_script/kirin_kernel_release/kernel/drivers/vcodec/hi_vcodec/venc/drv/venc/drv_venc_efl.h"
	.file 113 "/mnt/disk/jenkins/ci/workspace/chipset_pipeline_release/opensource/component_code/vendor/huawei/extra/build/build_script/kirin_kernel_release/kernel/drivers/vcodec/hi_vcodec/venc/drv/venc/drv_venc.h"
	.file 114 "/mnt/disk/jenkins/ci/workspace/chipset_pipeline_release/opensource/component_code/vendor/huawei/extra/build/build_script/kirin_kernel_release/kernel/drivers/vcodec/hi_vcodec/venc/drv/venc/drv_venc_buf_mng.h"
	.file 115 "/mnt/disk/jenkins/ci/workspace/chipset_pipeline_release/opensource/component_code/vendor/huawei/extra/build/build_script/kirin_kernel_release/kernel/arch/arm64/include/asm/cachetype.h"
	.file 116 "/mnt/disk/jenkins/ci/workspace/chipset_pipeline_release/opensource/component_code/vendor/huawei/extra/build/build_script/kirin_kernel_release/kernel/include/linux/printk.h"
	.file 117 "/mnt/disk/jenkins/ci/workspace/chipset_pipeline_release/opensource/component_code/vendor/huawei/extra/build/build_script/kirin_kernel_release/kernel/include/linux/kernel.h"
	.file 118 "/mnt/disk/jenkins/ci/workspace/chipset_pipeline_release/opensource/component_code/vendor/huawei/extra/build/build_script/kirin_kernel_release/kernel/arch/arm64/include/asm/stack_pointer.h"
	.file 119 "/mnt/disk/jenkins/ci/workspace/chipset_pipeline_release/opensource/component_code/vendor/huawei/extra/build/build_script/kirin_kernel_release/kernel/arch/arm64/include/asm/hwcap.h"
	.file 120 "/mnt/disk/jenkins/ci/workspace/chipset_pipeline_release/opensource/component_code/vendor/huawei/extra/build/build_script/kirin_kernel_release/kernel/arch/arm64/include/asm/cpufeature.h"
	.file 121 "/mnt/disk/jenkins/ci/workspace/chipset_pipeline_release/opensource/component_code/vendor/huawei/extra/build/build_script/kirin_kernel_release/kernel/arch/arm64/include/asm/virt.h"
	.file 122 "/mnt/disk/jenkins/ci/workspace/chipset_pipeline_release/opensource/component_code/vendor/huawei/extra/build/build_script/kirin_kernel_release/kernel/include/linux/jiffies.h"
	.file 123 "/mnt/disk/jenkins/ci/workspace/chipset_pipeline_release/opensource/component_code/vendor/huawei/extra/build/build_script/kirin_kernel_release/kernel/include/linux/highuid.h"
	.file 124 "/mnt/disk/jenkins/ci/workspace/chipset_pipeline_release/opensource/component_code/vendor/huawei/extra/build/build_script/kirin_kernel_release/kernel/arch/arm64/include/asm/memory.h"
	.file 125 "/mnt/disk/jenkins/ci/workspace/chipset_pipeline_release/opensource/component_code/vendor/huawei/extra/build/build_script/kirin_kernel_release/kernel/include/asm-generic/percpu.h"
	.file 126 "/mnt/disk/jenkins/ci/workspace/chipset_pipeline_release/opensource/component_code/vendor/huawei/extra/build/build_script/kirin_kernel_release/kernel/arch/arm64/include/asm/irq.h"
	.file 127 "/mnt/disk/jenkins/ci/workspace/chipset_pipeline_release/opensource/component_code/vendor/huawei/extra/build/build_script/kirin_kernel_release/kernel/arch/arm64/include/asm/hardirq.h"
	.file 128 "/mnt/disk/jenkins/ci/workspace/chipset_pipeline_release/opensource/component_code/vendor/huawei/extra/build/build_script/kirin_kernel_release/kernel/include/linux/slab.h"
	.file 129 "/mnt/disk/jenkins/ci/workspace/chipset_pipeline_release/opensource/component_code/vendor/huawei/extra/build/build_script/kirin_kernel_release/kernel/include/asm-generic/pgtable.h"
	.file 130 "/mnt/disk/jenkins/ci/workspace/chipset_pipeline_release/opensource/component_code/vendor/huawei/extra/build/build_script/kirin_kernel_release/kernel/include/linux/debug_locks.h"
	.file 131 "/mnt/disk/jenkins/ci/workspace/chipset_pipeline_release/opensource/component_code/vendor/huawei/extra/build/build_script/kirin_kernel_release/kernel/arch/arm64/include/../../arm/include/asm/xen/hypervisor.h"
	.file 132 "/mnt/disk/jenkins/ci/workspace/chipset_pipeline_release/opensource/component_code/vendor/huawei/extra/build/build_script/kirin_kernel_release/kernel/arch/arm64/include/asm/dma-mapping.h"
	.file 133 "/mnt/disk/jenkins/ci/workspace/chipset_pipeline_release/opensource/component_code/vendor/huawei/extra/build/build_script/kirin_kernel_release/kernel/include/trace/events/iommu.h"
	.section	.note.GNU-stack,"",%progbits
